                                                                      Page 1
                                                              C:\Users\minda\AppData\Local\Temp\gh_000031s1.si
Command Line: C:\ghs\comp_201715\ease850.exe -w -elf -b0 -I..\..\..\..\app\common\dhd -I..\..\..\..\app\gfx_apps\W501\res -I..\..\..\..\app\gfx_apps\W501\src\ADC -I..\..\..\..\app\gfx_apps\W501\src\CAN -I..\..\..\..\app\gfx_apps\W501\src\TFT -I..\..\..\..\app\gfx_apps\W501\src\DIGITAL_GAUGE -I..\..\..\..\app\gfx_apps\W501\src\EEPROM -I..\..\..\..\app\gfx_apps\W501\src\INPUT -I..\..\..\..\app\gfx_apps\W501\src\ISM -I..\..\..\..\app\gfx_apps\W501\src\SOUND -I..\..\..\..\app\gfx_apps\W501\src\TELLTALE -I..\..\..\..\app\gfx_apps\W501\src\TIMER -I..\..\..\..\app\gfx_apps\W501\src\UDS -I..\..\..\..\app\gfx_apps\W501\src\ -I..\..\..\..\app\gfx_apps\W501\src\images -I..\..\..\..\app\gfx_apps\W501\target\ -I..\..\..\..\app\gfx_apps\W501\target\config -I..\..\..\..\bsp\board\config -I..\..\..\..\bsp\board\src\gfx -I..\..\..\..\bsp\board\src\hmi -I..\..\..\..\bsp\board\src\stdio -I..\..\..\..\bsp\board\d1mx_mango\config -I..\..\..\..\bsp\board\d1mx_mango\src -I..\..\..\..\bsp\board\d1mx_mango\src\gfx -I..\..\..\..\bsp\board\d1mx_mango\src\hmi -I..\..\..\..\bsp\board\d1mx_mango\src\stdio -I..\..\..\..\bsp\gfx\lib -I..\..\..\..\bsp\gfx\src -I..\..\..\..\bsp\hmi\lib -I..\..\..\..\bsp\hmi\src -I..\..\..\..\bsp\lib -I..\..\..\..\bsp\stdio\lib -I..\..\..\..\bsp\stdio\src -I..\..\..\..\cdi\lib -I..\..\..\..\cdi\src -I..\..\..\..\compiler\rh850_ghs\inc -I..\..\..\..\device\d1mx\lib -I..\..\..\..\device\d1mx\macro_cfg -I..\..\..\..\device\d1mx\src\dev -I..\..\..\..\device\d1mx\src\dhd -I..\..\..\..\device\d1mx\src\jcua -I..\..\..\..\device\d1mx\src\rh850_ghs -I..\..\..\..\device\d1mx\src\vowe -I..\..\..\..\device\d1x_common\macro_cfg -I..\..\..\..\device\d1x_common\src\csisw -I..\..\..\..\device\d1x_common\src\dev -I..\..\..\..\device\d1x_common\src\gfxbus -I..\..\..\..\device\d1x_common\src\gpio -I..\..\..\..\device\d1x_common\src\ostm -I..\..\..\..\device\d1x_common\src\pbg -I..\..\..\..\device\d1x_common\src\riic -I..\..\..\..\device\d1x_common\src\sfma -I..\..\..\..\device\d1x_common\src\spea -I..\..\..\..\device\d1x_common\src\tauj -I..\..\..\..\device\d1x_common\src\tick -I..\..\..\..\device\d1x_common\src\vdce -I..\..\..\..\device\d1x_common\src\wm -I..\..\..\..\device\d1x_common\src\dma -I..\..\..\..\device\d1x_common\src\g3dma -I..\..\..\..\device\d1x_common\src\xbus -I..\..\..\..\device\d1x_common\src\pcmp -I..\..\..\..\device\d1x_common\src\taub -I..\..\..\..\device\lib -I..\..\..\..\macro\bus\pbg\lib -I..\..\..\..\macro\bus\pbg\src -I..\..\..\..\macro\ad_converter\adc7010\lib -I..\..\..\..\macro\ad_converter\adc7010\src -I..\..\..\..\macro\sm\ism\src -I..\..\..\..\macro\sm\ism\lib -I..\..\..\..\device\d1x_common\src\ism -I..\..\..\..\macro\ecm\lib -I..\..\..\..\macro\ecm\src -I..\..\..\..\device\d1x_common\src\ecm -I..\..\..\..\macro\csi\csisw\lib -I..\..\..\..\macro\csi\csisw\src -I..\..\..\..\macro\dma\dma\lib -I..\..\..\..\macro\dma\dma\src -I..\..\..\..\macro\dma\g3dma\lib -I..\..\..\..\macro\dma\g3dma\src -I..\..\..\..\macro\drw2d\lib -I..\..\..\..\macro\drw2d\platform\davehd -I..\..\..\..\macro\drw2d\platform\os\no_os -I..\..\..\..\macro\drw2d\src -I..\..\..\..\macro\flashc\sfcdb\lib -I..\..\..\..\macro\flashc\sfcdb\src -I..\..\..\..\macro\flashc\sfma\lib -I..\..\..\..\macro\flashc\sfma\src -I..\..\..\..\macro\gfxbus\lib -I..\..\..\..\macro\gfxbus\src -I..\..\..\..\macro\gfxbus\xbus\lib -I..\..\..\..\macro\gfxbus\xbus\src -I..\..\..\..\macro\gpio\lib -I..\..\..\..\macro\gpio\src -I..\..\..\..\macro\gpu\davehd\common\inc -I..\..\..\..\macro\gpu\davehd\common\inc\platform -I..\..\..\..\macro\gpu\davehd\common\inc\platform\d1mx -I..\..\..\..\macro\gpu\davehd\kernel\inc -I..\..\..\..\macro\gpu\davehd\kernel\platform\d1mx -I..\..\..\..\macro\gpu\davehd\kernel\platform\d1mx\bridge -I..\..\..\..\macro\gpu\davehd\kernel\platform\ree -I..\..\..\..\macro\gpu\davehd\kernel\src -I..\..\..\..\macro\gpu\davehd\user\inc -I..\..\..\..\macro\gpu\davehd\user\platform\d1mx\no_os -I..\..\..\..\macro\gpu\davehd\user\src -I..\..\..\..\macro\gpu\jcua\lib -I..\..\..\..\macro\gpu\jcua\src -I..\..\..\..\macro\i2c\riic\lib -I..\..\..\..\macro\i2c\riic\src -I..\..\..\..\macro\pwm\pcmp\lib -I..\..\..\..\macro\pwm\pcmp\src -I..\..\..\..\macro\tick\lib -I..\..\..\..\macro\tick\src -I..\..\..\..\macro\timer\ostm\lib -I..\..\..\..\macro\timer\ostm\src -I..\..\..\..\macro\timer\tauj\lib -I..\..\..\..\macro\timer\tauj\src -I..\..\..\..\macro\timer\taub\lib -I..\..\..\..\macro\timer\taub\src -I..\..\..\..\macro\vdce\lib -I..\..\..\..\macro\vdce\src -I..\..\..\..\macro\vo\ddb\lib -I..\..\..\..\macro\vo\ddb\src -I..\..\..\..\macro\vo\spea\lib -I..\..\..\..\macro\vo\spea\src -I..\..\..\..\macro\vo\vowe\lib -I..\..\..\..\macro\vo\vowe\src -I..\..\..\..\macro\wm\lib -I..\..\..\..\macro\wm\src -I..\..\..\..\middleware\gfxutils\lib -I..\..\..\..\middleware\gfxutils\src -I..\..\..\..\drome\export\davehd -I..\..\..\..\drome\import -I..\..\..\..\drome\import\davehd -I..\..\..\..\drome\import\dev -I..\..\..\..\drome\import\spea -I..\..\..\..\drome\import\vdce -I..\..\..\..\drome\import\xbus -I..\..\..\..\device\d1mx\macro_cfg\csisw -I..\..\..\..\device\d1mx\macro_cfg\davehd -I..\..\..\..\device\d1mx\macro_cfg\ddb -I..\..\..\..\device\d1mx\macro_cfg\drw2d -I..\..\..\..\device\d1mx\macro_cfg\gfxbus -I..\..\..\..\device\d1mx\macro_cfg\gpio -I..\..\..\..\device\d1mx\macro_cfg\hypb -I..\..\..\..\device\d1mx\macro_cfg\hypdb -I..\..\..\..\device\d1mx\macro_cfg\jcua -I..\..\..\..\device\d1mx\macro_cfg\nfmabare -I..\..\..\..\device\d1mx\macro_cfg\octa -I..\..\..\..\device\d1mx\macro_cfg\octacdb -I..\..\..\..\device\d1mx\macro_cfg\ostm -I..\..\..\..\device\d1mx\macro_cfg\pbg -I..\..\..\..\device\d1mx\macro_cfg\riic -I..\..\..\..\device\d1mx\macro_cfg\sfcdb -I..\..\..\..\device\d1mx\macro_cfg\sfma -I..\..\..\..\device\d1mx\macro_cfg\spea -I..\..\..\..\device\d1mx\macro_cfg\tauj -I..\..\..\..\device\d1mx\macro_cfg\tick -I..\..\..\..\device\d1mx\macro_cfg\vdce -I..\..\..\..\device\d1mx\macro_cfg\vowe -I..\..\..\..\device\d1mx\macro_cfg\wm -I..\..\..\..\device\d1mx\macro_cfg\xbus -I..\..\..\..\device\d1x_common\macro_cfg\adc -I..\..\..\..\device\d1x_common\macro_cfg\csisw -I..\..\..\..\device\d1x_common\macro_cfg\davehd -I..\..\..\..\device\d1x_common\macro_cfg\ddb -I..\..\..\..\device\d1x_common\macro_cfg\drw2d -I..\..\..\..\device\d1x_common\macro_cfg\gfxbus -I..\..\..\..\device\d1x_common\macro_cfg\gpio -I..\..\..\..\device\d1x_common\macro_cfg\hypb -I..\..\..\..\device\d1x_common\macro_cfg\hypdb -I..\..\..\..\device\d1x_common\macro_cfg\jcua -I..\..\..\..\device\d1x_common\macro_cfg\nfmabare -I..\..\..\..\device\d1x_common\macro_cfg\octa -I..\..\..\..\device\d1x_common\macro_cfg\octacdb -I..\..\..\..\device\d1x_common\macro_cfg\ostm -I..\..\..\..\device\d1x_common\macro_cfg\pbg -I..\..\..\..\device\d1x_common\macro_cfg\riic -I..\..\..\..\device\d1x_common\macro_cfg\sfcdb -I..\..\..\..\device\d1x_common\macro_cfg\sfma -I..\..\..\..\device\d1x_common\macro_cfg\spea -I..\..\..\..\device\d1x_common\macro_cfg\tauj -I..\..\..\..\device\d1x_common\macro_cfg\tick -I..\..\..\..\device\d1x_common\macro_cfg\vdce -I..\..\..\..\device\d1x_common\macro_cfg\vowe -I..\..\..\..\device\d1x_common\macro_cfg\wm -I..\..\..\..\device\d1x_common\macro_cfg\xbus -I..\..\..\..\app\gfx_apps\W501\src\TEXT_MY -IC:\ghs\comp_201715\lib\rh850_22 -cg_underscore -cpu=rh850g3m -no_v850_simd -nomacro -patch_dbo=E:\Mahindra Repo\M&M branches\4.4.W501\4.Software_Code\4.1.Software_Source_Code\vlib_v1.8\app\gfx_apps\W501\target\obj\drome.dbo -source=drome.c -o .\obj\gh_000031s1.o -list=.\obj\drome.lst C:\Users\minda\AppData\Local\Temp\gh_000031s1.si 
Original File: C:\Users\minda\AppData\Local\Temp\gh_000031s1.si
Source File: drome.c
Directory: E:\Mahindra Repo\M&M branches\4.4.W501\4.Software_Code\4.1.Software_Source_Code\vlib_v1.8\app\gfx_apps\W501\target
Host OS: Windows 7 Service Pack 1
EASE: Copyright (C) 1983-2016 Green Hills Software.  All Rights Reserved.
Release: MULTI v800-v2017.1.5-comp-P04
Custom String: TOOLS-28024 unreached assembly routines deleted by linker
Build Directory: [Directory] BTOWINBOX:c:/build_2017_1_bto/2017-10-04.2100-2017_1_bto/win32-comp-ecom
Revision: [VCInfo] http://toolsvc/branches/release-branch-2017-1-bto/src@603992 (built by build)
Revision Date: Thu Oct 05 10:11:26 2017

Release Date: Tue Oct 10 02:48:58 2017

                           1 --Driver Command: ccv850 -c -MD -I..\..\..\..\app\common\dhd
                           2 --		-I..\..\..\..\app\gfx_apps\W501\res
                           3 --		-I..\..\..\..\app\gfx_apps\W501\src\ADC
                           4 --		-I..\..\..\..\app\gfx_apps\W501\src\CAN
                           5 --		-I..\..\..\..\app\gfx_apps\W501\src\TFT
                           6 --		-I..\..\..\..\app\gfx_apps\W501\src\DIGITAL_GAUGE
                           7 --		-I..\..\..\..\app\gfx_apps\W501\src\EEPROM
                           8 --		-I..\..\..\..\app\gfx_apps\W501\src\INPUT
                           9 --		-I..\..\..\..\app\gfx_apps\W501\src\ISM
                          10 --		-I..\..\..\..\app\gfx_apps\W501\src\SOUND
                          11 --		-I..\..\..\..\app\gfx_apps\W501\src\TELLTALE
                          12 --		-I..\..\..\..\app\gfx_apps\W501\src\TIMER
                          13 --		-I..\..\..\..\app\gfx_apps\W501\src\UDS
                          14 --		-I..\..\..\..\app\gfx_apps\W501\src\
                          15 --		-I..\..\..\..\app\gfx_apps\W501\src\images
                          16 --		-I..\..\..\..\app\gfx_apps\W501\target\
                          17 --		-I..\..\..\..\app\gfx_apps\W501\target\config
                          18 --		-I..\..\..\..\bsp\board\config -I..\..\..\..\bsp\board\src\gfx
                          19 --		-I..\..\..\..\bsp\board\src\hmi -I..\..\..\..\bsp\board\src\stdio
                          20 --		-I..\..\..\..\bsp\board\d1mx_mango\config
                          21 --		-I..\..\..\..\bsp\board\d1mx_mango\src
                          22 --		-I..\..\..\..\bsp\board\d1mx_mango\src\gfx
                          23 --		-I..\..\..\..\bsp\board\d1mx_mango\src\hmi
                          24 --		-I..\..\..\..\bsp\board\d1mx_mango\src\stdio
                          25 --		-I..\..\..\..\bsp\gfx\lib -I..\..\..\..\bsp\gfx\src
                          26 --		-I..\..\..\..\bsp\hmi\lib -I..\..\..\..\bsp\hmi\src
                          27 --		-I..\..\..\..\bsp\lib -I..\..\..\..\bsp\stdio\lib
                          28 --		-I..\..\..\..\bsp\stdio\src -I..\..\..\..\cdi\lib
                          29 --		-I..\..\..\..\cdi\src -I..\..\..\..\compiler\rh850_ghs\inc
                          30 --		-I..\..\..\..\device\d1mx\lib -I..\..\..\..\device\d1mx\macro_cfg
                          31 --		-I..\..\..\..\device\d1mx\src\dev
                          32 --		-I..\..\..\..\device\d1mx\src\dhd
                          33 --		-I..\..\..\..\device\d1mx\src\jcua
                          34 --		-I..\..\..\..\device\d1mx\src\rh850_ghs
                          35 --		-I..\..\..\..\device\d1mx\src\vowe
                          36 --		-I..\..\..\..\device\d1x_common\macro_cfg
                          37 --		-I..\..\..\..\device\d1x_common\src\csisw
                          38 --		-I..\..\..\..\device\d1x_common\src\dev
                          39 --		-I..\..\..\..\device\d1x_common\src\gfxbus
                          40 --		-I..\..\..\..\device\d1x_common\src\gpio
                          41 --		-I..\..\..\..\device\d1x_common\src\ostm
                          42 --		-I..\..\..\..\device\d1x_common\src\pbg
                          43 --		-I..\..\..\..\device\d1x_common\src\riic
                          44 --		-I..\..\..\..\device\d1x_common\src\sfma
                          45 --		-I..\..\..\..\device\d1x_common\src\spea
                          46 --		-I..\..\..\..\device\d1x_common\src\tauj
                          47 --		-I..\..\..\..\device\d1x_common\src\tick
                          48 --		-I..\..\..\..\device\d1x_common\src\vdce
                          49 --		-I..\..\..\..\device\d1x_common\src\wm

                                                                      Page 2
                                                              C:\Users\minda\AppData\Local\Temp\gh_000031s1.si
                          50 --		-I..\..\..\..\device\d1x_common\src\dma
                          51 --		-I..\..\..\..\device\d1x_common\src\g3dma
                          52 --		-I..\..\..\..\device\d1x_common\src\xbus
                          53 --		-I..\..\..\..\device\d1x_common\src\pcmp
                          54 --		-I..\..\..\..\device\d1x_common\src\taub -I..\..\..\..\device\lib
                          55 --		-I..\..\..\..\macro\bus\pbg\lib -I..\..\..\..\macro\bus\pbg\src
                          56 --		-I..\..\..\..\macro\ad_converter\adc7010\lib
                          57 --		-I..\..\..\..\macro\ad_converter\adc7010\src
                          58 --		-I..\..\..\..\macro\sm\ism\src -I..\..\..\..\macro\sm\ism\lib
                          59 --		-I..\..\..\..\device\d1x_common\src\ism
                          60 --		-I..\..\..\..\macro\ecm\lib -I..\..\..\..\macro\ecm\src
                          61 --		-I..\..\..\..\device\d1x_common\src\ecm
                          62 --		-I..\..\..\..\macro\csi\csisw\lib
                          63 --		-I..\..\..\..\macro\csi\csisw\src -I..\..\..\..\macro\dma\dma\lib
                          64 --		-I..\..\..\..\macro\dma\dma\src -I..\..\..\..\macro\dma\g3dma\lib
                          65 --		-I..\..\..\..\macro\dma\g3dma\src -I..\..\..\..\macro\drw2d\lib
                          66 --		-I..\..\..\..\macro\drw2d\platform\davehd
                          67 --		-I..\..\..\..\macro\drw2d\platform\os\no_os
                          68 --		-I..\..\..\..\macro\drw2d\src
                          69 --		-I..\..\..\..\macro\flashc\sfcdb\lib
                          70 --		-I..\..\..\..\macro\flashc\sfcdb\src
                          71 --		-I..\..\..\..\macro\flashc\sfma\lib
                          72 --		-I..\..\..\..\macro\flashc\sfma\src
                          73 --		-I..\..\..\..\macro\gfxbus\lib -I..\..\..\..\macro\gfxbus\src
                          74 --		-I..\..\..\..\macro\gfxbus\xbus\lib
                          75 --		-I..\..\..\..\macro\gfxbus\xbus\src -I..\..\..\..\macro\gpio\lib
                          76 --		-I..\..\..\..\macro\gpio\src
                          77 --		-I..\..\..\..\macro\gpu\davehd\common\inc
                          78 --		-I..\..\..\..\macro\gpu\davehd\common\inc\platform
                          79 --		-I..\..\..\..\macro\gpu\davehd\common\inc\platform\d1mx
                          80 --		-I..\..\..\..\macro\gpu\davehd\kernel\inc
                          81 --		-I..\..\..\..\macro\gpu\davehd\kernel\platform\d1mx
                          82 --		-I..\..\..\..\macro\gpu\davehd\kernel\platform\d1mx\bridge
                          83 --		-I..\..\..\..\macro\gpu\davehd\kernel\platform\ree
                          84 --		-I..\..\..\..\macro\gpu\davehd\kernel\src
                          85 --		-I..\..\..\..\macro\gpu\davehd\user\inc
                          86 --		-I..\..\..\..\macro\gpu\davehd\user\platform\d1mx\no_os
                          87 --		-I..\..\..\..\macro\gpu\davehd\user\src
                          88 --		-I..\..\..\..\macro\gpu\jcua\lib -I..\..\..\..\macro\gpu\jcua\src
                          89 --		-I..\..\..\..\macro\i2c\riic\lib -I..\..\..\..\macro\i2c\riic\src
                          90 --		-I..\..\..\..\macro\pwm\pcmp\lib -I..\..\..\..\macro\pwm\pcmp\src
                          91 --		-I..\..\..\..\macro\tick\lib -I..\..\..\..\macro\tick\src
                          92 --		-I..\..\..\..\macro\timer\ostm\lib
                          93 --		-I..\..\..\..\macro\timer\ostm\src
                          94 --		-I..\..\..\..\macro\timer\tauj\lib
                          95 --		-I..\..\..\..\macro\timer\tauj\src
                          96 --		-I..\..\..\..\macro\timer\taub\lib
                          97 --		-I..\..\..\..\macro\timer\taub\src -I..\..\..\..\macro\vdce\lib
                          98 --		-I..\..\..\..\macro\vdce\src -I..\..\..\..\macro\vo\ddb\lib
                          99 --		-I..\..\..\..\macro\vo\ddb\src -I..\..\..\..\macro\vo\spea\lib
                         100 --		-I..\..\..\..\macro\vo\spea\src -I..\..\..\..\macro\vo\vowe\lib
                         101 --		-I..\..\..\..\macro\vo\vowe\src -I..\..\..\..\macro\wm\lib
                         102 --		-I..\..\..\..\macro\wm\src -I..\..\..\..\middleware\gfxutils\lib
                         103 --		-I..\..\..\..\middleware\gfxutils\src
                         104 --		-I..\..\..\..\drome\export\davehd -I..\..\..\..\drome\import
                         105 --		-I..\..\..\..\drome\import\davehd -I..\..\..\..\drome\import\dev
                         106 --		-I..\..\..\..\drome\import\spea -I..\..\..\..\drome\import\vdce
                         107 --		-I..\..\..\..\drome\import\xbus
                         108 --		-I..\..\..\..\device\d1mx\macro_cfg\csisw
                         109 --		-I..\..\..\..\device\d1mx\macro_cfg\davehd
                         110 --		-I..\..\..\..\device\d1mx\macro_cfg\ddb

                                                                      Page 3
                                                              C:\Users\minda\AppData\Local\Temp\gh_000031s1.si
                         111 --		-I..\..\..\..\device\d1mx\macro_cfg\drw2d
                         112 --		-I..\..\..\..\device\d1mx\macro_cfg\gfxbus
                         113 --		-I..\..\..\..\device\d1mx\macro_cfg\gpio
                         114 --		-I..\..\..\..\device\d1mx\macro_cfg\hypb
                         115 --		-I..\..\..\..\device\d1mx\macro_cfg\hypdb
                         116 --		-I..\..\..\..\device\d1mx\macro_cfg\jcua
                         117 --		-I..\..\..\..\device\d1mx\macro_cfg\nfmabare
                         118 --		-I..\..\..\..\device\d1mx\macro_cfg\octa
                         119 --		-I..\..\..\..\device\d1mx\macro_cfg\octacdb
                         120 --		-I..\..\..\..\device\d1mx\macro_cfg\ostm
                         121 --		-I..\..\..\..\device\d1mx\macro_cfg\pbg
                         122 --		-I..\..\..\..\device\d1mx\macro_cfg\riic
                         123 --		-I..\..\..\..\device\d1mx\macro_cfg\sfcdb
                         124 --		-I..\..\..\..\device\d1mx\macro_cfg\sfma
                         125 --		-I..\..\..\..\device\d1mx\macro_cfg\spea
                         126 --		-I..\..\..\..\device\d1mx\macro_cfg\tauj
                         127 --		-I..\..\..\..\device\d1mx\macro_cfg\tick
                         128 --		-I..\..\..\..\device\d1mx\macro_cfg\vdce
                         129 --		-I..\..\..\..\device\d1mx\macro_cfg\vowe
                         130 --		-I..\..\..\..\device\d1mx\macro_cfg\wm
                         131 --		-I..\..\..\..\device\d1mx\macro_cfg\xbus
                         132 --		-I..\..\..\..\device\d1x_common\macro_cfg\adc
                         133 --		-I..\..\..\..\device\d1x_common\macro_cfg\csisw
                         134 --		-I..\..\..\..\device\d1x_common\macro_cfg\davehd
                         135 --		-I..\..\..\..\device\d1x_common\macro_cfg\ddb
                         136 --		-I..\..\..\..\device\d1x_common\macro_cfg\drw2d
                         137 --		-I..\..\..\..\device\d1x_common\macro_cfg\gfxbus
                         138 --		-I..\..\..\..\device\d1x_common\macro_cfg\gpio
                         139 --		-I..\..\..\..\device\d1x_common\macro_cfg\hypb
                         140 --		-I..\..\..\..\device\d1x_common\macro_cfg\hypdb
                         141 --		-I..\..\..\..\device\d1x_common\macro_cfg\jcua
                         142 --		-I..\..\..\..\device\d1x_common\macro_cfg\nfmabare
                         143 --		-I..\..\..\..\device\d1x_common\macro_cfg\octa
                         144 --		-I..\..\..\..\device\d1x_common\macro_cfg\octacdb
                         145 --		-I..\..\..\..\device\d1x_common\macro_cfg\ostm
                         146 --		-I..\..\..\..\device\d1x_common\macro_cfg\pbg
                         147 --		-I..\..\..\..\device\d1x_common\macro_cfg\riic
                         148 --		-I..\..\..\..\device\d1x_common\macro_cfg\sfcdb
                         149 --		-I..\..\..\..\device\d1x_common\macro_cfg\sfma
                         150 --		-I..\..\..\..\device\d1x_common\macro_cfg\spea
                         151 --		-I..\..\..\..\device\d1x_common\macro_cfg\tauj
                         152 --		-I..\..\..\..\device\d1x_common\macro_cfg\tick
                         153 --		-I..\..\..\..\device\d1x_common\macro_cfg\vdce
                         154 --		-I..\..\..\..\device\d1x_common\macro_cfg\vowe
                         155 --		-I..\..\..\..\device\d1x_common\macro_cfg\wm
                         156 --		-I..\..\..\..\device\d1x_common\macro_cfg\xbus
                         157 --		-I..\..\..\..\device\d1x_common\src\taub
                         158 --		-I..\..\..\..\app\gfx_apps\W501\src\TEXT_MY --no_commons
                         159 --		--no_implicit_include --prototype_errors -DBSP_INIT_QOS_SDRAM_ORG
                         160 --		-DDEVICE_TYPE_D1M1X -DBSP_INIT_SFMA_ORG -DRENESAS_D1X
                         161 --		-DR_DRW2D_OS_NO_OS -DR_DRW2D_SYS_DHD -DUSED_CPU=RH850G3M
                         162 --		-DUSE_BSP_GFX -DUSE_BSP_HMI_ORG -DUSE_BSP_HMI -DUSE_BSP_STDIO
                         163 --		-DUSE_CDI -DUSE_CSISW -DUSE_DAVEHD -DUSE_DDB -DUSE_DMA
                         164 --		-DUSE_DRW2D -DUSE_GFXBUS -DUSE_G3DMA -DUSE_GFXUTILS -DUSE_GPIO
                         165 --		-DUSE_JCUA -DUSE_ISM -DUSE_OSTM -DUSE_PCMP -DUSE_PBG -DUSE_RIIC
                         166 --		-DUSE_SFCDB -DUSE_SFMA_ORG -DUSE_SPEA -DUSE_TAUB -DUSE_TAUJ
                         167 --		-DUSE_TICK -DUSE_VDCE -DUSE_VOWE -DUSE_WM -DUSE_XBUS -DUSE_ECM -G
                         168 --		-MD -Odebug -Zuse1bit -allocate_ep -cpu=rh850g3m -large_sda -list
                         169 --		-no_callt -notda -passsource -preprocess_assembly_files
                         170 --		-registermode=22 -reserve_r2 --diag_warning 1 -object_dir=.\obj
                         171 --		-DBSP_INIT_QOS_VRAM -DUSE_RSCAN -DUSE_ADCA -DUSE_ADC7010

                                                                      Page 4
                                                              C:\Users\minda\AppData\Local\Temp\gh_000031s1.si
                         172 --		-filetype.c ..\..\..\gfx_apps\W501\src\TFT\drome.c -o
                         173 --		.\obj\drome.o
                         174 --Source File:   ..\..\..\gfx_apps\W501\src\TFT\drome.c
                         175 --Directory:     E:\Mahindra Repo\M&M
                         176 --		branches\4.4.W501\4.Software_Code\4.1.Software_Source_Code\vlib_v1.8\app\gfx_apps\W501\target
                         177 --Compile Date:  Sat Feb 09 19:56:23 2019
                         178 --Host OS:       Win32
                         179 --Version:       C-RH850 2017.1.5 RELEASE VERSION
                         180 --Release:       Compiler v2017.1.5
                         181 --Revision Date: Tue Apr 11 09:29:40 2017
                         182 --Release Date:  Tue Apr 11 11:12:26 2017
                         183 -- ecom  -g -w
                         184 
                         185 --1: /*
                         186 --2: ***************************************************************************************
                         187 --3: ***************************************************************************************
                         188 --4: ***                                                                                 ***
                         189 --5: ***                                  drome.c                                        ***
                         190 --6: ***                                                                                 ***
                         191 --7: ***                               Project Drome MCU                                 ***
                         192 --8: ***                                                                                 ***
                         193 --9: ***          Copyright (C) Stoneridge Electronics AB 1990 - $Date:: 2018#$          ***
                         194 --10: ***                                                                                 ***
                         195 --11: ***************************************************************************************
                         196 --12: **************************************************************************************/
                         197 --13: /** \file
                         198 --14:     \ingroup DROMEIF
                         199 --16:     \Subject    Interface between dromelib and the application.
                         200 --18:     \Reference  1213/009-35133 - Drome Software, Users Manual.
                         201 --20:     \Abstract 
                         202 --21:       This module is a facade encapsulating the interface between dromelib and the
                         203 --22:       application. The main purposes are to simplify access to Drome from the
                         204 --23:       application and to abstract the Drome library internal implementation so that
                         205 --24:       changes in the dromelib implementation does not affect the application. \n
                         206 --25:       \n
                         207 --26:       See also the application example: \ref app_example
                         208 --29:     \Version history record: 
                         209 --31:     2018-09-12	YUWE		Initial draft for Drome3G
                         210 --33: \{
                         211 --34: ***************************************************************************************
                         212 --35: */
                         213 --36: #define FILE_ID drfileid_DROME_C
                         214 --38: #ifdef DROME_DBG_LEVEL
                         215 --39:    #define DBG_LEVEL                DROME_DBG_LEVEL
                         216 --40: #else
                         217 --41:    #define DBG_LEVEL                drdbg_LEVEL_ERROR
                         218 --42: #endif
                         219 --44: /*
                         220 --45: **=====================================================================================
                         221 --46: ** Imported definitions
                         222 --47: **=====================================================================================
                         223 --48: */
                         224 --50: #include "drdbg.h"
                         225 --51: #include "drapp.h"
                         226 --52: #include "drappif.h"
                         227 --53: #include "drome.h"
                         228 --54: #include "dr.h"
                         229 --55: #include "drglif.h"
                         230 --56: #include "drwidbif.h"
                         231 --57: #include "drdbif.h"
                         232 --58: #include "drgodbif.h"

                                                                      Page 5
                                                              C:\Users\minda\AppData\Local\Temp\gh_000031s1.si
                         233 --59: #include "drwdif.h"
                         234 --60: #include "drmathif.h"
                         235 --61: #include "drhost.h"
                         236 --62: #include "dr_profiling.h"
                         237 --63: #include "drframerate.h"
                         238 --64: #include "dr_static_assert.h"
                         239 --66: #ifdef drome_CONF_USE_SM_AND_EVENTS
                         240 --67:    #include "drsmevh.h"
                         241 --68:    #include "drsmif.h"
                         242 --69: #endif
                         243 --71: /*
                         244 --72: **=====================================================================================
                         245 --73: ** Compile time assertions
                         246 --74: **=====================================================================================
                         247 --75: */
                         248 --77: /* Check sizes of types -- project wide checks not specific to drome.c */
                         249 --78: DR_STATIC_ASSERT( sizeof(U8) == 1U, U8_not_8_bits );
                         250 --79: DR_STATIC_ASSERT( sizeof(U16) == 2U, U16_not_16_bits );
                         251 --80: DR_STATIC_ASSERT( sizeof(U32) == 4U, U32_not_32_bits );
                         252 --81: DR_STATIC_ASSERT( sizeof(S8) == 1U, S8_not_8_bits );
                         253 --82: DR_STATIC_ASSERT( sizeof(S16) == 2U, S16_not_16_bits );
                         254 --83: DR_STATIC_ASSERT( sizeof(S32) == 4U, S32_not_32_bits );
                         255 --84: DR_STATIC_ASSERT( sizeof(S64) == 8U, S64_not_64_bits );
                         256 --86: /*
                         257 --87: **=====================================================================================
                         258 --88: ** Private defines
                         259 --89: **=====================================================================================
                         260 --90: */
                         261 --92: /// Number of optional callback functions
                         262 --93: #define NO_OPTIONAL_CALLBACKS    20
                         263 --96: /*
                         264 --97: **=====================================================================================
                         265 --98: ** Private type definitions
                         266 --99: **=====================================================================================
                         267 --100: */
                         268 --102: /** Drome shut-down states */
                         269 --103: typedef enum
                         270 --104: {
                         271 --105:    SDS_START,
                         272 --106:    SDS_PRE_SYNC,
                         273 --107:    SDS_DEINIT_GRAPHICS,
                         274 --108:    SDS_POST_SYNC,
                         275 --109:    SDS_DONE,
                         276 --110:    SDS_ERROR
                         277 --111: } ShutDownState;
                         278 --113: /*
                         279 --114: **=====================================================================================
                         280 --115: ** Private data declarations
                         281 --116: **=====================================================================================
                         282 --117: */
                         283 --119: /* Version (release) of dromelib */
                         284 --120: /* NOTE: Don't change! Updated automatically by release script! */
                         285 --121: Private const U8 priv_dromelib_ver[] = "DEVELOP";
                         286 --123: Private ShutDownState priv_shutdown_state;   // Drome shut-down sequence state counter.
                         287 --124: Private Boolean priv_fatal_error_detected;   // Set when a fatal error is reported from Drome.
                         288 --126: /*
                         289 --127: **=====================================================================================
                         290 --128: ** Private function prototypes and macros
                         291 --129: **=====================================================================================
                         292 --130: */
                         293 --132: Private void initDrappCallbacks(drome_CallbackFunctPtrs* callbacks_ptr);

                                                                      Page 6
                                                              C:\Users\minda\AppData\Local\Temp\gh_000031s1.si
                         294 --134: /*
                         295 --135: **=====================================================================================
                         296 --136: ** Public function definitions
                         297 --137: **=====================================================================================
                         298 --138: */
                         299 --140: /**
                         300 --141: *************************************************************************************
                         301 --142: **
                         302 --143: **   This is the Entry point for initialization of drome. \n
                         303 --144: **   An address to the beginning of the Drome MCU database shall be supplied. \n
                         304 --145: **
                         305 --146: **   Important: \n
                         306 --147: **   The caller is responsible for adjusting this address for any application
                         307 --148: **   specific header used so that the supplied address points directly to the
                         308 --149: **   start of the Drome header.
                         309 --150: **
                         310 --151: **************************************************************************************
                         311 --152: **/
                         312 --153: Public void drome_init(
                         313 	.assert 0x0 + (_priv_fatal_error_detected - .L70) +0 == 4
                         314 	.assert 0x0 + (_priv_shutdown_state - .L70) +0 == 0
                         315 	.text
                         316 ..bof.E.3A.5CMahindra.20Repo.5CM.26M.20branches.5C4.2E4.2EW501.5C4.2ESoftware_Code.5C4.2E1.2ESoftware_Source_Code.5Cvlib_v1.2E8.5Capp.5Cgfx_apps.5CW501.5Ctarget.5Cobj.5Cdrome...45.3A.5CMahindra.20Repo.5CM.26M.20branches.5C4.2E4.2EW501.5C4.2ESoftware_Code.5C4.2E1.2ESoftware_Source_Code.5Cvlib_v1.2E8.5Capp.5Cgfx_apps.5CW501.5Ctarget..5C5EE30F..0::
                         317 	.align	2
                         318 	.align	2
                         319 ..gh.f.a.2.e.0:
                         320 	.type	..gh.f.a.2.e.0,@object
                         321 	.size	..gh.f.a.2.e.0,0
                         322 	.global	_drome_init
                         323 _drome_init:
00000000 8007e130        324 	prepare	{r26,r27,r28,r29,r31},0
00000004 3d0600000000*   325 	mov	.L70,r29
0000000a 06d0            326 	mov	r6,r26
0000000c 07d8            327 	mov	r7,r27
0000000e 3de60400        328 	movea	4,r29,r28
                         329 --	    .bf
                         330 .LDW01:
                         331 --154:    void * db_address,                        /**<[in] address of drome database */
                         332 --155:    void * imgdb_address,                     /**<[in] address of graphics database */
                         333 --156:    drome_CallbackFunctPtrs * callbacks_ptr,  /**<[in] pointers to drapp functions */
                         334 --157:    U32 lang_pack_address                     /**<[in] address of drome language pack, hence external text database */
                         335 --158: )
                         336 --159: {
                         337 --160:    priv_shutdown_state = SDS_START;
                         338 --line160
                         339 ..lin.ffc4db14..5fecf2e.0_1::
                         340 .LDWlin1:
00000012 7d070100        341 	st.w	zero,0[r29]
                         342 --161:    priv_fatal_error_detected = FALSE;
00000016 7d070500        343 	st.w	zero,4[r29]
                         344 --163:    initDrappCallbacks(callbacks_ptr);
0000001a 0830            345 	mov	r8,r6
                         346 	jarl	_initDrappCallbacks,lp
                         346 <EXPANSION BEGIN>
                         346 jarl22 _initDrappCallbacks , lp 
0000001c 80ff9a03*       346 <EXPANSION END>
                         347 --165:    /* If any of the necesarry callbacks are invalid a fatal error is reported */
                         348 --166:    if(priv_fatal_error_detected)
                         349 --line166
                         350 ..lin.ffc4db14..5fecf2e.0_2::
                         351 .LDWlin2:

                                                                      Page 7
                                                              C:\Users\minda\AppData\Local\Temp\gh_000031s1.si
00000020 3d0f0500        352 	ld.w	4[r29],r1
00000024 e009            353 	cmp	zero,r1
00000026 8a15*           354 	bne	.L2
                         355 --167:    {
                         356 --168:       return;
                         357 --169:    }
                         358 --171:    drdbif_init(db_address, imgdb_address);
                         359 --line171
                         360 ..lin.ffc4db14..5fecf2e.0_3::
                         361 .LDWlin3:
00000028 1a30            362 	mov	r26,r6
0000002a 1b38            363 	mov	r27,r7
                         364 	jarl	_drdbif_init,lp
                         364 <EXPANSION BEGIN>
                         364 jarl22 _drdbif_init , lp 
0000002c 80ff0000*       364 <EXPANSION END>
                         365 --172:    drglif_init(imgdb_address);
                         366 --line172
                         367 ..lin.ffc4db14..5fecf2e.0_4::
                         368 .LDWlin4:
00000030 1b30            369 	mov	r27,r6
                         370 	jarl	_drglif_init,lp
                         370 <EXPANSION BEGIN>
                         370 jarl22 _drglif_init , lp 
00000032 80ff0000*       370 <EXPANSION END>
                         371 --173:    #ifdef drome_CONF_USE_SM_AND_EVENTS
                         372 --174:    drsmevh_init();
                         373 --line174
                         374 ..lin.ffc4db14..5fecf2e.0_5::
                         375 .LDWlin5:
                         376 	jarl	_drsmevh_init,lp
                         376 <EXPANSION BEGIN>
                         376 jarl22 _drsmevh_init , lp 
00000036 80ff0000*       376 <EXPANSION END>
                         377 --175:    #endif
                         378 --176:    drwdif_init();
                         379 --line176
                         380 ..lin.ffc4db14..5fecf2e.0_6::
                         381 .LDWlin6:
                         382 	jarl	_drwdif_init,lp
                         382 <EXPANSION BEGIN>
                         382 jarl22 _drwdif_init , lp 
0000003a 80ff0000*       382 <EXPANSION END>
                         383 --177:    #ifdef drome_CONF_USE_SM_AND_EVENTS
                         384 --178:    drsmif_init();  // Must be called *after* drwdif_init() and drdbif_init()!
                         385 --line178
                         386 ..lin.ffc4db14..5fecf2e.0_7::
                         387 .LDWlin7:
                         388 	jarl	_drsmif_init,lp
                         388 <EXPANSION BEGIN>
                         388 jarl22 _drsmif_init , lp 
0000003e 80ff0000*       388 <EXPANSION END>
                         389 --179:    #endif
                         390 --180:    #ifdef drome_CONF_USE_LANGUAGE_PACKS
                         391 --181:    drwidbif_initLanguagePack((U8*)lang_pack_address);
                         392 --182:    #else
                         393 --183:    NOT_USED(lang_pack_address);
                         394 --184:    #endif
                         395 --186:    
                         396 --187: 	#ifdef DR_TIME_PROFILING
                         397 --188:    dr_profiling_reset();

                                                                      Page 8
                                                              C:\Users\minda\AppData\Local\Temp\gh_000031s1.si
                         398 --line188
                         399 ..lin.ffc4db14..5fecf2e.0_8::
                         400 .LDWlin8:
                         401 	jarl	_dr_profiling_reset,lp
                         401 <EXPANSION BEGIN>
                         401 jarl22 _dr_profiling_reset , lp 
00000042 80ff0000*       401 <EXPANSION END>
                         402 --189: 	#endif
                         403 --190: }
                         404 .L2:
                         405 --	    .ef
                         406 .LDW11:
                         407 --line190
                         408 ..lin.ffc4db14..5fecf2e.0_9::
                         409 .LDWlin9:
00000046 4006ff30        410 	dispose	0,{r26,r27,r28,r29,r31},[lp]
                         411 ..lin.ffc4db14..5fecf2e.0_10::
                         412 .LDWlin10:
                         413 	.type	_drome_init,@function
                         414 	.size	_drome_init,.-_drome_init
                         415 	.align	2
                         416 .LDW21:
                         417 
                         418 --_db_address	r26	param
                         419 --_imgdb_address	r27	param
                         420 --_callbacks_ptr	r8	param
                         421 --_lang_pack_address	r9	param
                         422 
                         423 	.section ".bss","awb"
                         424 	.align	4
                         425 .L70:
                         426 	.type	.L70,@object
                         427 	.size	.L70,0
                         428 	.global	_priv_shutdown_state..E.3A.5CMahindra.20Repo.5CM.26M.20branches.5C4.2E4.2EW501.5C4.2ESoftware_Code.5C4.2E1.2ESoftware_Source_Code.5Cvlib_v1.2E8.5Capp.5Cgfx_apps.5CW501.5Ctarget.5Cobj.5Cdrome.
                         429 _priv_shutdown_state..E.3A.5CMahindra.20Repo.5CM.26M.20branches.5C4.2E4.2EW501.5C4.2ESoftware_Code.5C4.2E1.2ESoftware_Source_Code.5Cvlib_v1.2E8.5Capp.5Cgfx_apps.5CW501.5Ctarget.5Cobj.5Cdrome.:
00000000 00000000        430 _priv_shutdown_state:	.space	4
                         431 	.type	_priv_shutdown_state..E.3A.5CMahindra.20Repo.5CM.26M.20branches.5C4.2E4.2EW501.5C4.2ESoftware_Code.5C4.2E1.2ESoftware_Source_Code.5Cvlib_v1.2E8.5Capp.5Cgfx_apps.5CW501.5Ctarget.5Cobj.5Cdrome.,@object
                         432 	.size	_priv_shutdown_state..E.3A.5CMahindra.20Repo.5CM.26M.20branches.5C4.2E4.2EW501.5C4.2ESoftware_Code.5C4.2E1.2ESoftware_Source_Code.5Cvlib_v1.2E8.5Capp.5Cgfx_apps.5CW501.5Ctarget.5Cobj.5Cdrome.,4
                         433 	.type	_priv_shutdown_state,@object
                         434 	.size	_priv_shutdown_state,4
                         435 	.global	_priv_fatal_error_detected..E.3A.5CMahindra.20Repo.5CM.26M.20branches.5C4.2E4.2EW501.5C4.2ESoftware_Code.5C4.2E1.2ESoftware_Source_Code.5Cvlib_v1.2E8.5Capp.5Cgfx_apps.5CW501.5Ctarget.5Cobj.5Cdrome.
                         436 _priv_fatal_error_detected..E.3A.5CMahindra.20Repo.5CM.26M.20branches.5C4.2E4.2EW501.5C4.2ESoftware_Code.5C4.2E1.2ESoftware_Source_Code.5Cvlib_v1.2E8.5Capp.5Cgfx_apps.5CW501.5Ctarget.5Cobj.5Cdrome.:
00000004 00000000        437 _priv_fatal_error_detected:	.space	4
                         438 	.type	_priv_fatal_error_detected..E.3A.5CMahindra.20Repo.5CM.26M.20branches.5C4.2E4.2EW501.5C4.2ESoftware_Code.5C4.2E1.2ESoftware_Source_Code.5Cvlib_v1.2E8.5Capp.5Cgfx_apps.5CW501.5Ctarget.5Cobj.5Cdrome.,@object
                         439 	.size	_priv_fatal_error_detected..E.3A.5CMahindra.20Repo.5CM.26M.20branches.5C4.2E4.2EW501.5C4.2ESoftware_Code.5C4.2E1.2ESoftware_Source_Code.5Cvlib_v1.2E8.5Capp.5Cgfx_apps.5CW501.5Ctarget.5Cobj.5Cdrome.,4
                         440 	.type	_priv_fatal_error_detected,@object
                         441 	.size	_priv_fatal_error_detected,4
                         442 	.data
                         443 	.text
                         444 
                         445 
                         446 --192: /**
                         447 --193: *************************************************************************************
                         448 --194: **
                         449 --195: **   Shut down the Drome subsystem. \n
                         450 --196: **
                         451 --197: **   This function shall be used by the application prior to turning the power
                         452 --198: **   off. The purpose is to put Drome in a safe state and make sure no damage
                         453 --199: **   comes to the hardware, e.g. by shutting down the power to the TFT display in
                         454 --200: **   an orderly fashion. \n
                         455 --201: **

                                                                      Page 9
                                                              C:\Users\minda\AppData\Local\Temp\gh_000031s1.si
                         456 --202: **   When it's time to shut down the system, this function shall be called
                         457 --203: **   repeatedly until it returns TRUE. During this time, no other "drome_" requests
                         458 --204: **   shall be made. Once drome_shutDown() has been called, Drome and related
                         459 --205: **   hardware drivers must be reinitialized to make Drome operate again.
                         460 --206: **
                         461 --207: **    \return  TRUE  - Shut-down complete. \n
                         462 --208: **             FALSE - Shut-down in progress, call again later.
                         463 --209: **
                         464 --210: **************************************************************************************
                         465 --211: **/
                         466 --212: Public Boolean drome_shutDown( void )
                         467 	.assert 0x0 + (_priv_shutdown_state - _priv_shutdown_state) +0 == 0
                         468 	.assert 0x0 + (_priv_fatal_error_detected - _priv_shutdown_state) +0 == 4
                         469 	.align	2
                         470 	.align	2
                         471 	.align	2
                         472 ..gh.f.a.2.e.1:
                         473 	.type	..gh.f.a.2.e.1,@object
                         474 	.size	..gh.f.a.2.e.1,0
                         475 	.global	_drome_shutDown
                         476 _drome_shutDown:
0000004a 8007e170        477 	prepare	{r25,r26,r27,r28,r29,r31},0
0000004e 3d0600000000*   478 	mov	_priv_shutdown_state,r29
00000054 1dd0            479 	mov	r29,r26
00000056 3dce0400        480 	movea	4,r29,r25
                         481 --	    .bf
                         482 .LDW31:
                         483 --213: {
                         484 --214:    drome_CyclicStat cyc_stat;
                         485 --215:    Boolean run = TRUE;
                         486 --line215
                         487 ..lin.ffc4db14..2e8b3b6.0_11::
                         488 .LDWlin11:
0000005a 01e2            489 	mov	1,r28
                         490 --216:    Boolean shutdown_complete = FALSE;
0000005c 00da            491 	mov	0,r27
                         492 --218: #if (drome_GLIB_VARIANT == drome_GLIB_DHD) || (drome_GLIB_VARIANT == drome_GLIB_OPENGL)
                         493 --219:    dr_Status status;
                         494 --220: #endif
                         495 --222:    while (run)
0000005e 955d*           496 	br	.L114
                         497 .L116:
                         498 --223:    {
                         499 --224:       switch (priv_shutdown_state)
                         500 --line224
                         501 ..lin.ffc4db14..2e8b3b6.0_12::
                         502 .LDWlin12:
00000060 3d0f0100        503 	ld.w	0[r29],r1
00000064 610a            504 	cmp	1,r1
00000066 e105*           505 	bl	.L118
00000068 b20d*           506 	be	.L119
0000006a 630a            507 	cmp	3,r1
0000006c e125*           508 	bl	.L120
0000006e a23d*           509 	be	.L121
00000070 c54d*           510 	br	.L122
                         511 .L118:
                         512 --225:       {
                         513 --226:          case SDS_START:
                         514 --227:             drwdif_shutDown();
                         515 --line227
                         516 ..lin.ffc4db14..2e8b3b6.0_13::

                                                                      Page 10
                                                              C:\Users\minda\AppData\Local\Temp\gh_000031s1.si
                         517 .LDWlin13:
                         518 	jarl	_drwdif_shutDown,lp
                         518 <EXPANSION BEGIN>
                         518 jarl22 _drwdif_shutDown , lp 
00000072 80ff0000*       518 <EXPANSION END>
                         519 --228:             priv_shutdown_state = SDS_PRE_SYNC;
                         520 --line228
                         521 ..lin.ffc4db14..2e8b3b6.0_14::
                         522 .LDWlin14:
00000076 010a            523 	mov	1,r1
00000078 7d0f0100        524 	st.w	r1,0[r29]
                         525 --229:             drdbg_PRINT(drdbg_LEVEL_PROGRESS, "\r\nSD:");
                         526 --230:             break;
                         527 --231:          case SDS_PRE_SYNC:
0000007c a54d*           528 	br	.L114
                         529 .L119:
                         530 --232: #if (drome_GLIB_VARIANT == drome_GLIB_DHD) || (drome_GLIB_VARIANT == drome_GLIB_OPENGL)
                         531 --233:             cyc_stat = drome_doCyclic();
                         532 --line233
                         533 ..lin.ffc4db14..2e8b3b6.0_15::
                         534 .LDWlin15:
                         535 	jarl	_drome_doCyclic,lp
                         535 <EXPANSION BEGIN>
                         535 jarl22 _drome_doCyclic , lp 
0000007e 80ffaa00*       535 <EXPANSION END>
00000082 0a08            536 	mov	r10,r1
                         537 --234:             if ((cyc_stat == drome_CYCLIC_FINISHED) || (cyc_stat == drome_CYCLIC_IDLE))
                         538 --line234
                         539 ..lin.ffc4db14..2e8b3b6.0_16::
                         540 .LDWlin16:
00000084 610a            541 	cmp	1,r1
00000086 b205*           542 	be	.L126
00000088 e009            543 	cmp	zero,r1
0000008a da05*           544 	bne	.L125
                         545 .L126:
                         546 --235:             {
                         547 --236:                priv_shutdown_state = SDS_DEINIT_GRAPHICS;
                         548 --line236
                         549 ..lin.ffc4db14..2e8b3b6.0_17::
                         550 .LDWlin17:
0000008c 020a            551 	mov	2,r1
0000008e 7d0f0100        552 	st.w	r1,0[r29]
                         553 --237:                drdbg_PRINT(drdbg_LEVEL_PROGRESS, "F");
00000092 f53d*           554 	br	.L114
                         555 .L125:
                         556 --238:             }
                         557 --239:             else if ((cyc_stat == drome_CYCLIC_ERROR) && (priv_fatal_error_detected))
                         558 --line239
                         559 ..lin.ffc4db14..2e8b3b6.0_18::
                         560 .LDWlin18:
00000094 630a            561 	cmp	3,r1
00000096 9a0d*           562 	bne	.L129
00000098 3d770500        563 	ld.w	4[r29],r14
0000009c e071            564 	cmp	zero,r14
0000009e d205*           565 	be	.L129
                         566 --240:             {
                         567 --241:                priv_shutdown_state = SDS_DEINIT_GRAPHICS;
                         568 --line241
                         569 ..lin.ffc4db14..2e8b3b6.0_19::
                         570 .LDWlin19:
000000a0 020a            571 	mov	2,r1

                                                                      Page 11
                                                              C:\Users\minda\AppData\Local\Temp\gh_000031s1.si
000000a2 7d0f0100        572 	st.w	r1,0[r29]
                         573 --242:                drdbg_PRINT(drdbg_LEVEL_PROGRESS, "E");
000000a6 d535*           574 	br	.L114
                         575 .L129:
                         576 --243:             }
                         577 --244:             else if (cyc_stat == drome_CYCLIC_ERROR)
                         578 --line244
                         579 ..lin.ffc4db14..2e8b3b6.0_20::
                         580 .LDWlin20:
000000a8 630a            581 	cmp	3,r1
000000aa da05*           582 	bne	.L133
                         583 --245:             {
                         584 --246:                priv_shutdown_state = SDS_ERROR;
                         585 --line246
                         586 ..lin.ffc4db14..2e8b3b6.0_21::
                         587 .LDWlin21:
000000ac 050a            588 	mov	5,r1
000000ae 7d0f0100        589 	st.w	r1,0[r29]
                         590 --247:                drdbg_PRINT(drdbg_LEVEL_PROGRESS, "E");
000000b2 f52d*           591 	br	.L114
                         592 .L133:
                         593 --248:             }
                         594 --249:             else /* cyc_stat == drome_CYCLIC_NOT_FINISHED */
                         595 --250:             {
                         596 --251:                run = FALSE;
                         597 --line251
                         598 ..lin.ffc4db14..2e8b3b6.0_22::
                         599 .LDWlin22:
000000b4 00e2            600 	mov	0,r28
                         601 --252:                drdbg_PRINT(drdbg_LEVEL_PROGRESS, "N");
000000b6 d52d*           602 	br	.L114
                         603 .L120:
                         604 --253:             }
                         605 --254:             break;
                         606 --255: #endif
                         607 --256:          case SDS_DEINIT_GRAPHICS:
                         608 --257: #if (drome_GLIB_VARIANT == drome_GLIB_DHD) || (drome_GLIB_VARIANT == drome_GLIB_OPENGL)
                         609 --258:             status = drglif_shutDown(priv_fatal_error_detected);
                         610 --line258
                         611 ..lin.ffc4db14..2e8b3b6.0_23::
                         612 .LDWlin23:
000000b8 3d370500        613 	ld.w	4[r29],r6
                         614 	jarl	_drglif_shutDown,lp
                         614 <EXPANSION BEGIN>
                         614 jarl22 _drglif_shutDown , lp 
000000bc 80ff0000*       614 <EXPANSION END>
000000c0 0a08            615 	mov	r10,r1
                         616 --259:             if( status == dr_ST_OK )
                         617 --line259
                         618 ..lin.ffc4db14..2e8b3b6.0_24::
                         619 .LDWlin24:
000000c2 e009            620 	cmp	zero,r1
000000c4 da05*           621 	bne	.L136
                         622 --260:             {
                         623 --261:                priv_shutdown_state = SDS_POST_SYNC;
                         624 --line261
                         625 ..lin.ffc4db14..2e8b3b6.0_25::
                         626 .LDWlin25:
000000c6 030a            627 	mov	3,r1
000000c8 7d0f0100        628 	st.w	r1,0[r29]
                         629 --262:                drdbg_PRINT(drdbg_LEVEL_PROGRESS, "P");

                                                                      Page 12
                                                              C:\Users\minda\AppData\Local\Temp\gh_000031s1.si
000000cc a525*           630 	br	.L114
                         631 .L136:
                         632 --263:             }
                         633 --264:             else if(status == dr_ST_BUSY)
                         634 --line264
                         635 ..lin.ffc4db14..2e8b3b6.0_26::
                         636 .LDWlin26:
000000ce 610a            637 	cmp	1,r1
000000d0 da05*           638 	bne	.L139
                         639 --265:             {
                         640 --266:                priv_shutdown_state = SDS_DEINIT_GRAPHICS;
                         641 --line266
                         642 ..lin.ffc4db14..2e8b3b6.0_27::
                         643 .LDWlin27:
000000d2 020a            644 	mov	2,r1
000000d4 7d0f0100        645 	st.w	r1,0[r29]
                         646 --267:                drdbg_PRINT(drdbg_LEVEL_PROGRESS, "N");
000000d8 c51d*           647 	br	.L114
                         648 .L139:
                         649 --268:             }
                         650 --269:             else
                         651 --270:             {
                         652 --271:                priv_shutdown_state = SDS_ERROR;
                         653 --line271
                         654 ..lin.ffc4db14..2e8b3b6.0_28::
                         655 .LDWlin28:
000000da 050a            656 	mov	5,r1
000000dc 7d0f0100        657 	st.w	r1,0[r29]
                         658 --272:                drdbg_PRINT(drdbg_LEVEL_PROGRESS, "E");
000000e0 851d*           659 	br	.L114
                         660 .L121:
                         661 --273:             }
                         662 --274:             break;
                         663 --275: #endif
                         664 --276:          case SDS_POST_SYNC:
                         665 --277:             cyc_stat = drome_doCyclic();
                         666 --line277
                         667 ..lin.ffc4db14..2e8b3b6.0_29::
                         668 .LDWlin29:
                         669 	jarl	_drome_doCyclic,lp
                         669 <EXPANSION BEGIN>
                         669 jarl22 _drome_doCyclic , lp 
000000e2 80ff4600*       669 <EXPANSION END>
000000e6 0a08            670 	mov	r10,r1
                         671 --278:             if ((cyc_stat == drome_CYCLIC_IDLE) ||
                         672 --line278
                         673 ..lin.ffc4db14..2e8b3b6.0_30::
                         674 .LDWlin30:
000000e8 e009            675 	cmp	zero,r1
000000ea b205*           676 	be	.L143
000000ec 610a            677 	cmp	1,r1
000000ee da05*           678 	bne	.L142
                         679 .L143:
                         680 --279:                (cyc_stat == drome_CYCLIC_FINISHED))
                         681 --280:             {
                         682 --281:                priv_shutdown_state = SDS_DONE;
                         683 --line281
                         684 ..lin.ffc4db14..2e8b3b6.0_31::
                         685 .LDWlin31:
000000f0 040a            686 	mov	4,r1
000000f2 7d0f0100        687 	st.w	r1,0[r29]

                                                                      Page 13
                                                              C:\Users\minda\AppData\Local\Temp\gh_000031s1.si
                         688 --282:                drdbg_PRINT(drdbg_LEVEL_PROGRESS, "D");
000000f6 d50d*           689 	br	.L114
                         690 .L142:
                         691 --283:             }
                         692 --284:             else if (cyc_stat == drome_CYCLIC_ERROR)
                         693 --line284
                         694 ..lin.ffc4db14..2e8b3b6.0_32::
                         695 .LDWlin32:
000000f8 630a            696 	cmp	3,r1
000000fa da05*           697 	bne	.L146
                         698 --285:             {
                         699 --286:                priv_shutdown_state = SDS_ERROR;
                         700 --line286
                         701 ..lin.ffc4db14..2e8b3b6.0_33::
                         702 .LDWlin33:
000000fc 050a            703 	mov	5,r1
000000fe 7d0f0100        704 	st.w	r1,0[r29]
                         705 --287:                drdbg_PRINT(drdbg_LEVEL_PROGRESS, "E");
00000102 f505*           706 	br	.L114
                         707 .L146:
                         708 --288:             }
                         709 --289:             else /* cyc_stat == drome_CYCLIC_NOT_FINISHED */
                         710 --290:             {
                         711 --291:                run = FALSE;
                         712 --line291
                         713 ..lin.ffc4db14..2e8b3b6.0_34::
                         714 .LDWlin34:
00000104 00e2            715 	mov	0,r28
                         716 --292:                drdbg_PRINT(drdbg_LEVEL_PROGRESS, "N");
00000106 d505*           717 	br	.L114
                         718 .L122:
                         719 --293:             }
                         720 --294:             break;
                         721 --295:          case SDS_DONE:
                         722 --296:          case SDS_ERROR:
                         723 --297:          default:
                         724 --298:             drdbif_shutDown();
                         725 --line298
                         726 ..lin.ffc4db14..2e8b3b6.0_35::
                         727 .LDWlin35:
                         728 	jarl	_drdbif_shutDown,lp
                         728 <EXPANSION BEGIN>
                         728 jarl22 _drdbif_shutDown , lp 
00000108 80ff0000*       728 <EXPANSION END>
                         729 --299:             shutdown_complete = TRUE;
                         730 --line299
                         731 ..lin.ffc4db14..2e8b3b6.0_36::
                         732 .LDWlin36:
0000010c 01da            733 	mov	1,r27
                         734 --300:             run = FALSE;
0000010e 00e2            735 	mov	0,r28
                         736 --301:             drdbg_PRINT(drdbg_LEVEL_PROGRESS, ".\r\n");
                         737 --302:             break;
                         738 .L114:
00000110 e0e1            739 	cmp	zero,r28
00000112 faa5*           740 	bne	.L116
                         741 --303:       }
                         742 --304:    }
                         743 --306:    return shutdown_complete;
                         744 --line306
                         745 ..lin.ffc4db14..2e8b3b6.0_37::

                                                                      Page 14
                                                              C:\Users\minda\AppData\Local\Temp\gh_000031s1.si
                         746 .LDWlin37:
00000114 1b50            747 	mov	r27,r10
                         748 --	    .ef
                         749 .LDW41:
00000116 4006ff70        750 	dispose	0,{r25,r26,r27,r28,r29,r31},[lp]
                         751 ..lin.ffc4db14..2e8b3b6.0_38::
                         752 .LDWlin38:
                         753 	.type	_drome_shutDown,@function
                         754 	.size	_drome_shutDown,.-_drome_shutDown
                         755 	.align	2
                         756 .LDW51:
                         757 --_cyc_stat	r1	local
                         758 --_run	r28	local
                         759 --_shutdown_complete	r27	local
                         760 --_status	r1	local
                         761 
                         762 	.data
                         763 	.text
                         764 
                         765 --307: }
                         766 
                         767 --309: /**
                         768 --310: *************************************************************************************
                         769 --311: **
                         770 --312: **   Save non volatile parameters. \n
                         771 --313: **
                         772 --314: **   Since Dromelib does not have direct access to any non volatile memory it will
                         773 --315: **   use callback functions to save the non volatile parameters.
                         774 --316: **
                         775 --317: **   \return   TRUE if the parameters was saved, FALSE otherwise.
                         776 --318: **
                         777 --319: **************************************************************************************
                         778 --320: **/
                         779 --321: Public Boolean drome_saveNVParams(void)
                         780 	.align	2
                         781 	.align	2
                         782 	.align	2
                         783 ..gh.f.a.2.e.2:
                         784 	.type	..gh.f.a.2.e.2,@object
                         785 	.size	..gh.f.a.2.e.2,0
                         786 	.global	_drome_saveNVParams
                         787 _drome_saveNVParams:
0000011a 80072100        788 	prepare	{r31},0
                         789 --	    .bf
                         790 .LDW61:
                         791 --322: {
                         792 --323:    drdbif_saveNVParams();
                         793 	jarl	_drdbif_saveNVParams,lp
                         793 <EXPANSION BEGIN>
                         793 jarl22 _drdbif_saveNVParams , lp 
0000011e 80ff0000*       793 <EXPANSION END>
                         794 --325:    return TRUE;
                         795 --line325
                         796 ..lin.ffc4db14..d09cbd31.0_39::
                         797 .LDWlin39:
00000122 0152            798 	mov	1,r10
                         799 --	    .ef
                         800 .LDW71:
00000124 40063f00        801 	dispose	0,{r31},[lp]
                         802 ..lin.ffc4db14..d09cbd31.0_40::
                         803 .LDWlin40:

                                                                      Page 15
                                                              C:\Users\minda\AppData\Local\Temp\gh_000031s1.si
                         804 	.type	_drome_saveNVParams,@function
                         805 	.size	_drome_saveNVParams,.-_drome_saveNVParams
                         806 	.align	2
                         807 .LDW81:
                         808 
                         809 	.section ".bss","awb"
                         810 .L530:
                         811 	.type	.L530,@object
                         812 	.size	.L530,0
                         813 	.data
                         814 	.text
                         815 
                         816 --326: }
                         817 
                         818 --328: /**
                         819 --329: *************************************************************************************
                         820 --330: **
                         821 --331: **   Drome background processing. \n
                         822 --332: **
                         823 --333: **   This is where Drome does most of it's work. The function must be called
                         824 --334: **   continuously and repeatedly (ideally every 10ms) to make Drome operate
                         825 --335: **   smoothly.  When receiving this cyclic call Drome will execute its tasks until
                         826 --336: **   there is nothing more to do. If the execution time limit set by
                         827 --337: **   drapp_MAX_CYCLIC_TIME is passed Drome will return drome_CYCLIC_NOT_FINISHED,
                         828 --338: **   in this case drome_doCyclic() should be called again, as soon as possible.
                         829 --339: **
                         830 --340: **   \return   Status for this cyclic call (see definition of drome_CyclicStat).
                         831 --341: **   
                         832 --342: **************************************************************************************
                         833 --343: **/
                         834 --344: Public drome_CyclicStat drome_doCyclic(void) 
                         835 	.assert 0x0 + (_priv_fatal_error_detected - _priv_fatal_error_detected) +0 == 0
                         836 	.align	2
                         837 	.align	2
                         838 	.align	2
                         839 ..gh.f.a.2.e.3:
                         840 	.type	..gh.f.a.2.e.3,@object
                         841 	.size	..gh.f.a.2.e.3,0
                         842 	.global	_drome_doCyclic
                         843 _drome_doCyclic:
00000128 8007e110        844 	prepare	{r27,r28,r29,r31},0
0000012c 3d0600000000*   845 	mov	_priv_fatal_error_detected,r29
00000132 1dd8            846 	mov	r29,r27
                         847 --	    .bf
                         848 .LDW91:
                         849 --345: {
                         850 --346:    dr_Status status;
                         851 --347:    drome_CyclicStat ret_val;
                         852 --349:    if (priv_fatal_error_detected)
                         853 --line349
                         854 ..lin.ffc4db14..d1ae6004.0_41::
                         855 .LDWlin41:
00000134 3d0f0100        856 	ld.w	0[r29],r1
00000138 e009            857 	cmp	zero,r1
0000013a b205*           858 	be	.L547
                         859 --350:    {
                         860 --351:       return drome_CYCLIC_ERROR;
                         861 --line351
                         862 ..lin.ffc4db14..d1ae6004.0_42::
                         863 .LDWlin42:
0000013c 0352            864 	mov	3,r10

                                                                      Page 16
                                                              C:\Users\minda\AppData\Local\Temp\gh_000031s1.si
0000013e e51d*           865 	br	.L545
                         866 .L547:
                         867 --352:    }
                         868 --354:    // Run view rendering process
                         869 --355:    dr_profiling_BEGIN(DRWIDIF_DO_CYCLIC);
                         870 --line355
                         871 ..lin.ffc4db14..d1ae6004.0_43::
                         872 .LDWlin43:
00000140 0132            873 	mov	1,r6
                         874 	jarl	_dr_profiling_begin,lp
                         874 <EXPANSION BEGIN>
                         874 jarl22 _dr_profiling_begin , lp 
00000142 80ff0000*       874 <EXPANSION END>
                         875 --356:    status = drwdif_doCyclic();
                         876 --line356
                         877 ..lin.ffc4db14..d1ae6004.0_44::
                         878 .LDWlin44:
                         879 	jarl	_drwdif_doCyclic,lp
                         879 <EXPANSION BEGIN>
                         879 jarl22 _drwdif_doCyclic , lp 
00000146 80ff0000*       879 <EXPANSION END>
0000014a 0ae0            880 	mov	r10,r28
                         881 --357:    dr_profiling_END(DRWIDIF_DO_CYCLIC);
                         882 --line357
                         883 ..lin.ffc4db14..d1ae6004.0_45::
                         884 .LDWlin45:
0000014c 0132            885 	mov	1,r6
                         886 	jarl	_dr_profiling_end,lp
                         886 <EXPANSION BEGIN>
                         886 jarl22 _dr_profiling_end , lp 
0000014e 80ff0000*       886 <EXPANSION END>
                         887 --359:    // Map internal drome status to external status.
                         888 --360:    if (priv_fatal_error_detected)
                         889 --line360
                         890 ..lin.ffc4db14..d1ae6004.0_46::
                         891 .LDWlin46:
00000152 3d0f0100        892 	ld.w	0[r29],r1
00000156 e009            893 	cmp	zero,r1
00000158 b205*           894 	be	.L550
                         895 --361:    {
                         896 --362:       // A fatal error has occurred
                         897 --363:       ret_val = drome_CYCLIC_ERROR;
                         898 --line363
                         899 ..lin.ffc4db14..d1ae6004.0_47::
                         900 .LDWlin47:
0000015a 030a            901 	mov	3,r1
0000015c e50d*           902 	br	.L552
                         903 .L550:
                         904 --364:    }
                         905 --365:    else if (status == dr_ST_OK)
                         906 --line365
                         907 ..lin.ffc4db14..d1ae6004.0_48::
                         908 .LDWlin48:
0000015e e0e1            909 	cmp	zero,r28
00000160 fa05*           910 	bne	.L553
                         911 --366:    {
                         912 --367:       // Widget drawing has finished
                         913 --368:       ret_val = drglif_isIdle() ? drome_CYCLIC_IDLE : drome_CYCLIC_FINISHED;
                         914 --line368
                         915 ..lin.ffc4db14..d1ae6004.0_49::
                         916 .LDWlin49:

                                                                      Page 17
                                                              C:\Users\minda\AppData\Local\Temp\gh_000031s1.si
                         917 	jarl	_drglif_isIdle,lp
                         917 <EXPANSION BEGIN>
                         917 jarl22 _drglif_isIdle , lp 
00000162 80ff0000*       917 <EXPANSION END>
00000166 e051            918 	cmp	zero,r10
00000168 e20f0000        919 	setfe	r1
0000016c e505*           920 	br	.L552
                         921 .L553:
                         922 --369:    }
                         923 --370:    else if (status == dr_ST_BUSY)
                         924 --line370
                         925 ..lin.ffc4db14..d1ae6004.0_50::
                         926 .LDWlin50:
0000016e 61e2            927 	cmp	1,r28
00000170 ba05*           928 	bne	.L556
                         929 --371:    {
                         930 --372:       // Widget drawing still running
                         931 --373:       ret_val = drome_CYCLIC_NOT_FINISHED;
                         932 --line373
                         933 ..lin.ffc4db14..d1ae6004.0_51::
                         934 .LDWlin51:
00000172 020a            935 	mov	2,r1
00000174 a505*           936 	br	.L552
                         937 .L556:
                         938 --374:    }
                         939 --375:    else /* status == dr_ST_ERR... */
                         940 --376:    {
                         941 --377:       // This should never happen
                         942 --378:       drdbg_CODE_ERROR(drdbg_LEVEL_ERROR);
                         943 --379:       ret_val = drome_CYCLIC_ERROR;
                         944 --line379
                         945 ..lin.ffc4db14..d1ae6004.0_52::
                         946 .LDWlin52:
00000176 030a            947 	mov	3,r1
                         948 .L552:
                         949 --380:    }
                         950 --381:    
                         951 --382:    return ret_val;
00000178 0150            952 	mov	r1,r10
                         953 .L545:
                         954 --	    .ef
                         955 .LDW02:
0000017a 4006ff10        956 	dispose	0,{r27,r28,r29,r31},[lp]
                         957 ..lin.ffc4db14..d1ae6004.0_53::
                         958 .LDWlin53:
                         959 	.type	_drome_doCyclic,@function
                         960 	.size	_drome_doCyclic,.-_drome_doCyclic
                         961 	.align	2
                         962 .LDW12:
                         963 --_status	r28	local
                         964 --_ret_val	r1	local
                         965 
                         966 	.data
                         967 	.text
                         968 
                         969 --383: }
                         970 
                         971 --385: /**
                         972 --386:  *************************************************************************************
                         973 --387:  **
                         974 --388:  **   Gets the specified version information item.

                                                                      Page 18
                                                              C:\Users\minda\AppData\Local\Temp\gh_000031s1.si
                         975 --389:  **
                         976 --390:  **    \return   A pointer to the requested item or NULL if item is not available.
                         977 --391:  **              See \ref drome_VerInfoID documentation for further information.
                         978 --392:  **
                         979 --393:  **************************************************************************************
                         980 --394:  **/
                         981 --395: Public const void * drome_getVersionInfo(
                         982 	.align	2
                         983 	.assert 0x0 + (.L817 - .L770) +0 == 0
                         984 	.align	2
                         985 	.align	2
                         986 	.align	2
                         987 ..gh.f.a.2.e.4:
                         988 	.type	..gh.f.a.2.e.4,@object
                         989 	.size	..gh.f.a.2.e.4,0
                         990 	.global	_drome_getVersionInfo
                         991 _drome_getVersionInfo:
0000017e 8007e100        992 	prepare	{r28,r29,r31},0
00000182 3d0600000000*   993 	mov	.L770,r29
00000188 1de0            994 	mov	r29,r28
                         995 --	    .bf
                         996 .LDW22:
                         997 --396:    drome_VerInfoID id                  ///<[in] Requested version info item.
                         998 --397: )
                         999 --398: {
                        1000 --399:    const void * info_ptr = NULL;
                        1001 --line399
                        1002 ..lin.ffc4db14..781e4c8c.0_54::
                        1003 .LDWlin54:
0000018a 000a           1004 	mov	0,r1
                        1005 --401:    switch (id)
0000018c 0670           1006 	mov	r6,r14
0000018e 6872           1007 	cmp	8,r14
00000190 cb35*          1008 	bh	.L683
00000192 c272           1009 	shl	2,r14
00000194 ee0600000000*  1010 	jmp	.L772[r14]
                        1011 .L772:
0000019a 80072400*      1012 	jr	.L672
0000019e 80072800*      1013 	jr	.L673
000001a2 80073000*      1014 	jr	.L674
000001a6 80073400*      1015 	jr	.L675
000001aa 80073800*      1016 	jr	.L676
000001ae 80073c00*      1017 	jr	.L677
000001b2 80074000*      1018 	jr	.L678
000001b6 80074200*      1019 	jr	.L683
000001ba 80073e00*      1020 	jr	.L683
                        1021 .L672:
                        1022 --402:    {
                        1023 --403:       case drome_VERINFO_LIB_VER_ZSTR:
                        1024 --404:          /* Dromelib version */
                        1025 --405:          info_ptr = priv_dromelib_ver;
                        1026 --line405
                        1027 ..lin.ffc4db14..781e4c8c.0_55::
                        1028 .LDWlin55:
000001be 210600000000*  1029 	mov	_priv_dromelib_ver,r1
                        1030 --406:          break;
                        1031 --408:       case drome_VERINFO_GC_VAR_REV_U16:
                        1032 --line406
                        1033 ..lin.ffc4db14..781e4c8c.0_56::
                        1034 .LDWlin56:
000001c4 a51d*          1035 	br	.L683

                                                                      Page 19
                                                              C:\Users\minda\AppData\Local\Temp\gh_000031s1.si
                        1036 .L673:
                        1037 --409:          #if drome_GLIB_VARIANT == drome_GLIB_DHD
                        1038 --410:          {
                        1039 --	    .bs
                        1040 .LDW32:
                        1041 --411:             /* Graphics controller variant and revision */
                        1042 --412:             static U16 fw_id;
                        1043 --413:             fw_id = drglif_getFirmwareId();
                        1044 --line413
                        1045 ..lin.ffc4db14..781e4c8c.0_57::
                        1046 .LDWlin57:
                        1047 	jarl	_drglif_getFirmwareId,lp
                        1047 <EXPANSION BEGIN>
                        1047 jarl22 _drglif_getFirmwareId , lp 
000001c6 80ff0000*      1047 <EXPANSION END>
000001ca 7d570000       1048 	st.h	r10,0[r29]
                        1049 --414:             info_ptr = &fw_id;
                        1050 --line414
                        1051 ..lin.ffc4db14..781e4c8c.0_58::
                        1052 .LDWlin58:
000001ce 1c08           1053 	mov	r28,r1
                        1054 --	    .es
                        1055 .LDW42:
                        1056 --415:          }
                        1057 --416:          #endif
                        1058 --417:          break;
                        1059 --419:       case drome_VERINFO_DB_COMP_VER_ZSTR:
000001d0 c515*          1060 	br	.L683
                        1061 .L674:
                        1062 --420:          /* Drome compiler version used for loaded GuideDB */
                        1063 --421:          info_ptr = drdbif_getCompilerVersion();
                        1064 --line421
                        1065 ..lin.ffc4db14..781e4c8c.0_59::
                        1066 .LDWlin59:
                        1067 	jarl	_drdbif_getCompilerVersion,lp
                        1067 <EXPANSION BEGIN>
                        1067 jarl22 _drdbif_getCompilerVersion , lp 
000001d2 80ff0000*      1067 <EXPANSION END>
000001d6 0a08           1068 	mov	r10,r1
                        1069 --422:          break;
                        1070 --424:       case drome_VERINFO_DB_PARTNUM_ZSTR:
                        1071 --line422
                        1072 ..lin.ffc4db14..781e4c8c.0_60::
                        1073 .LDWlin60:
000001d8 8515*          1074 	br	.L683
                        1075 .L675:
                        1076 --425:          /* GuideDB part number */
                        1077 --426:          info_ptr = drdbif_getPartNumber();
                        1078 --line426
                        1079 ..lin.ffc4db14..781e4c8c.0_61::
                        1080 .LDWlin61:
                        1081 	jarl	_drdbif_getPartNumber,lp
                        1081 <EXPANSION BEGIN>
                        1081 jarl22 _drdbif_getPartNumber , lp 
000001da 80ff0000*      1081 <EXPANSION END>
000001de 0a08           1082 	mov	r10,r1
                        1083 --427:          break;
                        1084 --429:       case drome_VERINFO_DB_PARTVER_ZSTR:
                        1085 --line427
                        1086 ..lin.ffc4db14..781e4c8c.0_62::
                        1087 .LDWlin62:

                                                                      Page 20
                                                              C:\Users\minda\AppData\Local\Temp\gh_000031s1.si
000001e0 c50d*          1088 	br	.L683
                        1089 .L676:
                        1090 --430:          /* GuideDB part version */
                        1091 --431:          info_ptr = drdbif_getPartVersion();
                        1092 --line431
                        1093 ..lin.ffc4db14..781e4c8c.0_63::
                        1094 .LDWlin63:
                        1095 	jarl	_drdbif_getPartVersion,lp
                        1095 <EXPANSION BEGIN>
                        1095 jarl22 _drdbif_getPartVersion , lp 
000001e2 80ff0000*      1095 <EXPANSION END>
000001e6 0a08           1096 	mov	r10,r1
                        1097 --432:          break;
                        1098 --434:       case drome_VERINFO_DB_MODELCRC_U32:
                        1099 --line432
                        1100 ..lin.ffc4db14..781e4c8c.0_64::
                        1101 .LDWlin64:
000001e8 850d*          1102 	br	.L683
                        1103 .L677:
                        1104 --435:          /* CRC32 of Guide model items (0 if not calculated). */
                        1105 --436:          info_ptr = drdbif_getModelCRC();
                        1106 --line436
                        1107 ..lin.ffc4db14..781e4c8c.0_65::
                        1108 .LDWlin65:
                        1109 	jarl	_drdbif_getModelCRC,lp
                        1109 <EXPANSION BEGIN>
                        1109 jarl22 _drdbif_getModelCRC , lp 
000001ea 80ff0000*      1109 <EXPANSION END>
000001ee 0a08           1110 	mov	r10,r1
                        1111 --437:          break;
                        1112 --439:       case drome_VERINFO_DB_TEXTCRC_U32:
                        1113 --line437
                        1114 ..lin.ffc4db14..781e4c8c.0_66::
                        1115 .LDWlin66:
000001f0 c505*          1116 	br	.L683
                        1117 .L678:
                        1118 --440:          /* CRC32 of text meta items (0 if not calculated). */
                        1119 --441:          info_ptr = drdbif_getTextCRC();
                        1120 --line441
                        1121 ..lin.ffc4db14..781e4c8c.0_67::
                        1122 .LDWlin67:
                        1123 	jarl	_drdbif_getTextCRC,lp
                        1123 <EXPANSION BEGIN>
                        1123 jarl22 _drdbif_getTextCRC , lp 
000001f2 80ff0000*      1123 <EXPANSION END>
000001f6 0a08           1124 	mov	r10,r1
                        1125 --442:          break;
                        1126 --444:       case drome_LANGPACK_CUSTOMER_PARTNO:
                        1127 .L683:
                        1128 --445:          #ifdef drome_CONF_USE_LANGUAGE_PACKS
                        1129 --446:             /*Customer part number of loaded language pack (NULL if not existing).*/
                        1130 --447:             info_ptr = drwidbif_getLangPackCustomerPartNo();
                        1131 --448:          #endif
                        1132 --449:          break;
                        1133 --451:       case drome_LANGPACK_SRE_PARTNO:
                        1134 --452:          #ifdef drome_CONF_USE_LANGUAGE_PACKS
                        1135 --453:             /*SRE part number of loaded language pack (NULL if not existing).*/
                        1136 --454:             info_ptr = drwidbif_getLangPackSrePartNo();
                        1137 --455:          #endif
                        1138 --456:          break;
                        1139 --459:       default:

                                                                      Page 21
                                                              C:\Users\minda\AppData\Local\Temp\gh_000031s1.si
                        1140 --460:          /* Unknown item */
                        1141 --461:          break;
                        1142 --462:    }
                        1143 --464:    return info_ptr;
                        1144 --line464
                        1145 ..lin.ffc4db14..781e4c8c.0_68::
                        1146 .LDWlin68:
000001f8 0150           1147 	mov	r1,r10
                        1148 --	    .ef
                        1149 .LDW52:
000001fa 4006ff00       1150 	dispose	0,{r28,r29,r31},[lp]
                        1151 ..lin.ffc4db14..781e4c8c.0_69::
                        1152 .LDWlin69:
                        1153 	.type	_drome_getVersionInfo,@function
                        1154 	.size	_drome_getVersionInfo,.-_drome_getVersionInfo
                        1155 	.align	2
                        1156 .LDW62:
                        1157 --_info_ptr	r1	local
                        1158 --_fw_id	.L817	static
                        1159 
                        1160 --_id	r6	param
                        1161 
                        1162 	.section ".bss","awb"
                        1163 .L770:
                        1164 	.type	.L770,@object
                        1165 	.size	.L770,0
                        1166 	.section ".rodata","a"
                        1167 	.global	_priv_dromelib_ver..E.3A.5CMahindra.20Repo.5CM.26M.20branches.5C4.2E4.2EW501.5C4.2ESoftware_Code.5C4.2E1.2ESoftware_Source_Code.5Cvlib_v1.2E8.5Capp.5Cgfx_apps.5CW501.5Ctarget.5Cobj.5Cdrome.
                        1168 _priv_dromelib_ver..E.3A.5CMahindra.20Repo.5CM.26M.20branches.5C4.2E4.2EW501.5C4.2ESoftware_Code.5C4.2E1.2ESoftware_Source_Code.5Cvlib_v1.2E8.5Capp.5Cgfx_apps.5CW501.5Ctarget.5Cobj.5Cdrome.:
                        1169 _priv_dromelib_ver:--	"DEVELOP"
00000000 44455645       1170 	.byte	68,69,86,69
00000004 4c4f5000       1171 	.byte	76,79,80,0
                        1172 	.type	_priv_dromelib_ver..E.3A.5CMahindra.20Repo.5CM.26M.20branches.5C4.2E4.2EW501.5C4.2ESoftware_Code.5C4.2E1.2ESoftware_Source_Code.5Cvlib_v1.2E8.5Capp.5Cgfx_apps.5CW501.5Ctarget.5Cobj.5Cdrome.,@object
                        1173 	.size	_priv_dromelib_ver..E.3A.5CMahindra.20Repo.5CM.26M.20branches.5C4.2E4.2EW501.5C4.2ESoftware_Code.5C4.2E1.2ESoftware_Source_Code.5Cvlib_v1.2E8.5Capp.5Cgfx_apps.5CW501.5Ctarget.5Cobj.5Cdrome.,8
                        1174 	.type	_priv_dromelib_ver,@object
                        1175 	.size	_priv_dromelib_ver,8
                        1176 	.section ".bss","awb"
                        1177 	.global	_fw_id.drome_getVersionInfo.E.3A.5CMahindra.20Repo.5CM.26M.20branches.5C4.2E4.2EW501.5C4.2ESoftware_Code.5C4.2E1.2ESoftware_Source_Code.5Cvlib_v1.2E8.5Capp.5Cgfx_apps.5CW501.5Ctarget.5Cobj.5Cdrome..3
                        1178 _fw_id.drome_getVersionInfo.E.3A.5CMahindra.20Repo.5CM.26M.20branches.5C4.2E4.2EW501.5C4.2ESoftware_Code.5C4.2E1.2ESoftware_Source_Code.5Cvlib_v1.2E8.5Capp.5Cgfx_apps.5CW501.5Ctarget.5Cobj.5Cdrome..3:
00000008 0000           1179 .L817:	.space	2
                        1180 	.type	_fw_id.drome_getVersionInfo.E.3A.5CMahindra.20Repo.5CM.26M.20branches.5C4.2E4.2EW501.5C4.2ESoftware_Code.5C4.2E1.2ESoftware_Source_Code.5Cvlib_v1.2E8.5Capp.5Cgfx_apps.5CW501.5Ctarget.5Cobj.5Cdrome..3,@object
                        1181 	.size	_fw_id.drome_getVersionInfo.E.3A.5CMahindra.20Repo.5CM.26M.20branches.5C4.2E4.2EW501.5C4.2ESoftware_Code.5C4.2E1.2ESoftware_Source_Code.5Cvlib_v1.2E8.5Capp.5Cgfx_apps.5CW501.5Ctarget.5Cobj.5Cdrome..3,2
                        1182 	.type	.L817,@object
                        1183 	.size	.L817,2
                        1184 	.data
                        1185 	.ghsnote jtable,2097156,.L772,.L772,.L772,9
                        1186 	.text
                        1187 
                        1188 --465: }
                        1189 
                        1190 --467: /**
                        1191 --468:  *************************************************************************************
                        1192 --469:  **
                        1193 --470:  **   This is the Entry point for events into drome. Events will be stored to an
                        1194 --471:  **   event queue and processed on following cyclic calls.
                        1195 --472:  **   
                        1196 --473:  **    \return  FALSE    Drome event queue was full, event rejected. \n
                        1197 --474:  **             TRUE     Event was added to event queue.
                        1198 --475:  **
                        1199 --476:  **************************************************************************************
                        1200 --477:  **/

                                                                      Page 22
                                                              C:\Users\minda\AppData\Local\Temp\gh_000031s1.si
                        1201 --478: #ifdef drome_CONF_USE_SM_AND_EVENTS
                        1202 --479: Public Boolean drome_sendEventToDrome(
                        1203 	.align	2
                        1204 	.align	2
                        1205 	.align	2
                        1206 ..gh.f.a.2.e.5:
                        1207 	.type	..gh.f.a.2.e.5,@object
                        1208 	.size	..gh.f.a.2.e.5,0
                        1209 	.global	_drome_sendEventToDrome
                        1210 _drome_sendEventToDrome:
000001fe 8007e130       1211 	prepare	{r26,r27,r28,r29,r31},0
00000202 06e8           1212 	mov	r6,r29
                        1213 --	    .bf
                        1214 .LDW72:
                        1215 --480:    U32 event_in                /**<[in] Event to drome from application */
                        1216 --481: )
                        1217 --482: {
                        1218 --483:    Boolean ret_val = FALSE;
00000204 00e2           1219 	mov	0,r28
                        1220 --485: #ifndef HOST_WIN32
                        1221 --486:    U32 null_event;
                        1222 --487:    U32 last_in_event;
                        1223 --489:    null_event = drapp_GET_NULL_EVENT();
00000206 3b0600000000*  1224 	mov	_drapp_GET_NULL_EVENT,r27
0000020c 3bdf0100       1225 	ld.w	0[r27],r27
00000210 fbc760f9       1226 	jarl	[r27],lp
00000214 0ad0           1227 	mov	r10,r26
                        1228 --490:    last_in_event = drapp_GET_LAST_IN_EVENT();
                        1229 --line490
                        1230 ..lin.ffc4db14..a585a200.0_70::
                        1231 .LDWlin70:
00000216 3b0600000000*  1232 	mov	_drapp_GET_LAST_IN_EVENT,r27
0000021c 3bdf0100       1233 	ld.w	0[r27],r27
00000220 fbc760f9       1234 	jarl	[r27],lp
00000224 0a08           1235 	mov	r10,r1
                        1236 --491:    
                        1237 --492:    if ((event_in > null_event) && (event_in < last_in_event))
                        1238 --line492
                        1239 ..lin.ffc4db14..a585a200.0_71::
                        1240 .LDWlin71:
00000226 fae9           1241 	cmp	r26,r29
00000228 830d*          1242 	bnh	.L841
0000022a e1e9           1243 	cmp	r1,r29
0000022c e905*          1244 	bnl	.L841
                        1245 --493: #endif
                        1246 --494:    {
                        1247 --495:       ret_val = drsmevh_storeDromeEvent( event_in, FALSE );
                        1248 --line495
                        1249 ..lin.ffc4db14..a585a200.0_72::
                        1250 .LDWlin72:
0000022e 1d30           1251 	mov	r29,r6
00000230 003a           1252 	mov	0,r7
                        1253 	jarl	_drsmevh_storeDromeEvent,lp
                        1253 <EXPANSION BEGIN>
                        1253 jarl22 _drsmevh_storeDromeEvent , lp 
00000232 80ff0000*      1253 <EXPANSION END>
00000236 0ae0           1254 	mov	r10,r28
                        1255 .L841:
                        1256 --496:    }
                        1257 --498:    return ret_val;
                        1258 --line498

                                                                      Page 23
                                                              C:\Users\minda\AppData\Local\Temp\gh_000031s1.si
                        1259 ..lin.ffc4db14..a585a200.0_73::
                        1260 .LDWlin73:
00000238 1c50           1261 	mov	r28,r10
                        1262 --	    .ef
                        1263 .LDW82:
0000023a 4006ff30       1264 	dispose	0,{r26,r27,r28,r29,r31},[lp]
                        1265 ..lin.ffc4db14..a585a200.0_74::
                        1266 .LDWlin74:
                        1267 	.type	_drome_sendEventToDrome,@function
                        1268 	.size	_drome_sendEventToDrome,.-_drome_sendEventToDrome
                        1269 	.align	2
                        1270 .LDW92:
                        1271 --_ret_val	r28	local
                        1272 --_null_event	r26	local
                        1273 --_last_in_event	r1	local
                        1274 
                        1275 --_event_in	r29	param
                        1276 
                        1277 	.section ".bss","awb"
                        1278 .L886:
                        1279 	.type	.L886,@object
                        1280 	.size	.L886,0
                        1281 	.data
                        1282 	.text
                        1283 
                        1284 --499: }
                        1285 
                        1286 --500: #endif
                        1287 --502: /**
                        1288 --503:  *************************************************************************************
                        1289 --504:  **
                        1290 --505:  **  Resets the profiling data. Should be called when starting a new measurement.
                        1291 --506:  **
                        1292 --507:  **   \return  void
                        1293 --508:  **
                        1294 --509:  **************************************************************************************
                        1295 --510:  **/
                        1296 --511: Public void drome_resetProfiling(void)
                        1297 	.align	2
                        1298 	.align	2
                        1299 	.align	2
                        1300 ..gh.f.a.2.e.6:
                        1301 	.type	..gh.f.a.2.e.6,@object
                        1302 	.size	..gh.f.a.2.e.6,0
                        1303 	.global	_drome_resetProfiling
                        1304 _drome_resetProfiling:
0000023e 80072100       1305 	prepare	{r31},0
                        1306 --	    .bf
                        1307 .LDW03:
                        1308 --512: {
                        1309 --513:    dr_profiling_RESET();
                        1310 	jarl	_dr_profiling_reset,lp
                        1310 <EXPANSION BEGIN>
                        1310 jarl22 _dr_profiling_reset , lp 
00000242 80ff0000*      1310 <EXPANSION END>
                        1311 --514:    dr_profiling_CLEAR_WIDGETLISTS();
                        1312 --line514
                        1313 ..lin.ffc4db14..33c95327.0_75::
                        1314 .LDWlin75:
                        1315 	jarl	_dr_profiling_clear_widgetlists,lp
                        1315 <EXPANSION BEGIN>

                                                                      Page 24
                                                              C:\Users\minda\AppData\Local\Temp\gh_000031s1.si
                        1315 jarl22 _dr_profiling_clear_widgetlists , lp 
00000246 80ff0000*      1315 <EXPANSION END>
                        1316 --515: }
                        1317 --	    .ef
                        1318 .LDW13:
                        1319 --line515
                        1320 ..lin.ffc4db14..33c95327.0_76::
                        1321 .LDWlin76:
0000024a 40063f00       1322 	dispose	0,{r31},[lp]
                        1323 ..lin.ffc4db14..33c95327.0_77::
                        1324 .LDWlin77:
                        1325 	.type	_drome_resetProfiling,@function
                        1326 	.size	_drome_resetProfiling,.-_drome_resetProfiling
                        1327 	.align	2
                        1328 .LDW23:
                        1329 
                        1330 	.section ".bss","awb"
                        1331 .L950:
                        1332 	.type	.L950,@object
                        1333 	.size	.L950,0
                        1334 	.data
                        1335 	.text
                        1336 
                        1337 
                        1338 --517: /**
                        1339 --518:  *************************************************************************************
                        1340 --519:  **
                        1341 --520:  **  Returns the measured profiling data. DR_NUM_OF_MEASURE_POINTS.
                        1342 --521:  **
                        1343 --522:  **   \return  A pointer to an array of drome_ProfilingData with DR_NUM_OF_MEASURE_POINTS
                        1344 --523:  **   of entries. Where each entry corresponds to
                        1345 --524:  **
                        1346 --525:  **************************************************************************************
                        1347 --526:  **/
                        1348 --527: Public const drome_ProfilingData* drome_getProfilingData(void)
                        1349 	.assert 0x0 + (.L1047 - .L1022) +2 == 4
                        1350 	.align	2
                        1351 	.align	2
                        1352 	.align	2
                        1353 ..gh.f.a.2.e.7:
                        1354 	.type	..gh.f.a.2.e.7,@object
                        1355 	.size	..gh.f.a.2.e.7,0
                        1356 	.global	_drome_getProfilingData
                        1357 _drome_getProfilingData:
0000024e 8807e110       1358 	prepare	{r27,r28,r29,r31},4
00000252 3d0600000000*  1359 	mov	.L1022-2,r29
00000258 3dde0400       1360 	movea	4,r29,r27
                        1361 --	    .bf
                        1362 .LDW33:
                        1363 --528: {
                        1364 --529: #ifdef DR_TIME_PROFILING
                        1365 --530:    static drome_ProfilingData ret_data[DR_NUM_OF_MEASURE_POINTS];
                        1366 --532:    U32 i = 0U;
                        1367 --line532
                        1368 ..lin.ffc4db14..e47a5a3e.0_78::
                        1369 .LDWlin78:
0000025c 00e2           1370 	mov	0,r28
                        1371 --534:    for(i = 0U; i < (U32)DR_NUM_OF_MEASURE_POINTS; i++)
0000025e 00e2           1372 	mov	0,r28
                        1373 .L972:
                        1374 --535:    {

                                                                      Page 25
                                                              C:\Users\minda\AppData\Local\Temp\gh_000031s1.si
                        1375 --	    .bs
                        1376 .LDW43:
                        1377 --536:       dr_ProfilingData priv_profiling_data;
                        1378 --537:       dr_profiling_GET_DATA(&priv_profiling_data, (dr_ProfilingIds)((U32)APP_SET_DP_VAL_AS_NUMERIC + i));
00000260 1c3e2d00       1379 	addi	45,r28,r7
00000264 23360000       1380 	movea	0,sp,r6
                        1381 	jarl	_dr_profiling_getData,lp
                        1381 <EXPANSION BEGIN>
                        1381 jarl22 _dr_profiling_getData , lp 
00000268 80ff0000*      1381 <EXPANSION END>
                        1382 --538:       ret_data[i].count = priv_profiling_data.count;
                        1383 --line538
                        1384 ..lin.ffc4db14..e47a5a3e.0_79::
                        1385 .LDWlin79:
0000026c 230f0900       1386 	ld.w	8[sp],r1
00000270 1cf0           1387 	mov	r28,ep
00000272 fe00           1388 	sxh	ep
00000274 fef60c00       1389 	mulhi	12,ep,ep
00000278 dbf1           1390 	add	r27,ep
0000027a 030d           1391 	sst.w	r1,4[ep]
                        1392 --539:       ret_data[i].max = priv_profiling_data.max;
0000027c 230f0500       1393 	ld.w	4[sp],r1
00000280 1cf0           1394 	mov	r28,ep
00000282 fe00           1395 	sxh	ep
00000284 fef60c00       1396 	mulhi	12,ep,ep
00000288 dbf1           1397 	add	r27,ep
0000028a 010d           1398 	sst.w	r1,0[ep]
                        1399 --540:       ret_data[i].tot = priv_profiling_data.tot;
0000028c 230f0d00       1400 	ld.w	12[sp],r1
00000290 1cf0           1401 	mov	r28,ep
00000292 fe00           1402 	sxh	ep
00000294 fef60c00       1403 	mulhi	12,ep,ep
00000298 dbf1           1404 	add	r27,ep
0000029a 050d           1405 	sst.w	r1,8[ep]
                        1406 --	    .es
                        1407 .LDW53:
0000029c 41e2           1408 	add	1,r28
0000029e 64e2           1409 	cmp	4,r28
000002a0 81e5*          1410 	bl	.L972
                        1411 --541:    }
                        1412 --543:    return ret_data;
                        1413 --line543
                        1414 ..lin.ffc4db14..e47a5a3e.0_80::
                        1415 .LDWlin80:
000002a2 1b50           1416 	mov	r27,r10
                        1417 --	    .ef
                        1418 .LDW63:
000002a4 4806ff10       1419 	dispose	4,{r27,r28,r29,r31},[lp]
                        1420 ..lin.ffc4db14..e47a5a3e.0_81::
                        1421 .LDWlin81:
                        1422 	.type	_drome_getProfilingData,@function
                        1423 	.size	_drome_getProfilingData,.-_drome_getProfilingData
                        1424 	.align	2
                        1425 .LDW73:
                        1426 --_ret_data	.L1047	static
                        1427 --_i	r28	local
                        1428 --_priv_profiling_data	0[sp]	local
                        1429 
                        1430 	.section ".bss","awb"
                        1431 .L1022:
                        1432 	.type	.L1022,@object

                                                                      Page 26
                                                              C:\Users\minda\AppData\Local\Temp\gh_000031s1.si
                        1433 	.size	.L1022,0
0000000a 0000           1434 	.space	2
                        1435 	.global	_ret_data.drome_getProfilingData.E.3A.5CMahindra.20Repo.5CM.26M.20branches.5C4.2E4.2EW501.5C4.2ESoftware_Code.5C4.2E1.2ESoftware_Source_Code.5Cvlib_v1.2E8.5Capp.5Cgfx_apps.5CW501.5Ctarget.5Cobj.5Cdrome..4
                        1436 _ret_data.drome_getProfilingData.E.3A.5CMahindra.20Repo.5CM.26M.20branches.5C4.2E4.2EW501.5C4.2ESoftware_Code.5C4.2E1.2ESoftware_Source_Code.5Cvlib_v1.2E8.5Capp.5Cgfx_apps.5CW501.5Ctarget.5Cobj.5Cdrome..4:
0000000c 000000000000   1437 .L1047:	.space	48
00000012 000000000000 
00000018 000000000000 
0000001e 000000000000 
00000024 000000000000 
0000002a 000000000000 
00000030 000000000000 
00000036 000000000000 
                        1438 	.type	_ret_data.drome_getProfilingData.E.3A.5CMahindra.20Repo.5CM.26M.20branches.5C4.2E4.2EW501.5C4.2ESoftware_Code.5C4.2E1.2ESoftware_Source_Code.5Cvlib_v1.2E8.5Capp.5Cgfx_apps.5CW501.5Ctarget.5Cobj.5Cdrome..4,@object
                        1439 	.size	_ret_data.drome_getProfilingData.E.3A.5CMahindra.20Repo.5CM.26M.20branches.5C4.2E4.2EW501.5C4.2ESoftware_Code.5C4.2E1.2ESoftware_Source_Code.5Cvlib_v1.2E8.5Capp.5Cgfx_apps.5CW501.5Ctarget.5Cobj.5Cdrome..4,48
                        1440 	.type	.L1047,@object
                        1441 	.size	.L1047,48
                        1442 	.data
                        1443 	.text
                        1444 
                        1445 --544: #else
                        1446 --545:    return NULL;
                        1447 --546: #endif
                        1448 --547: }
                        1449 
                        1450 --549: /**
                        1451 --550:  *************************************************************************************
                        1452 --551:  **
                        1453 --552:  **   Draws a view with a given key. This is i.e. a popup ,debug view or a view named 
                        1454 --553:  **   X_nnnn_Name in the guide model. The X & nnnn will be the key for this function. 
                        1455 --554:  **
                        1456 --555:  **   After making a successful call to this function, the application has the control 
                        1457 --556:  **   over the view displayed on screen. The state machine will keep updating its current 
                        1458 --557:  **   view but this view will only be drawn after calling the interface
                        1459 --558:  **   drome_returnViewControlToStateMachine().
                        1460 --559:  **
                        1461 --560:  **   NOTE! \n
                        1462 --561:  **   If the view was not found, a default error view is displayed, specifying what view
                        1463 --562:  **   was requested but not found.
                        1464 --563:  **
                        1465 --564:  **   \return  TRUE    View existed and was set to be drawn. \n
                        1466 --565:  **            FALSE   View did not exist, error view will be drawn. 
                        1467 --566:  **
                        1468 --567:  **************************************************************************************
                        1469 --568:  **/
                        1470 --569: Public Boolean drome_drawViewWithKey(U32 view_key) ///<[in] view key - view key for view.
                        1471 	.align	2
                        1472 	.align	2
                        1473 	.align	2
                        1474 ..gh.f.a.2.e.8:
                        1475 	.type	..gh.f.a.2.e.8,@object
                        1476 	.size	..gh.f.a.2.e.8,0
                        1477 	.global	_drome_drawViewWithKey
                        1478 _drome_drawViewWithKey:
000002a8 80072100       1479 	prepare	{r31},0
                        1480 --	    .bf
                        1481 .LDW83:
                        1482 --570: {
                        1483 --571:   return(drwdif_drawViewWithKey(view_key));
                        1484 	jarl	_drwdif_drawViewWithKey,lp
                        1484 <EXPANSION BEGIN>
                        1484 jarl22 _drwdif_drawViewWithKey , lp 

                                                                      Page 27
                                                              C:\Users\minda\AppData\Local\Temp\gh_000031s1.si
000002ac 80ff0000*      1484 <EXPANSION END>
                        1485 --	    .ef
                        1486 .LDW93:
                        1487 --line572
                        1488 ..lin.ffc4db14..578a76a8.0_82::
                        1489 .LDWlin82:
000002b0 40063f00       1490 	dispose	0,{r31},[lp]
                        1491 ..lin.ffc4db14..578a76a8.0_83::
                        1492 .LDWlin83:
                        1493 	.type	_drome_drawViewWithKey,@function
                        1494 	.size	_drome_drawViewWithKey,.-_drome_drawViewWithKey
                        1495 	.align	2
                        1496 .LDW04:
                        1497 
                        1498 --_view_key	r6	param
                        1499 
                        1500 	.section ".bss","awb"
                        1501 .L1086:
                        1502 	.type	.L1086,@object
                        1503 	.size	.L1086,0
                        1504 	.data
                        1505 	.text
                        1506 
                        1507 --572: }
                        1508 
                        1509 --574: /**
                        1510 --575: *************************************************************************************
                        1511 --576: **
                        1512 --577: **   Draws a view with a given index. 
                        1513 --578: **
                        1514 --579: **   A call to this function will override the drome state machine. The state machine 
                        1515 --580: **   will keep updating its current view but this view will only be drawn after calling 
                        1516 --581: **   the interface drome_returnViewControlToStateMachine().
                        1517 --582: **
                        1518 --583: **   NOTE! \n
                        1519 --584: **   No checking is performed to actually see if the view exists, if not an error 
                        1520 --585: **   page will be displayed. This makes the interface mostly suitable for debug/test
                        1521 --586: **   purposes.
                        1522 --587: **
                        1523 --588: **************************************************************************************
                        1524 --589: **/
                        1525 --590: Public void drome_drawViewWithIndex(U32 index) ///<[in] view index, index to view up for drawn.
                        1526 	.align	2
                        1527 	.align	2
                        1528 	.align	2
                        1529 ..gh.f.a.2.e.9:
                        1530 	.type	..gh.f.a.2.e.9,@object
                        1531 	.size	..gh.f.a.2.e.9,0
                        1532 	.global	_drome_drawViewWithIndex
                        1533 _drome_drawViewWithIndex:
000002b4 80072100       1534 	prepare	{r31},0
                        1535 --	    .bf
                        1536 .LDW14:
                        1537 --591: {
                        1538 --592:   drwdif_drawViewWithIndex(index);
                        1539 	jarl	_drwdif_drawViewWithIndex,lp
                        1539 <EXPANSION BEGIN>
                        1539 jarl22 _drwdif_drawViewWithIndex , lp 
000002b8 80ff0000*      1539 <EXPANSION END>
                        1540 --593: }
                        1541 --	    .ef

                                                                      Page 28
                                                              C:\Users\minda\AppData\Local\Temp\gh_000031s1.si
                        1542 .LDW24:
                        1543 --line593
                        1544 ..lin.ffc4db14..63e33337.0_84::
                        1545 .LDWlin84:
000002bc 40063f00       1546 	dispose	0,{r31},[lp]
                        1547 ..lin.ffc4db14..63e33337.0_85::
                        1548 .LDWlin85:
                        1549 	.type	_drome_drawViewWithIndex,@function
                        1550 	.size	_drome_drawViewWithIndex,.-_drome_drawViewWithIndex
                        1551 	.align	2
                        1552 .LDW34:
                        1553 
                        1554 --_index	r6	param
                        1555 
                        1556 	.section ".bss","awb"
                        1557 .L1122:
                        1558 	.type	.L1122,@object
                        1559 	.size	.L1122,0
                        1560 	.data
                        1561 	.text
                        1562 
                        1563 
                        1564 --595: /**
                        1565 --596:  *************************************************************************************
                        1566 --597:  **
                        1567 --598:  **   This function is used by the application to tell drome to redraw the currently 
                        1568 --599:  **   active view. The reason for redrawing could be that the whole screen shall be 
                        1569 --600:  **   redrawn with some interval, or that some global properties controlling the 
                        1570 --601:  **   view has changed. Physical redrawing will start on the next cyclic sent to drome.
                        1571 --602:  **
                        1572 --603:  **   Calls to this function will tell drome to redraw the current view. Actual
                        1573 --604:  **   redrawing will start on the next cyclic call.
                        1574 --605:  **
                        1575 --606:  **   WARNING! \n
                        1576 --607:  **   If a view was currently drawing, this call will abort that drawing!
                        1577 --608:  **   
                        1578 --609:  **    \return  TRUE    If the view was possible to setup for a redraw. \n
                        1579 --610:  **             FALSE   If last redrawView() command was not completed.
                        1580 --611:  **
                        1581 --612:  **************************************************************************************
                        1582 --613:  **/
                        1583 --614: Public Boolean drome_redrawView(void)
                        1584 	.align	2
                        1585 	.align	2
                        1586 	.align	2
                        1587 ..gh.f.a.2.e.10:
                        1588 	.type	..gh.f.a.2.e.10,@object
                        1589 	.size	..gh.f.a.2.e.10,0
                        1590 	.global	_drome_redrawView
                        1591 _drome_redrawView:
000002c0 80072100       1592 	prepare	{r31},0
                        1593 --	    .bf
                        1594 .LDW44:
                        1595 --615: {
                        1596 --616:    return drwdif_forceRedraw();
                        1597 	jarl	_drwdif_forceRedraw,lp
                        1597 <EXPANSION BEGIN>
                        1597 jarl22 _drwdif_forceRedraw , lp 
000002c4 80ff0000*      1597 <EXPANSION END>
                        1598 --	    .ef
                        1599 .LDW54:

                                                                      Page 29
                                                              C:\Users\minda\AppData\Local\Temp\gh_000031s1.si
                        1600 --line617
                        1601 ..lin.ffc4db14..f835369a.0_86::
                        1602 .LDWlin86:
000002c8 40063f00       1603 	dispose	0,{r31},[lp]
                        1604 ..lin.ffc4db14..f835369a.0_87::
                        1605 .LDWlin87:
                        1606 	.type	_drome_redrawView,@function
                        1607 	.size	_drome_redrawView,.-_drome_redrawView
                        1608 	.align	2
                        1609 .LDW64:
                        1610 
                        1611 	.section ".bss","awb"
                        1612 .L1166:
                        1613 	.type	.L1166,@object
                        1614 	.size	.L1166,0
                        1615 	.data
                        1616 	.text
                        1617 
                        1618 --617: }
                        1619 
                        1620 --619: /**
                        1621 --620: **************************************************************************************
                        1622 --621: **
                        1623 --622: **   Sets the language to use. \n
                        1624 --623: **   The language is set using an application specific id code as specified by the
                        1625 --624: **   UserConfig.xml file provided to the Drome compiler. After Drome initialization
                        1626 --625: **   the first available language is selected.
                        1627 --626: **
                        1628 --627: **    \return  FALSE = Language not set, language id out of range. \n
                        1629 --628: **             TRUE  = Specified language set.
                        1630 --629: **
                        1631 --630: **************************************************************************************
                        1632 --631: **/
                        1633 --632: Public Boolean drome_setLanguage(
                        1634 	.align	2
                        1635 	.align	2
                        1636 	.align	2
                        1637 ..gh.f.a.2.e.11:
                        1638 	.type	..gh.f.a.2.e.11,@object
                        1639 	.size	..gh.f.a.2.e.11,0
                        1640 	.global	_drome_setLanguage
                        1641 _drome_setLanguage:
000002cc 80072100       1642 	prepare	{r31},0
000002d0 c600           1643 	zxh	r6
                        1644 --	    .bf
                        1645 .LDW74:
                        1646 --633:    drome_LanguageId language           /**<[in] Language to use. */
                        1647 --634: )
                        1648 --635: {
                        1649 --636:   return(drwidbif_setLanguage(language));
                        1650 	jarl	_drwidbif_setLanguage,lp
                        1650 <EXPANSION BEGIN>
                        1650 jarl22 _drwidbif_setLanguage , lp 
000002d2 80ff0000*      1650 <EXPANSION END>
                        1651 --	    .ef
                        1652 .LDW84:
                        1653 --line637
                        1654 ..lin.ffc4db14..a675ea8a.0_88::
                        1655 .LDWlin88:
000002d6 40063f00       1656 	dispose	0,{r31},[lp]
                        1657 ..lin.ffc4db14..a675ea8a.0_89::

                                                                      Page 30
                                                              C:\Users\minda\AppData\Local\Temp\gh_000031s1.si
                        1658 .LDWlin89:
                        1659 	.type	_drome_setLanguage,@function
                        1660 	.size	_drome_setLanguage,.-_drome_setLanguage
                        1661 	.align	2
                        1662 .LDW94:
                        1663 
                        1664 --_language	r6	param
                        1665 
                        1666 	.section ".bss","awb"
                        1667 .L1198:
                        1668 	.type	.L1198,@object
                        1669 	.size	.L1198,0
                        1670 	.data
                        1671 	.text
                        1672 
                        1673 --637: }
                        1674 
                        1675 --639: /**
                        1676 --640: **************************************************************************************
                        1677 --641: **
                        1678 --642: **   Returns the number of languages in the database.
                        1679 --643: **
                        1680 --644: **    \return   Number of languages in database.
                        1681 --645: **
                        1682 --646: **************************************************************************************
                        1683 --647: **/
                        1684 --648: Public U16 drome_getNumberOfLanguages( void )
                        1685 	.align	2
                        1686 	.align	2
                        1687 	.align	2
                        1688 ..gh.f.a.2.e.12:
                        1689 	.type	..gh.f.a.2.e.12,@object
                        1690 	.size	..gh.f.a.2.e.12,0
                        1691 	.global	_drome_getNumberOfLanguages
                        1692 _drome_getNumberOfLanguages:
000002da 80072100       1693 	prepare	{r31},0
                        1694 --	    .bf
                        1695 .LDW05:
                        1696 --649: {
                        1697 --650:   return(drwidbif_getNumberOfLanguages());
                        1698 	jarl	_drwidbif_getNumberOfLanguages,lp
                        1698 <EXPANSION BEGIN>
                        1698 jarl22 _drwidbif_getNumberOfLanguages , lp 
000002de 80ff0000*      1698 <EXPANSION END>
000002e2 ca00           1699 	zxh	r10
                        1700 --	    .ef
                        1701 .LDW15:
                        1702 --line651
                        1703 ..lin.ffc4db14..40a663ef.0_90::
                        1704 .LDWlin90:
000002e4 40063f00       1705 	dispose	0,{r31},[lp]
                        1706 ..lin.ffc4db14..40a663ef.0_91::
                        1707 .LDWlin91:
                        1708 	.type	_drome_getNumberOfLanguages,@function
                        1709 	.size	_drome_getNumberOfLanguages,.-_drome_getNumberOfLanguages
                        1710 	.align	2
                        1711 .LDW25:
                        1712 
                        1713 	.section ".bss","awb"
                        1714 .L1230:
                        1715 	.type	.L1230,@object

                                                                      Page 31
                                                              C:\Users\minda\AppData\Local\Temp\gh_000031s1.si
                        1716 	.size	.L1230,0
                        1717 	.data
                        1718 	.text
                        1719 
                        1720 --651: }
                        1721 
                        1722 --653: /**
                        1723 --654: **************************************************************************************
                        1724 --655: **
                        1725 --656: **  Returns the language code corresponding to the specified index in the collection
                        1726 --657: **  of language codes.
                        1727 --658: **
                        1728 --659: **   \return   Language code or 0 if not found.
                        1729 --660: **
                        1730 --661: **************************************************************************************
                        1731 --662: **/
                        1732 --663: Public drome_LanguageId drome_getLanguageCode(
                        1733 	.align	2
                        1734 	.align	2
                        1735 	.align	2
                        1736 ..gh.f.a.2.e.13:
                        1737 	.type	..gh.f.a.2.e.13,@object
                        1738 	.size	..gh.f.a.2.e.13,0
                        1739 	.global	_drome_getLanguageCode
                        1740 _drome_getLanguageCode:
000002e8 80072100       1741 	prepare	{r31},0
000002ec c600           1742 	zxh	r6
                        1743 --	    .bf
                        1744 .LDW35:
                        1745 --664:    U16 index          /**<[in] Language index to query [0..(number-of-languages - 1)] */
                        1746 --665: )
                        1747 --666: {
                        1748 --667:   return(drwidbif_getLanguageCode(index));
                        1749 	jarl	_drwidbif_getLanguageCode,lp
                        1749 <EXPANSION BEGIN>
                        1749 jarl22 _drwidbif_getLanguageCode , lp 
000002ee 80ff0000*      1749 <EXPANSION END>
000002f2 ca00           1750 	zxh	r10
                        1751 --	    .ef
                        1752 .LDW45:
                        1753 --line668
                        1754 ..lin.ffc4db14..c5e99d59.0_92::
                        1755 .LDWlin92:
000002f4 40063f00       1756 	dispose	0,{r31},[lp]
                        1757 ..lin.ffc4db14..c5e99d59.0_93::
                        1758 .LDWlin93:
                        1759 	.type	_drome_getLanguageCode,@function
                        1760 	.size	_drome_getLanguageCode,.-_drome_getLanguageCode
                        1761 	.align	2
                        1762 .LDW55:
                        1763 
                        1764 --_index	r6	param
                        1765 
                        1766 	.section ".bss","awb"
                        1767 .L1262:
                        1768 	.type	.L1262,@object
                        1769 	.size	.L1262,0
                        1770 	.data
                        1771 	.text
                        1772 
                        1773 --668: }

                                                                      Page 32
                                                              C:\Users\minda\AppData\Local\Temp\gh_000031s1.si
                        1774 
                        1775 --670: /**
                        1776 --671: **************************************************************************************
                        1777 --672: **
                        1778 --673: **   Sets the variant to use. \n
                        1779 --674: **   The variant is set using an application specific id code as specified by the
                        1780 --675: **   UserConfig.xml file provided to the Drome compiler. After Drome initialisation
                        1781 --676: **   the first available variant is selected.
                        1782 --677: **
                        1783 --678: **    \return  FALSE = Variant not set, variant id out of range. \n
                        1784 --679: **             TRUE  = Specified variant set.
                        1785 --680: **
                        1786 --681: **************************************************************************************
                        1787 --682: **/
                        1788 --683: #ifdef drome_CONF_USE_DYNAMIC_VARIANTS
                        1789 --684: Public Boolean drome_setVariant(
                        1790 	.align	2
                        1791 	.align	2
                        1792 	.align	2
                        1793 ..gh.f.a.2.e.14:
                        1794 	.type	..gh.f.a.2.e.14,@object
                        1795 	.size	..gh.f.a.2.e.14,0
                        1796 	.global	_drome_setVariant
                        1797 _drome_setVariant:
000002f8 80072100       1798 	prepare	{r31},0
000002fc c600           1799 	zxh	r6
                        1800 --	    .bf
                        1801 .LDW65:
                        1802 --685:    drome_VariantId variant             /**<[in] Variant to use.*/
                        1803 --686: )
                        1804 --687: {
                        1805 --688:   return(drwidbif_setVariant(variant));
                        1806 	jarl	_drwidbif_setVariant,lp
                        1806 <EXPANSION BEGIN>
                        1806 jarl22 _drwidbif_setVariant , lp 
000002fe 80ff0000*      1806 <EXPANSION END>
                        1807 --	    .ef
                        1808 .LDW75:
                        1809 --line689
                        1810 ..lin.ffc4db14..54ae407b.0_94::
                        1811 .LDWlin94:
00000302 40063f00       1812 	dispose	0,{r31},[lp]
                        1813 ..lin.ffc4db14..54ae407b.0_95::
                        1814 .LDWlin95:
                        1815 	.type	_drome_setVariant,@function
                        1816 	.size	_drome_setVariant,.-_drome_setVariant
                        1817 	.align	2
                        1818 .LDW85:
                        1819 
                        1820 --_variant	r6	param
                        1821 
                        1822 	.section ".bss","awb"
                        1823 .L1294:
                        1824 	.type	.L1294,@object
                        1825 	.size	.L1294,0
                        1826 	.data
                        1827 	.text
                        1828 
                        1829 --689: }
                        1830 
                        1831 --690: #endif

                                                                      Page 33
                                                              C:\Users\minda\AppData\Local\Temp\gh_000031s1.si
                        1832 --692: /**
                        1833 --693: **************************************************************************************
                        1834 --694: **
                        1835 --695: **   Returns the number of variants in the database.
                        1836 --696: **
                        1837 --697: **    \return   Number of variants in database.
                        1838 --698: **
                        1839 --699: **************************************************************************************
                        1840 --700: **/
                        1841 --701: #ifdef drome_CONF_USE_DYNAMIC_VARIANTS
                        1842 --702: Public U16 drome_getNumberOfVariants( void )
                        1843 	.align	2
                        1844 	.align	2
                        1845 	.align	2
                        1846 ..gh.f.a.2.e.15:
                        1847 	.type	..gh.f.a.2.e.15,@object
                        1848 	.size	..gh.f.a.2.e.15,0
                        1849 	.global	_drome_getNumberOfVariants
                        1850 _drome_getNumberOfVariants:
00000306 80072100       1851 	prepare	{r31},0
                        1852 --	    .bf
                        1853 .LDW95:
                        1854 --703: {
                        1855 --704:   return(drwidbif_getNumberOfVariants());
                        1856 	jarl	_drwidbif_getNumberOfVariants,lp
                        1856 <EXPANSION BEGIN>
                        1856 jarl22 _drwidbif_getNumberOfVariants , lp 
0000030a 80ff0000*      1856 <EXPANSION END>
0000030e ca00           1857 	zxh	r10
                        1858 --	    .ef
                        1859 .LDW06:
                        1860 --line705
                        1861 ..lin.ffc4db14..176a49c0.0_96::
                        1862 .LDWlin96:
00000310 40063f00       1863 	dispose	0,{r31},[lp]
                        1864 ..lin.ffc4db14..176a49c0.0_97::
                        1865 .LDWlin97:
                        1866 	.type	_drome_getNumberOfVariants,@function
                        1867 	.size	_drome_getNumberOfVariants,.-_drome_getNumberOfVariants
                        1868 	.align	2
                        1869 .LDW16:
                        1870 
                        1871 	.section ".bss","awb"
                        1872 .L1326:
                        1873 	.type	.L1326,@object
                        1874 	.size	.L1326,0
                        1875 	.data
                        1876 	.text
                        1877 
                        1878 --705: }
                        1879 
                        1880 --706: #endif
                        1881 --708: /**
                        1882 --709: **************************************************************************************
                        1883 --710: **
                        1884 --711: **  Returns the variant code corresponding to the specified index in the collection
                        1885 --712: **  of variant codes.
                        1886 --713: **
                        1887 --714: **   \return   Variant code or 0 if not found.
                        1888 --715: **
                        1889 --716: **************************************************************************************

                                                                      Page 34
                                                              C:\Users\minda\AppData\Local\Temp\gh_000031s1.si
                        1890 --717: **/
                        1891 --718: #ifdef drome_CONF_USE_DYNAMIC_VARIANTS
                        1892 --719: Public drome_VariantId drome_getVariantCode(
                        1893 	.align	2
                        1894 	.align	2
                        1895 	.align	2
                        1896 ..gh.f.a.2.e.16:
                        1897 	.type	..gh.f.a.2.e.16,@object
                        1898 	.size	..gh.f.a.2.e.16,0
                        1899 	.global	_drome_getVariantCode
                        1900 _drome_getVariantCode:
00000314 80072100       1901 	prepare	{r31},0
00000318 c600           1902 	zxh	r6
                        1903 --	    .bf
                        1904 .LDW26:
                        1905 --720:    U16 index          /**<[in] Variant index to query [0..(number-of-variants - 1)] */
                        1906 --721: )
                        1907 --722: {
                        1908 --723:   return(drwidbif_getVariantCode(index));
                        1909 	jarl	_drwidbif_getVariantCode,lp
                        1909 <EXPANSION BEGIN>
                        1909 jarl22 _drwidbif_getVariantCode , lp 
0000031a 80ff0000*      1909 <EXPANSION END>
0000031e ca00           1910 	zxh	r10
                        1911 --	    .ef
                        1912 .LDW36:
                        1913 --line724
                        1914 ..lin.ffc4db14..c3a3f54a.0_98::
                        1915 .LDWlin98:
00000320 40063f00       1916 	dispose	0,{r31},[lp]
                        1917 ..lin.ffc4db14..c3a3f54a.0_99::
                        1918 .LDWlin99:
                        1919 	.type	_drome_getVariantCode,@function
                        1920 	.size	_drome_getVariantCode,.-_drome_getVariantCode
                        1921 	.align	2
                        1922 .LDW46:
                        1923 
                        1924 --_index	r6	param
                        1925 
                        1926 	.section ".bss","awb"
                        1927 .L1358:
                        1928 	.type	.L1358,@object
                        1929 	.size	.L1358,0
                        1930 	.data
                        1931 	.text
                        1932 
                        1933 --724: }
                        1934 
                        1935 --725: #endif
                        1936 --727: /**
                        1937 --728: *************************************************************************************
                        1938 --729: **
                        1939 --730: **   Hides the view and returns control to the state machine. 
                        1940 --731: **   This will cause a redraw of the view given by the state machine.
                        1941 --732: **   
                        1942 --733: **    \return  FALSE    If the operation failed. \n
                        1943 --734: **             TRUE     If control is returned to the state machine.
                        1944 --735: **
                        1945 --736: **************************************************************************************
                        1946 --737: **/
                        1947 --738: #ifdef drome_CONF_USE_SM_AND_EVENTS

                                                                      Page 35
                                                              C:\Users\minda\AppData\Local\Temp\gh_000031s1.si
                        1948 --739: Public Boolean drome_returnViewControlToStateMachine( void )
                        1949 	.align	2
                        1950 	.align	2
                        1951 	.align	2
                        1952 ..gh.f.a.2.e.17:
                        1953 	.type	..gh.f.a.2.e.17,@object
                        1954 	.size	..gh.f.a.2.e.17,0
                        1955 	.global	_drome_returnViewControlToStateMachine
                        1956 _drome_returnViewControlToStateMachine:
00000324 80072100       1957 	prepare	{r31},0
                        1958 --	    .bf
                        1959 .LDW56:
                        1960 --740: {
                        1961 --741:   return drwdif_returnViewCtrlToSM();
                        1962 	jarl	_drwdif_returnViewCtrlToSM,lp
                        1962 <EXPANSION BEGIN>
                        1962 jarl22 _drwdif_returnViewCtrlToSM , lp 
00000328 80ff0000*      1962 <EXPANSION END>
                        1963 --	    .ef
                        1964 .LDW66:
                        1965 --line742
                        1966 ..lin.ffc4db14..37e4d94f.0_100::
                        1967 .LDWlin100:
0000032c 40063f00       1968 	dispose	0,{r31},[lp]
                        1969 ..lin.ffc4db14..37e4d94f.0_101::
                        1970 .LDWlin101:
                        1971 	.type	_drome_returnViewControlToStateMachine,@function
                        1972 	.size	_drome_returnViewControlToStateMachine,.-_drome_returnViewControlToStateMachine
                        1973 	.align	2
                        1974 .LDW76:
                        1975 
                        1976 	.section ".bss","awb"
                        1977 .L1390:
                        1978 	.type	.L1390,@object
                        1979 	.size	.L1390,0
                        1980 	.data
                        1981 	.text
                        1982 
                        1983 --742: }
                        1984 
                        1985 --743: #endif
                        1986 --745: /**
                        1987 --746: **************************************************************************************
                        1988 --747: **
                        1989 --748: **   Function used to query the height of the specified public font.
                        1990 --749: **   See also drome_getPubFontCharData().
                        1991 --750: **
                        1992 --751: **    \return     Height (pels) or zero if font is not available.
                        1993 --752: **
                        1994 --753: **************************************************************************************
                        1995 --754: **/
                        1996 --755: #ifdef drome_CONF_USE_PUBLIC_OBJECTS
                        1997 --756: #if drome_GLIB_VARIANT != drome_GLIB_MONO
                        1998 --757:    #error "Public objects only available with GLIB variant == MONO!"
                        1999 --758: #endif
                        2000 --759: Public U16 drome_getPubFontHeight(
                        2001 --760:    U8 pub_font_id                      /**<[in] Public font id number */
                        2002 --761: )
                        2003 --762: {
                        2004 --763:    U16 height = 0;
                        2005 --764:    dr_FontId font_id;

                                                                      Page 36
                                                              C:\Users\minda\AppData\Local\Temp\gh_000031s1.si
                        2006 --766:    font_id = drgodbif_getFontIdOfPublicFont( pub_font_id );
                        2007 --767:    if (font_id)
                        2008 --768:    {
                        2009 --769:       height = drgodbif_getFontHeight( font_id );
                        2010 --770:    }
                        2011 --772:    return height;
                        2012 --773: }
                        2013 --774: #endif
                        2014 --776: /**
                        2015 --777: **************************************************************************************
                        2016 --778: **
                        2017 --779: **   Function used to retrieve meta data for a character of the specified public
                        2018 --780: **   font. See also drome_getPubFontHeight().
                        2019 --781: **
                        2020 --782: **    \return     TRUE  = Success. \n
                        2021 --783: **                FALSE = Font not found or error in data base.
                        2022 --784: **
                        2023 --785: **************************************************************************************
                        2024 --786: **/
                        2025 --787: #ifdef drome_CONF_USE_PUBLIC_OBJECTS
                        2026 --788: Public Boolean drome_getPubFontCharData(
                        2027 --789:    U8 pub_font_id,                     /**<[in] Public font id number */
                        2028 --790:    U32 char_code,                      /**<[in] Character code for requested character */
                        2029 --791:    drome_PubFontCharData * dest_ptr    /**<[out] Buffer where character meta data is stored */
                        2030 --792: )
                        2031 --793: {
                        2032 --794:    Boolean ret_val = FALSE;
                        2033 --796:    if (dest_ptr != NULL)
                        2034 --797:    {
                        2035 --798:       dr_FontId font_id;
                        2036 --800:       font_id = drgodbif_getFontIdOfPublicFont( pub_font_id );
                        2037 --801:       if (font_id)
                        2038 --802:       {
                        2039 --803:          U16 char_ix;
                        2040 --804:          const drgodbif_CharMetaData * meta_ptr;
                        2041 --806:          char_ix = drgodbif_getCharIndex( font_id, char_code );
                        2042 --807:          meta_ptr = drgodbif_getCharacterMetaData( font_id, char_ix );
                        2043 --808:          if (meta_ptr)
                        2044 --809:          {
                        2045 --810:             const U8 * bmp_ptr;
                        2046 --812:             bmp_ptr = drgodbif_getCharImageData( font_id, char_ix );
                        2047 --813:             if (bmp_ptr)
                        2048 --814:             {
                        2049 --815:                dest_ptr->char_width = meta_ptr->width;
                        2050 --816:                dest_ptr->top_offset = meta_ptr->offset;
                        2051 --817:                dest_ptr->char_height = meta_ptr->char_height;
                        2052 --818:                dest_ptr->bmp_ptr = bmp_ptr;
                        2053 --819:                ret_val = TRUE;
                        2054 --820:             }
                        2055 --821:          }
                        2056 --822:       }
                        2057 --823:    }
                        2058 --825:    return ret_val;
                        2059 --826: }
                        2060 --827: #endif
                        2061 --829: /**
                        2062 --830: **************************************************************************************
                        2063 --831: **
                        2064 --832: **   Function used to retrieve meta data for the specified public image.
                        2065 --833: **
                        2066 --834: **    \return     TRUE  = Success. \n

                                                                      Page 37
                                                              C:\Users\minda\AppData\Local\Temp\gh_000031s1.si
                        2067 --835: **                FALSE = Image not found or error in data base.
                        2068 --836: **
                        2069 --837: **************************************************************************************
                        2070 --838: **/
                        2071 --839: #ifdef drome_CONF_USE_PUBLIC_OBJECTS
                        2072 --840: Public Boolean drome_getPubImageData(
                        2073 --841:    U8 pub_image_id,                    /**<[in] Public image id number */
                        2074 --842:    drome_PubImageData * dest_ptr       /**<[out] Buffer where image meta-data is stored */
                        2075 --843: )
                        2076 --844: {
                        2077 --845:    Boolean ret_val = FALSE;
                        2078 --847:    if (dest_ptr != NULL)
                        2079 --848:    {
                        2080 --849:       dr_ImageId image_id;
                        2081 --851:       image_id = drgodbif_getImageIdOfPublicImage( pub_image_id );
                        2082 --852:       if (image_id)
                        2083 --853:       {
                        2084 --854:          const drgodbif_ImageMetaData * meta_ptr;
                        2085 --856:          meta_ptr = drgodbif_getImageMetaData( image_id );
                        2086 --857:          if (meta_ptr)
                        2087 --858:          {
                        2088 --859:             const U8 * bmp_ptr;
                        2089 --861:             bmp_ptr = drgodbif_getMonoImageData( image_id );
                        2090 --862:             if (bmp_ptr)
                        2091 --863:             {
                        2092 --864:                dest_ptr->img_width = meta_ptr->width;
                        2093 --865:                dest_ptr->img_height = meta_ptr->height;
                        2094 --866:                dest_ptr->bmp_ptr = bmp_ptr;
                        2095 --867:                ret_val = TRUE;
                        2096 --868:             }
                        2097 --869:          }
                        2098 --870:       }
                        2099 --871:    }
                        2100 --873:    return ret_val;
                        2101 --874: }
                        2102 --875: #endif
                        2103 --877: #if (drome_GLIB_VARIANT == drome_GLIB_DHD) || (drome_GLIB_VARIANT == drome_GLIB_OPENGL)
                        2104 --879: #ifdef drapp_DATS
                        2105 --880: Public drome_SetDispReadOutParamStat drome_setScreenAreaReadOut(
                        2106 --881: 		U16 x, /**<[in] TODO fill in .... */
                        2107 --882: 		U16 y, /**<[in] TODO fill in .... */
                        2108 --883: 		U16 dx, /**<[in] TODO fill in .... */
                        2109 --884: 		U16 dy, /**<[in] TODO fill in ....*/
                        2110 --885: 		drome_Colour * buffer_ptr /**<[in] TODO fill in .... */
                        2111 --886: )
                        2112 --887: {
                        2113 --888:    dr_Status status = drglif_setScreenAreaReadOut(x, y, dx, dy, buffer_ptr);
                        2114 --889: 	if( dr_ST_OK == status)
                        2115 --890: 	{
                        2116 --891: 	   return drome_SDROPS_OK;
                        2117 --892: 	}
                        2118 --893: 	else if(dr_ST_BAD_ARG == status)
                        2119 --894: 	{
                        2120 --895: 	   return drome_SDROPS_BAD_ARG;
                        2121 --896: 	}
                        2122 --897: 	else
                        2123 --898: 	{
                        2124 --899: 	   return drome_SDROPS_BAD_STATE;
                        2125 --900: 	}
                        2126 --901: }
                        2127 --902: Public drome_DispReadOutStat drome_doScreenAreaReadOut(void)

                                                                      Page 38
                                                              C:\Users\minda\AppData\Local\Temp\gh_000031s1.si
                        2128 --903: {
                        2129 --904:    if(drglif_isDispReadOutMode())
                        2130 --905:    {
                        2131 --906:       drome_CyclicStat status = drome_doCyclic();
                        2132 --907:       if((status == drome_CYCLIC_FINISHED) || (status == drome_CYCLIC_IDLE))
                        2133 --908:       {
                        2134 --909:          return drome_DROS_FINISHED;
                        2135 --910:       }
                        2136 --911:       else if(status == drome_CYCLIC_NOT_FINISHED)
                        2137 --912:       {
                        2138 --913:          return drome_DROS_NOT_FINISHED;
                        2139 --914:       }
                        2140 --915:       else
                        2141 --916:       {
                        2142 --917:          return drome_DROS_ERROR;
                        2143 --918:       }
                        2144 --919:    }
                        2145 --920:    return drome_DROS_BAD_STATE;
                        2146 --921: }
                        2147 --922: #endif
                        2148 --924: /**
                        2149 --925:  ** Drome stores up to drapp_FRAMERATE_BUFFER_SIZE measurements of how long time it took to draw
                        2150 --926:  ** a frame. This data is stored in an internal buffer. This function returns the max, min, and
                        2151 --927:  ** average values of the measured timed stored in that buffer.
                        2152 --928:  **
                        2153 --929:  ** To clear the measurement data, use method drome_clearFrameRateData().
                        2154 --930:  **
                        2155 --931:  */
                        2156 --932: Public void drome_getFrameRateData(drome_FrameRateData * data /**<[out] Measured framerate data  */)
                        2157 	.align	2
                        2158 	.align	2
                        2159 	.align	2
                        2160 ..gh.f.a.2.e.18:
                        2161 	.type	..gh.f.a.2.e.18,@object
                        2162 	.size	..gh.f.a.2.e.18,0
                        2163 	.global	_drome_getFrameRateData
                        2164 _drome_getFrameRateData:
00000330 80072100       2165 	prepare	{r31},0
                        2166 --	    .bf
                        2167 .LDW86:
                        2168 --933: {
                        2169 --934:    drframerate_getData(data);
                        2170 	jarl	_drframerate_getData,lp
                        2170 <EXPANSION BEGIN>
                        2170 jarl22 _drframerate_getData , lp 
00000334 80ff0000*      2170 <EXPANSION END>
                        2171 --935: }
                        2172 --	    .ef
                        2173 .LDW96:
                        2174 --line935
                        2175 ..lin.ffc4db14..7163836b.0_102::
                        2176 .LDWlin102:
00000338 40063f00       2177 	dispose	0,{r31},[lp]
                        2178 ..lin.ffc4db14..7163836b.0_103::
                        2179 .LDWlin103:
                        2180 	.type	_drome_getFrameRateData,@function
                        2181 	.size	_drome_getFrameRateData,.-_drome_getFrameRateData
                        2182 	.align	2
                        2183 .LDW07:
                        2184 
                        2185 --_data	r6	param

                                                                      Page 39
                                                              C:\Users\minda\AppData\Local\Temp\gh_000031s1.si
                        2186 
                        2187 	.section ".bss","awb"
                        2188 .L1426:
                        2189 	.type	.L1426,@object
                        2190 	.size	.L1426,0
                        2191 	.data
                        2192 	.text
                        2193 
                        2194 
                        2195 --937: /**
                        2196 --938:  ** This function clears the measurement data regarding the time it takes to render a new frame.
                        2197 --939:  */
                        2198 --940: Public void drome_clearFrameRateData(void)
                        2199 	.align	2
                        2200 	.align	2
                        2201 	.align	2
                        2202 ..gh.f.a.2.e.19:
                        2203 	.type	..gh.f.a.2.e.19,@object
                        2204 	.size	..gh.f.a.2.e.19,0
                        2205 	.global	_drome_clearFrameRateData
                        2206 _drome_clearFrameRateData:
0000033c 80072100       2207 	prepare	{r31},0
                        2208 --	    .bf
                        2209 .LDW17:
                        2210 --941: {
                        2211 --942:    drframerate_clearData();
                        2212 	jarl	_drframerate_clearData,lp
                        2212 <EXPANSION BEGIN>
                        2212 jarl22 _drframerate_clearData , lp 
00000340 80ff0000*      2212 <EXPANSION END>
                        2213 --943: }
                        2214 --	    .ef
                        2215 .LDW27:
                        2216 --line943
                        2217 ..lin.ffc4db14..c02f9f12.0_104::
                        2218 .LDWlin104:
00000344 40063f00       2219 	dispose	0,{r31},[lp]
                        2220 ..lin.ffc4db14..c02f9f12.0_105::
                        2221 .LDWlin105:
                        2222 	.type	_drome_clearFrameRateData,@function
                        2223 	.size	_drome_clearFrameRateData,.-_drome_clearFrameRateData
                        2224 	.align	2
                        2225 .LDW37:
                        2226 
                        2227 	.section ".bss","awb"
                        2228 .L1474:
                        2229 	.type	.L1474,@object
                        2230 	.size	.L1474,0
                        2231 	.data
                        2232 	.text
                        2233 
                        2234 
                        2235 --944: #endif
                        2236 --945: /**
                        2237 --946: *************************************************************************************
                        2238 --947: **
                        2239 --948: **   This function is used for enabling/disabling video in run-time.
                        2240 --949: **   Note that the parameter is set to TRUE if this function is not used  
                        2241 --950: **
                        2242 --951: **************************************************************************************
                        2243 --952: **/

                                                                      Page 40
                                                              C:\Users\minda\AppData\Local\Temp\gh_000031s1.si
                        2244 --953: #ifdef drome_CONF_WIDGET_VIDEO
                        2245 --954: Public void drome_enableVideo(
                        2246 	.align	2
                        2247 	.align	2
                        2248 	.align	2
                        2249 ..gh.f.a.2.e.20:
                        2250 	.type	..gh.f.a.2.e.20,@object
                        2251 	.size	..gh.f.a.2.e.20,0
                        2252 	.global	_drome_enableVideo
                        2253 _drome_enableVideo:
00000348 80072100       2254 	prepare	{r31},0
                        2255 --	    .bf
                        2256 .LDW47:
                        2257 --955:    Boolean videoEnable              /**<[in] FALSE = Video will not be initialized or drawn in the widget drawing loop */
                        2258 --956: )
                        2259 --957: {
                        2260 --958:     drwdif_enableVideo(videoEnable);
                        2261 	jarl	_drwdif_enableVideo,lp
                        2261 <EXPANSION BEGIN>
                        2261 jarl22 _drwdif_enableVideo , lp 
0000034c 80ff0000*      2261 <EXPANSION END>
                        2262 --959: }
                        2263 --	    .ef
                        2264 .LDW57:
                        2265 --line959
                        2266 ..lin.ffc4db14..60b70978.0_106::
                        2267 .LDWlin106:
00000350 40063f00       2268 	dispose	0,{r31},[lp]
                        2269 ..lin.ffc4db14..60b70978.0_107::
                        2270 .LDWlin107:
                        2271 	.type	_drome_enableVideo,@function
                        2272 	.size	_drome_enableVideo,.-_drome_enableVideo
                        2273 	.align	2
                        2274 .LDW67:
                        2275 
                        2276 --_videoEnable	r6	param
                        2277 
                        2278 	.section ".bss","awb"
                        2279 .L1522:
                        2280 	.type	.L1522,@object
                        2281 	.size	.L1522,0
                        2282 	.data
                        2283 	.text
                        2284 
                        2285 
                        2286 --960: #endif
                        2287 --962: /**
                        2288 --963: *************************************************************************************
                        2289 --964: **
                        2290 --965: **   This function is used for getting the view ID of the current displayed view
                        2291 --966: **
                        2292 --967: **************************************************************************************
                        2293 --968: **/
                        2294 --969: Public U32 drome_getCurrentViewKey( void )
                        2295 	.align	2
                        2296 	.align	2
                        2297 	.align	2
                        2298 ..gh.f.a.2.e.21:
                        2299 	.type	..gh.f.a.2.e.21,@object
                        2300 	.size	..gh.f.a.2.e.21,0
                        2301 	.global	_drome_getCurrentViewKey

                                                                      Page 41
                                                              C:\Users\minda\AppData\Local\Temp\gh_000031s1.si
                        2302 _drome_getCurrentViewKey:
00000354 80072100       2303 	prepare	{r31},0
                        2304 --	    .bf
                        2305 .LDW77:
                        2306 --970: {
                        2307 --971:     return drwdif_getCurrentView();
                        2308 	jarl	_drwdif_getCurrentView,lp
                        2308 <EXPANSION BEGIN>
                        2308 jarl22 _drwdif_getCurrentView , lp 
00000358 80ff0000*      2308 <EXPANSION END>
                        2309 --	    .ef
                        2310 .LDW87:
                        2311 --line972
                        2312 ..lin.ffc4db14..20a5661.0_108::
                        2313 .LDWlin108:
0000035c 40063f00       2314 	dispose	0,{r31},[lp]
                        2315 ..lin.ffc4db14..20a5661.0_109::
                        2316 .LDWlin109:
                        2317 	.type	_drome_getCurrentViewKey,@function
                        2318 	.size	_drome_getCurrentViewKey,.-_drome_getCurrentViewKey
                        2319 	.align	2
                        2320 .LDW97:
                        2321 
                        2322 	.section ".bss","awb"
                        2323 .L1566:
                        2324 	.type	.L1566,@object
                        2325 	.size	.L1566,0
                        2326 	.data
                        2327 	.text
                        2328 
                        2329 --972: }
                        2330 
                        2331 --974: /*
                        2332 --975: **=====================================================================================
                        2333 --976: ** Drome internal function definitions
                        2334 --977: **=====================================================================================
                        2335 --978: */
                        2336 --980: /**
                        2337 --981: **************************************************************************************
                        2338 --982: **
                        2339 --983: **   Called when drome has detected an error. \n
                        2340 --984: **   This function is a wrapper for the application callback function
                        2341 --985: **   drapp_DETECTED_DROME_ERROR(), see the documentation of this function for
                        2342 --986: **   further details. The purpose of the wrapper is to allow this module to set the
                        2343 --987: **   "fatal error" flag according to the reported errors.
                        2344 --988: **
                        2345 --989: **************************************************************************************
                        2346 --990: **/
                        2347 --991: Public void dr_wrapDetectedDromeError(
                        2348 	.align	2
                        2349 	.align	2
                        2350 	.align	2
                        2351 ..gh.f.a.2.e.22:
                        2352 	.type	..gh.f.a.2.e.22,@object
                        2353 	.size	..gh.f.a.2.e.22,0
                        2354 	.global	_dr_wrapDetectedDromeError
                        2355 _dr_wrapDetectedDromeError:
00000360 8007e100       2356 	prepare	{r28,r29,r31},0
00000364 3d0600000000*  2357 	mov	_drapp_DETECTED_DROME_ERROR,r29
                        2358 --	    .bf
                        2359 .LDW08:

                                                                      Page 42
                                                              C:\Users\minda\AppData\Local\Temp\gh_000031s1.si
                        2360 --992:    drome_ErrorCode error_code          /**<[in] The error code (drome_ERR_xxx) */
                        2361 --993: )
                        2362 --994: {
                        2363 --995:    if ((U32)error_code & (U32)drome_ERR__FATAL) {
                        2364 --line995
                        2365 ..lin.ffc4db14..1c0d28f6.0_110::
                        2366 .LDWlin110:
0000036a 0608           2367 	mov	r6,r1
0000036c 900a           2368 	shr	16,r1
0000036e f905*          2369 	bnl	.L1580
                        2370 --996:       priv_fatal_error_detected = TRUE;
                        2371 --line996
                        2372 ..lin.ffc4db14..1c0d28f6.0_111::
                        2373 .LDWlin111:
00000370 2b0600000000*  2374 	mov	_priv_fatal_error_detected,r11
00000376 010a           2375 	mov	1,r1
00000378 6b0f0100       2376 	st.w	r1,0[r11]
                        2377 .L1580:
                        2378 --997:    }
                        2379 --999:    if (NULL != drapp_DETECTED_DROME_ERROR)
                        2380 --line999
                        2381 ..lin.ffc4db14..1c0d28f6.0_112::
                        2382 .LDWlin112:
0000037c 3d0f0100       2383 	ld.w	0[r29],r1
00000380 e009           2384 	cmp	zero,r1
00000382 d205*          2385 	be	.L1578
                        2386 --1000:    {
                        2387 --1001:       drapp_DETECTED_DROME_ERROR(error_code);
                        2388 --line1001
                        2389 ..lin.ffc4db14..1c0d28f6.0_113::
                        2390 .LDWlin113:
00000384 3de70100       2391 	ld.w	0[r29],r28
00000388 fcc760f9       2392 	jarl	[r28],lp
                        2393 .L1578:
                        2394 --1002:    }
                        2395 --1003: }
                        2396 --	    .ef
                        2397 .LDW18:
                        2398 --line1003
                        2399 ..lin.ffc4db14..1c0d28f6.0_114::
                        2400 .LDWlin114:
0000038c 4006ff00       2401 	dispose	0,{r28,r29,r31},[lp]
                        2402 ..lin.ffc4db14..1c0d28f6.0_115::
                        2403 .LDWlin115:
                        2404 	.type	_dr_wrapDetectedDromeError,@function
                        2405 	.size	_dr_wrapDetectedDromeError,.-_dr_wrapDetectedDromeError
                        2406 	.align	2
                        2407 .LDW28:
                        2408 
                        2409 --_error_code	r6	param
                        2410 
                        2411 	.data
                        2412 	.text
                        2413 
                        2414 
                        2415 --1006: /**
                        2416 --1007: **************************************************************************************
                        2417 --1008: **
                        2418 --1009: **   Called when drome is just about to start render a new frame. \n
                        2419 --1010: **   This function is a wrapper for the application callback function
                        2420 --1011: **   drapp_SAFE_TO_UPDATE_GLOBAL_PROPERTIES(), see the documentation of this function for

                                                                      Page 43
                                                              C:\Users\minda\AppData\Local\Temp\gh_000031s1.si
                        2421 --1012: **   further details.
                        2422 --1013: **
                        2423 --1014: **************************************************************************************
                        2424 --1015: **/
                        2425 --1016: Public void dr_wrapSafeToUpdateGlobalProperties(drome_RedrawType redraw_type, Boolean* wait_for_property_update)
                        2426 	.align	2
                        2427 	.align	2
                        2428 	.align	2
                        2429 ..gh.f.a.2.e.23:
                        2430 	.type	..gh.f.a.2.e.23,@object
                        2431 	.size	..gh.f.a.2.e.23,0
                        2432 	.global	_dr_wrapSafeToUpdateGlobalProperties
                        2433 _dr_wrapSafeToUpdateGlobalProperties:
00000390 8007e100       2434 	prepare	{r28,r29,r31},0
00000394 07f0           2435 	mov	r7,ep
00000396 3d0600000000*  2436 	mov	_drapp_SAFE_TO_UPDATE_GLOBAL_PROPERTIES,r29
                        2437 --	    .bf
                        2438 .LDW38:
                        2439 --1017: {
                        2440 --1018:    if (drapp_SAFE_TO_UPDATE_GLOBAL_PROPERTIES != NULL)
                        2441 --line1018
                        2442 ..lin.ffc4db14..595251d6.0_116::
                        2443 .LDWlin116:
0000039c 3d0f0100       2444 	ld.w	0[r29],r1
000003a0 e009           2445 	cmp	zero,r1
000003a2 f205*          2446 	be	.L1632
                        2447 --1019:    {
                        2448 --1020:       drapp_SAFE_TO_UPDATE_GLOBAL_PROPERTIES(redraw_type, wait_for_property_update);
                        2449 --line1020
                        2450 ..lin.ffc4db14..595251d6.0_117::
                        2451 .LDWlin117:
000003a4 3de70100       2452 	ld.w	0[r29],r28
000003a8 1e38           2453 	mov	ep,r7
000003aa fcc760f9       2454 	jarl	[r28],lp
000003ae a505*          2455 	br	.L1630
                        2456 .L1632:
                        2457 --1021:    }
                        2458 --1022:    else
                        2459 --1023:    {
                        2460 --1024:       *wait_for_property_update = FALSE;
                        2461 --line1024
                        2462 ..lin.ffc4db14..595251d6.0_118::
                        2463 .LDWlin118:
000003b0 0105           2464 	sst.w	zero,0[ep]
                        2465 .L1630:
                        2466 --1025:    }
                        2467 --1026: }
                        2468 --	    .ef
                        2469 .LDW48:
000003b2 4006ff00       2470 	dispose	0,{r28,r29,r31},[lp]
                        2471 ..lin.ffc4db14..595251d6.0_119::
                        2472 .LDWlin119:
                        2473 	.type	_dr_wrapSafeToUpdateGlobalProperties,@function
                        2474 	.size	_dr_wrapSafeToUpdateGlobalProperties,.-_dr_wrapSafeToUpdateGlobalProperties
                        2475 	.align	2
                        2476 .LDW58:
                        2477 
                        2478 --_redraw_type	r6	param
                        2479 --_wait_for_property_update	ep	param
                        2480 
                        2481 	.section ".bss","awb"

                                                                      Page 44
                                                              C:\Users\minda\AppData\Local\Temp\gh_000031s1.si
                        2482 .L1670:
                        2483 	.type	.L1670,@object
                        2484 	.size	.L1670,0
                        2485 	.data
                        2486 	.text
                        2487 
                        2488 
                        2489 --1028: /**
                        2490 --1029: **************************************************************************************
                        2491 --1030: **
                        2492 --1031: **  Declarations of function pointers for the drapp callback interface. See drappif.h
                        2493 --1032: **  for details.
                        2494 --1033: **
                        2495 --1034: **************************************************************************************
                        2496 --1035: **/
                        2497 --1036: Public void (*drapp_DETECTED_DROME_ERROR) (drome_ErrorCode) = NULL;
                        2498 --1037: Public void (*drapp_DETECTED_CODE_ERROR) (U32,U32) = NULL;
                        2499 --1038: Public void (*drapp_GET_DP_VAL_AS_STRING) (U16,drome_DPStrFormat*,U16*,U16,U16) = NULL;
                        2500 --1039: Public void (*drapp_GET_DP_VAL_AS_NUMERIC) (U16,U32*,U16) = NULL;
                        2501 --1040: Public void (*drapp_SET_DP_VAL_AS_NUMERIC) (U16,U32,U16) = NULL;
                        2502 --1041: Public void (*drapp_LOAD_HISTORY_STATES) (U32*,U16) = NULL;
                        2503 --1042: Public void (*drapp_SAVE_HISTORY_STATES) (const U32*,U16) = NULL;
                        2504 --1043: Public U32 (*drapp_GET_TIME_IN_US) (void) = NULL;
                        2505 --1044: Public U32 (*drapp_GET_TIME_IN_MS) (void) = NULL;
                        2506 --1045: Public U32 (*drapp_GET_USER_CONFIG_CHECKSUM)(void) = NULL;
                        2507 --1046: Public void (*drapp_SEND_EVENT_TO_APPLICATION) (U32) = NULL;
                        2508 --1047: Public U32 (*drapp_GET_NULL_EVENT)(void) = NULL;
                        2509 --1048: Public U32 (*drapp_GET_LAST_IN_EVENT)(void) = NULL;
                        2510 --1049: Public U32 (*drapp_GET_MAX_EVENTS)(void) = NULL;
                        2511 --1050: Public void (*drapp_SAFE_TO_UPDATE_GLOBAL_PROPERTIES)(drome_RedrawType, Boolean*) = NULL;
                        2512 --1052: #ifdef drome_CONF_WIDGET_BARGRAPH
                        2513 --1053: Public void (*drapp_GET_DP_VAL_MAX_VAL) (U16,U32*,U16) = NULL;
                        2514 --1054: #endif
                        2515 --1056: #if drome_GLIB_VARIANT == drome_GLIB_DHD
                        2516 --1057: #ifndef drapp_DISPLAY_TYPE
                        2517 --1058: Public const r_ddb_Timing_t* (*drapp_GET_DISP_PARAMS)(void) = NULL;
                        2518 --1059: #endif
                        2519 --1060: #endif
                        2520 --1062: #ifdef drome_CONF_USE_EXTERNAL_TEXTS
                        2521 --1063: Public void (*drapp_GET_EXTERNAL_TEXT) (U16,U16*,U16, U16) = NULL;
                        2522 --1064: #endif
                        2523 --1066: #ifdef drome_CONF_WIDGET_COMPLEX_TELLTALE
                        2524 --1067: Public void (*drapp_GET_CTT_VALUE_VECTOR) (const void *,void*,U16,U16) = NULL;
                        2525 --1068: #endif
                        2526 --1070: #if (drome_GLIB_VARIANT == drome_GLIB_MONO) || (drome_GLIB_VARIANT == drome_GLIB_OPENGL)
                        2527 --1071: Public void (*drapp_DISP_UPDATE)(const U8* image_ptr) = NULL;
                        2528 --1072: #endif
                        2529 --1074: #ifdef drome_CONF_WIDGET_VIDEO
                        2530 --1075: Public Boolean (*drapp_I2C_OPENIF)(void) = NULL;
                        2531 --1076: Public void (*drapp_I2C_CLOSEIF)(void) = NULL;
                        2532 --1077: Public Boolean (*drapp_I2C_WRITESTART)(U8 adr, const U8* txbuf, U16 txnum) = NULL;
                        2533 --1078: Public Boolean (*drapp_I2C_READSTART)(U8 adr, const U8* txbuf, U16 txnum, U8* rxbuf, U16 rxnum) = NULL;
                        2534 --1079: Public void (*drapp_I2C_ISSUESTOP)(void) = NULL;
                        2535 --1080: Public Boolean (*drapp_GET_SCALED_VIDEO_SIZE)(U8, U16*,U16*) = NULL;
                        2536 --1081: #endif
                        2537 --1083: /*
                        2538 --1084: **=====================================================================================
                        2539 --1085: ** Private function definitions
                        2540 --1086: **=====================================================================================
                        2541 --1087: */
                        2542 --1089: /**

                                                                      Page 45
                                                              C:\Users\minda\AppData\Local\Temp\gh_000031s1.si
                        2543 --1090: **************************************************************************************
                        2544 --1091: **
                        2545 --1092: **   Called to initialize the drapp callback interface.
                        2546 --1093: **
                        2547 --1094: **************************************************************************************
                        2548 --1095: **/
                        2549 --1096: Private void initDrappCallbacks(
                        2550 	.align	2
                        2551 	.align	2
                        2552 	.align	2
                        2553 ..gh.f.a.2.e.24:
                        2554 	.type	..gh.f.a.2.e.24,@object
                        2555 	.size	..gh.f.a.2.e.24,0
                        2556 	.global	_initDrappCallbacks..E.3A.5CMahindra.20Repo.5CM.26M.20branches.5C4.2E4.2EW501.5C4.2ESoftware_Code.5C4.2E1.2ESoftware_Source_Code.5Cvlib_v1.2E8.5Capp.5Cgfx_apps.5CW501.5Ctarget.5Cobj.5Cdrome.
                        2557 _initDrappCallbacks..E.3A.5CMahindra.20Repo.5CM.26M.20branches.5C4.2E4.2EW501.5C4.2ESoftware_Code.5C4.2E1.2ESoftware_Source_Code.5Cvlib_v1.2E8.5Capp.5Cgfx_apps.5CW501.5Ctarget.5Cobj.5Cdrome.:
                        2558 _initDrappCallbacks:
000003b6 80076100       2559 	prepare	{r29,r31},0
000003ba 06e8           2560 	mov	r6,r29
                        2561 --	    .bf
                        2562 .LDW68:
                        2563 --1097:    drome_CallbackFunctPtrs* callbacks_ptr
                        2564 --1098: )
                        2565 --1099: {
                        2566 --1100:    U32 i;
                        2567 --1101:    void ** p = (void **)&callbacks_ptr->detectedDromeError;
000003bc 1df0           2568 	mov	r29,ep
                        2569 --1102:    Boolean pointer_error = FALSE;
000003be 0072           2570 	mov	0,r14
                        2571 --1104:    /* Map the error handler function first just in case any of the
                        2572 --1105:     * other functions are NULL and we need to report an error.
                        2573 --1106:     * The error function is checked against the NULL pointer in
                        2574 --1107:     * dr_wrapDetectedDromeError().
                        2575 --1108:     */
                        2576 --1109:    drapp_DETECTED_DROME_ERROR = callbacks_ptr->detectedDromeError;
000003c0 3d0f0100       2577 	ld.w	0[r29],r1
000003c4 2b0600000000*  2578 	mov	_drapp_DETECTED_DROME_ERROR,r11
000003ca 6b0f0100       2579 	st.w	r1,0[r11]
                        2580 --1111:    /* Sanity check input parameters */
                        2581 --1112:    for (i = 0; i < ((sizeof(drome_CallbackFunctPtrs)/sizeof(void*)) - NO_OPTIONAL_CALLBACKS);i++)
                        2582 --line1112
                        2583 ..lin.ffc4db14..d0682def.0_120::
                        2584 .LDWlin120:
000003ce 000a           2585 	mov	0,r1
                        2586 .L1692:
                        2587 --1113:    {
                        2588 --1114:       if (NULL == *p)
000003d0 006d           2589 	sld.w	0[ep],r13
000003d2 e069           2590 	cmp	zero,r13
000003d4 aa05*          2591 	bne	.L1693
                        2592 --1115:       {
                        2593 --1116:          pointer_error = TRUE;
                        2594 --line1116
                        2595 ..lin.ffc4db14..d0682def.0_121::
                        2596 .LDWlin121:
000003d6 0172           2597 	mov	1,r14
                        2598 .L1693:
                        2599 --1117:       }
                        2600 --1118:       p++;
000003d8 44f2           2601 	add	4,ep
000003da 410a           2602 	add	1,r1
000003dc 660a           2603 	cmp	6,r1

                                                                      Page 46
                                                              C:\Users\minda\AppData\Local\Temp\gh_000031s1.si
000003de 91fd*          2604 	bl	.L1692
                        2605 --1119:    }
                        2606 --1121:    if (pointer_error)
                        2607 --line1121
                        2608 ..lin.ffc4db14..d0682def.0_122::
                        2609 .LDWlin122:
000003e0 e071           2610 	cmp	zero,r14
000003e2 d205*          2611 	be	.L1695
                        2612 --1122:    {
                        2613 --1123:       dr_wrapDetectedDromeError(drome_ERR_INVALID_CALLBACK_FUNCTION);
                        2614 --line1123
                        2615 ..lin.ffc4db14..d0682def.0_123::
                        2616 .LDWlin123:
000003e4 80361f80       2617 	ori	32799,zero,r6
                        2618 	jarl	_dr_wrapDetectedDromeError,lp
                        2618 <EXPANSION BEGIN>
                        2618 jarl22 _dr_wrapDetectedDromeError , lp 
000003e8 bfff78ff*      2618 <EXPANSION END>
                        2619 .L1695:
                        2620 --1124:    }
                        2621 --1126:    /* Map the remaining function pointers */
                        2622 --1127:    drapp_DETECTED_CODE_ERROR        = callbacks_ptr->detectedCodeError;
                        2623 --line1127
                        2624 ..lin.ffc4db14..d0682def.0_124::
                        2625 .LDWlin124:
000003ec 3d0f0500       2626 	ld.w	4[r29],r1
000003f0 2b0600000000*  2627 	mov	_drapp_DETECTED_CODE_ERROR,r11
000003f6 6b0f0100       2628 	st.w	r1,0[r11]
                        2629 --1128:    drapp_GET_DP_VAL_AS_STRING       = callbacks_ptr->getDPValAsString;
                        2630 --line1128
                        2631 ..lin.ffc4db14..d0682def.0_125::
                        2632 .LDWlin125:
000003fa 3d0f1100       2633 	ld.w	16[r29],r1
000003fe 2b0600000000*  2634 	mov	_drapp_GET_DP_VAL_AS_STRING,r11
00000404 6b0f0100       2635 	st.w	r1,0[r11]
                        2636 --1129:    drapp_SET_DP_VAL_AS_NUMERIC      = callbacks_ptr->setDPValAsNumeric;
                        2637 --line1129
                        2638 ..lin.ffc4db14..d0682def.0_126::
                        2639 .LDWlin126:
00000408 3d0f0900       2640 	ld.w	8[r29],r1
0000040c 2b0600000000*  2641 	mov	_drapp_SET_DP_VAL_AS_NUMERIC,r11
00000412 6b0f0100       2642 	st.w	r1,0[r11]
                        2643 --1130:    drapp_GET_DP_VAL_AS_NUMERIC      = callbacks_ptr->getDPValAsNumeric;
                        2644 --line1130
                        2645 ..lin.ffc4db14..d0682def.0_127::
                        2646 .LDWlin127:
00000416 3d0f0d00       2647 	ld.w	12[r29],r1
0000041a 2b0600000000*  2648 	mov	_drapp_GET_DP_VAL_AS_NUMERIC,r11
00000420 6b0f0100       2649 	st.w	r1,0[r11]
                        2650 --1131:    drapp_GET_TIME_IN_US             = callbacks_ptr->getTimeInUs;
                        2651 --line1131
                        2652 ..lin.ffc4db14..d0682def.0_128::
                        2653 .LDWlin128:
00000424 3d0f1500       2654 	ld.w	20[r29],r1
00000428 2b0600000000*  2655 	mov	_drapp_GET_TIME_IN_US,r11
0000042e 6b0f0100       2656 	st.w	r1,0[r11]
                        2657 --1132:    drapp_GET_TIME_IN_MS             = callbacks_ptr->getTimeInMs;
                        2658 --line1132
                        2659 ..lin.ffc4db14..d0682def.0_129::
                        2660 .LDWlin129:
00000432 3d0f1900       2661 	ld.w	24[r29],r1

                                                                      Page 47
                                                              C:\Users\minda\AppData\Local\Temp\gh_000031s1.si
00000436 2b0600000000*  2662 	mov	_drapp_GET_TIME_IN_MS,r11
0000043c 6b0f0100       2663 	st.w	r1,0[r11]
                        2664 --1133:    drapp_GET_USER_CONFIG_CHECKSUM   = callbacks_ptr->getUserConfChecksum;
                        2665 --line1133
                        2666 ..lin.ffc4db14..d0682def.0_130::
                        2667 .LDWlin130:
00000440 3d0f1d00       2668 	ld.w	28[r29],r1
00000444 2b0600000000*  2669 	mov	_drapp_GET_USER_CONFIG_CHECKSUM,r11
0000044a 6b0f0100       2670 	st.w	r1,0[r11]
                        2671 --1134:    drapp_SAFE_TO_UPDATE_GLOBAL_PROPERTIES = callbacks_ptr->safeToUpdateGlobalProperties;
                        2672 --line1134
                        2673 ..lin.ffc4db14..d0682def.0_131::
                        2674 .LDWlin131:
0000044e 3d0f6500       2675 	ld.w	100[r29],r1
00000452 2b0600000000*  2676 	mov	_drapp_SAFE_TO_UPDATE_GLOBAL_PROPERTIES,r11
00000458 6b0f0100       2677 	st.w	r1,0[r11]
                        2678 --1136: #ifdef drome_CONF_WIDGET_BARGRAPH
                        2679 --1137:    if (NULL != callbacks_ptr->getDPValMaxValue)
                        2680 --line1137
                        2681 ..lin.ffc4db14..d0682def.0_132::
                        2682 .LDWlin132:
0000045c 3d0f3900       2683 	ld.w	56[r29],r1
00000460 e009           2684 	cmp	zero,r1
00000462 920d*          2685 	be	.L1697
                        2686 --1138:    {
                        2687 --1139:       drapp_GET_DP_VAL_MAX_VAL = callbacks_ptr->getDPValMaxValue;
                        2688 --line1139
                        2689 ..lin.ffc4db14..d0682def.0_133::
                        2690 .LDWlin133:
00000464 3d0f3900       2691 	ld.w	56[r29],r1
00000468 2b0600000000*  2692 	mov	_drapp_GET_DP_VAL_MAX_VAL,r11
0000046e 6b0f0100       2693 	st.w	r1,0[r11]
00000472 d505*          2694 	br	.L1699
                        2695 .L1697:
                        2696 --1140:    }
                        2697 --1141:    else
                        2698 --1142:    {
                        2699 --1143:       dr_wrapDetectedDromeError(drome_ERR_INVALID_CALLBACK_FUNCTION);
                        2700 --line1143
                        2701 ..lin.ffc4db14..d0682def.0_134::
                        2702 .LDWlin134:
00000474 80361f80       2703 	ori	32799,zero,r6
                        2704 	jarl	_dr_wrapDetectedDromeError,lp
                        2704 <EXPANSION BEGIN>
                        2704 jarl22 _dr_wrapDetectedDromeError , lp 
00000478 bfffe8fe*      2704 <EXPANSION END>
                        2705 .L1699:
                        2706 --1144:    }
                        2707 --1145: #endif
                        2708 --1147: #if drome_GLIB_VARIANT == drome_GLIB_DHD
                        2709 --1148: #ifndef drapp_DISPLAY_TYPE
                        2710 --1149:    if (NULL != callbacks_ptr->getDisplayParams)
                        2711 --line1149
                        2712 ..lin.ffc4db14..d0682def.0_135::
                        2713 .LDWlin135:
0000047c 3d0f3d00       2714 	ld.w	60[r29],r1
00000480 e009           2715 	cmp	zero,r1
00000482 920d*          2716 	be	.L1700
                        2717 --1150:    {
                        2718 --1151:       drapp_GET_DISP_PARAMS = callbacks_ptr->getDisplayParams;
                        2719 --line1151

                                                                      Page 48
                                                              C:\Users\minda\AppData\Local\Temp\gh_000031s1.si
                        2720 ..lin.ffc4db14..d0682def.0_136::
                        2721 .LDWlin136:
00000484 3d0f3d00       2722 	ld.w	60[r29],r1
00000488 2b0600000000*  2723 	mov	_drapp_GET_DISP_PARAMS,r11
0000048e 6b0f0100       2724 	st.w	r1,0[r11]
00000492 d505*          2725 	br	.L1702
                        2726 .L1700:
                        2727 --1152:    }
                        2728 --1153:    else
                        2729 --1154:    {
                        2730 --1155:       dr_wrapDetectedDromeError(drome_ERR_INVALID_CALLBACK_FUNCTION);
                        2731 --line1155
                        2732 ..lin.ffc4db14..d0682def.0_137::
                        2733 .LDWlin137:
00000494 80361f80       2734 	ori	32799,zero,r6
                        2735 	jarl	_dr_wrapDetectedDromeError,lp
                        2735 <EXPANSION BEGIN>
                        2735 jarl22 _dr_wrapDetectedDromeError , lp 
00000498 bfffc8fe*      2735 <EXPANSION END>
                        2736 .L1702:
                        2737 --1156:    }
                        2738 --1157: #endif
                        2739 --1158: #endif
                        2740 --1160: #ifdef drome_CONF_USE_EXTERNAL_TEXTS
                        2741 --1161:    if (NULL != callbacks_ptr->getExternalText)
                        2742 --1162:    {
                        2743 --1163:       drapp_GET_EXTERNAL_TEXT = callbacks_ptr->getExternalText;
                        2744 --1164:    }
                        2745 --1165:    else
                        2746 --1166:    {
                        2747 --1167:       dr_wrapDetectedDromeError(drome_ERR_INVALID_CALLBACK_FUNCTION);
                        2748 --1168:    }
                        2749 --1169: #endif
                        2750 --1171: #ifdef drome_CONF_WIDGET_COMPLEX_TELLTALE
                        2751 --1172:    if (NULL != callbacks_ptr->getCTTValueVector)
                        2752 --1173:    {
                        2753 --1174:       drapp_GET_CTT_VALUE_VECTOR = callbacks_ptr->getCTTValueVector;
                        2754 --1175:    }
                        2755 --1176:    else
                        2756 --1177:    {
                        2757 --1178:       dr_wrapDetectedDromeError(drome_ERR_INVALID_CALLBACK_FUNCTION);
                        2758 --1179:    }
                        2759 --1180: #endif
                        2760 --1182: #if drome_GLIB_VARIANT == drome_GLIB_MONO || drome_GLIB_VARIANT == drome_GLIB_OPENGL
                        2761 --1183:    if (NULL != callbacks_ptr->updateDisplay)
                        2762 --1184:    {
                        2763 --1185:       drapp_DISP_UPDATE = callbacks_ptr->updateDisplay;
                        2764 --1186:    }
                        2765 --1187:    else
                        2766 --1188:    {
                        2767 --1189:       dr_wrapDetectedDromeError(drome_ERR_INVALID_CALLBACK_FUNCTION);
                        2768 --1190:    }
                        2769 --1191: #endif
                        2770 --1193: #ifdef drome_CONF_USE_SM_AND_EVENTS
                        2771 --1194:    if ((NULL == callbacks_ptr->sendEventToApplication)
                        2772 --line1194
                        2773 ..lin.ffc4db14..d0682def.0_138::
                        2774 .LDWlin138:
0000049c 3d0f2900       2775 	ld.w	40[r29],r1
000004a0 e009           2776 	cmp	zero,r1
000004a2 d20d*          2777 	be	.L1704

                                                                      Page 49
                                                              C:\Users\minda\AppData\Local\Temp\gh_000031s1.si
000004a4 3d0f2d00       2778 	ld.w	44[r29],r1
000004a8 e009           2779 	cmp	zero,r1
000004aa 920d*          2780 	be	.L1704
000004ac 3d0f3100       2781 	ld.w	48[r29],r1
000004b0 e009           2782 	cmp	zero,r1
000004b2 d205*          2783 	be	.L1704
000004b4 3d0f3500       2784 	ld.w	52[r29],r1
000004b8 e009           2785 	cmp	zero,r1
000004ba ea05*          2786 	bne	.L1703
                        2787 .L1704:
                        2788 --1195:        || (NULL == callbacks_ptr->getNullEvent)
                        2789 --1196:        || (NULL == callbacks_ptr->getLastInEvent)
                        2790 --1197:        || (NULL == callbacks_ptr->getMaxEvents))
                        2791 --1198:    {
                        2792 --1199:       dr_wrapDetectedDromeError(drome_ERR_INVALID_CALLBACK_FUNCTION);
                        2793 --line1199
                        2794 ..lin.ffc4db14..d0682def.0_139::
                        2795 .LDWlin139:
000004bc 80361f80       2796 	ori	32799,zero,r6
                        2797 	jarl	_dr_wrapDetectedDromeError,lp
                        2797 <EXPANSION BEGIN>
                        2797 jarl22 _dr_wrapDetectedDromeError , lp 
000004c0 bfffa0fe*      2797 <EXPANSION END>
000004c4 d51d*          2798 	br	.L1708
                        2799 .L1703:
                        2800 --1200:    }
                        2801 --1201:    else
                        2802 --1202:    {
                        2803 --1203:       drapp_SEND_EVENT_TO_APPLICATION = callbacks_ptr->sendEventToApplication;
                        2804 --line1203
                        2805 ..lin.ffc4db14..d0682def.0_140::
                        2806 .LDWlin140:
000004c6 3d0f2900       2807 	ld.w	40[r29],r1
000004ca 2b0600000000*  2808 	mov	_drapp_SEND_EVENT_TO_APPLICATION,r11
000004d0 6b0f0100       2809 	st.w	r1,0[r11]
                        2810 --1204:       drapp_GET_NULL_EVENT = callbacks_ptr->getNullEvent;
                        2811 --line1204
                        2812 ..lin.ffc4db14..d0682def.0_141::
                        2813 .LDWlin141:
000004d4 3d0f2d00       2814 	ld.w	44[r29],r1
000004d8 2b0600000000*  2815 	mov	_drapp_GET_NULL_EVENT,r11
000004de 6b0f0100       2816 	st.w	r1,0[r11]
                        2817 --1205:       drapp_GET_LAST_IN_EVENT = callbacks_ptr->getLastInEvent;
                        2818 --line1205
                        2819 ..lin.ffc4db14..d0682def.0_142::
                        2820 .LDWlin142:
000004e2 3d0f3100       2821 	ld.w	48[r29],r1
000004e6 2b0600000000*  2822 	mov	_drapp_GET_LAST_IN_EVENT,r11
000004ec 6b0f0100       2823 	st.w	r1,0[r11]
                        2824 --1206:       drapp_GET_MAX_EVENTS = callbacks_ptr->getMaxEvents;
                        2825 --line1206
                        2826 ..lin.ffc4db14..d0682def.0_143::
                        2827 .LDWlin143:
000004f0 3d0f3500       2828 	ld.w	52[r29],r1
000004f4 2b0600000000*  2829 	mov	_drapp_GET_MAX_EVENTS,r11
000004fa 6b0f0100       2830 	st.w	r1,0[r11]
                        2831 .L1708:
                        2832 --1207:    }
                        2833 --1208: #endif
                        2834 --1210: #if drome_MAX_NO_OF_HISTORY_STATES > 0
                        2835 --1211:    if ((NULL == callbacks_ptr->loadHistoryStates)

                                                                      Page 50
                                                              C:\Users\minda\AppData\Local\Temp\gh_000031s1.si
                        2836 --line1211
                        2837 ..lin.ffc4db14..d0682def.0_144::
                        2838 .LDWlin144:
000004fe 3d0f2100       2839 	ld.w	32[r29],r1
00000502 e009           2840 	cmp	zero,r1
00000504 d205*          2841 	be	.L1710
00000506 3d0f2500       2842 	ld.w	36[r29],r1
0000050a e009           2843 	cmp	zero,r1
0000050c ea05*          2844 	bne	.L1709
                        2845 .L1710:
                        2846 --1212:        || (NULL == callbacks_ptr->saveHistoryStates))
                        2847 --1213:    {
                        2848 --1214:       dr_wrapDetectedDromeError(drome_ERR_INVALID_CALLBACK_FUNCTION);
                        2849 --line1214
                        2850 ..lin.ffc4db14..d0682def.0_145::
                        2851 .LDWlin145:
0000050e 80361f80       2852 	ori	32799,zero,r6
                        2853 	jarl	_dr_wrapDetectedDromeError,lp
                        2853 <EXPANSION BEGIN>
                        2853 jarl22 _dr_wrapDetectedDromeError , lp 
00000512 bfff4efe*      2853 <EXPANSION END>
00000516 f50d*          2854 	br	.L1712
                        2855 .L1709:
                        2856 --1215:    }
                        2857 --1216:    else
                        2858 --1217:    {
                        2859 --1218:       drapp_LOAD_HISTORY_STATES = callbacks_ptr->loadHistoryStates;
                        2860 --line1218
                        2861 ..lin.ffc4db14..d0682def.0_146::
                        2862 .LDWlin146:
00000518 3d0f2100       2863 	ld.w	32[r29],r1
0000051c 2b0600000000*  2864 	mov	_drapp_LOAD_HISTORY_STATES,r11
00000522 6b0f0100       2865 	st.w	r1,0[r11]
                        2866 --1219:       drapp_SAVE_HISTORY_STATES = callbacks_ptr->saveHistoryStates;
                        2867 --line1219
                        2868 ..lin.ffc4db14..d0682def.0_147::
                        2869 .LDWlin147:
00000526 3d0f2500       2870 	ld.w	36[r29],r1
0000052a 2b0600000000*  2871 	mov	_drapp_SAVE_HISTORY_STATES,r11
00000530 6b0f0100       2872 	st.w	r1,0[r11]
                        2873 .L1712:
                        2874 --1220:    }
                        2875 --1221: #endif
                        2876 --1223: #ifdef drome_CONF_WIDGET_VIDEO
                        2877 --1224:    if ((NULL == callbacks_ptr->i2cOpen)
                        2878 --line1224
                        2879 ..lin.ffc4db14..d0682def.0_148::
                        2880 .LDWlin148:
00000534 3d0f4d00       2881 	ld.w	76[r29],r1
00000538 e009           2882 	cmp	zero,r1
0000053a d215*          2883 	be	.L1714
0000053c 3d0f5100       2884 	ld.w	80[r29],r1
00000540 e009           2885 	cmp	zero,r1
00000542 9215*          2886 	be	.L1714
00000544 3d0f5500       2887 	ld.w	84[r29],r1
00000548 e009           2888 	cmp	zero,r1
0000054a d20d*          2889 	be	.L1714
0000054c 3d0f5900       2890 	ld.w	88[r29],r1
00000550 e009           2891 	cmp	zero,r1
00000552 920d*          2892 	be	.L1714
00000554 3d0f5d00       2893 	ld.w	92[r29],r1

                                                                      Page 51
                                                              C:\Users\minda\AppData\Local\Temp\gh_000031s1.si
00000558 e009           2894 	cmp	zero,r1
0000055a d205*          2895 	be	.L1714
0000055c 3d0f6100       2896 	ld.w	96[r29],r1
00000560 e009           2897 	cmp	zero,r1
00000562 ea05*          2898 	bne	.L1713
                        2899 .L1714:
                        2900 --1225:        || (NULL == callbacks_ptr->i2cClose)
                        2901 --1226:        || (NULL == callbacks_ptr->i2cWriteStart)
                        2902 --1227:        || (NULL == callbacks_ptr->i2cReadStart)
                        2903 --1228:        || (NULL == callbacks_ptr->i2cIssueStop)
                        2904 --1229:        || (NULL == callbacks_ptr->getScaledVideoSize))
                        2905 --1230:    {
                        2906 --1231:       dr_wrapDetectedDromeError(drome_ERR_INVALID_CALLBACK_FUNCTION);
                        2907 --line1231
                        2908 ..lin.ffc4db14..d0682def.0_149::
                        2909 .LDWlin149:
00000564 80361f80       2910 	ori	32799,zero,r6
                        2911 	jarl	_dr_wrapDetectedDromeError,lp
                        2911 <EXPANSION BEGIN>
                        2911 jarl22 _dr_wrapDetectedDromeError , lp 
00000568 bffff8fd*      2911 <EXPANSION END>
0000056c b52d*          2912 	br	.L1688
                        2913 .L1713:
                        2914 --1232:    }
                        2915 --1233:    else
                        2916 --1234:    {
                        2917 --1235:       drapp_I2C_OPENIF = callbacks_ptr->i2cOpen;
                        2918 --line1235
                        2919 ..lin.ffc4db14..d0682def.0_150::
                        2920 .LDWlin150:
0000056e 3d0f4d00       2921 	ld.w	76[r29],r1
00000572 2b0600000000*  2922 	mov	_drapp_I2C_OPENIF,r11
00000578 6b0f0100       2923 	st.w	r1,0[r11]
                        2924 --1236:       drapp_I2C_CLOSEIF = callbacks_ptr->i2cClose;
                        2925 --line1236
                        2926 ..lin.ffc4db14..d0682def.0_151::
                        2927 .LDWlin151:
0000057c 3d0f5100       2928 	ld.w	80[r29],r1
00000580 2b0600000000*  2929 	mov	_drapp_I2C_CLOSEIF,r11
00000586 6b0f0100       2930 	st.w	r1,0[r11]
                        2931 --1237:       drapp_I2C_WRITESTART = callbacks_ptr->i2cWriteStart;
                        2932 --line1237
                        2933 ..lin.ffc4db14..d0682def.0_152::
                        2934 .LDWlin152:
0000058a 3d0f5500       2935 	ld.w	84[r29],r1
0000058e 2b0600000000*  2936 	mov	_drapp_I2C_WRITESTART,r11
00000594 6b0f0100       2937 	st.w	r1,0[r11]
                        2938 --1238:       drapp_I2C_READSTART = callbacks_ptr->i2cReadStart;
                        2939 --line1238
                        2940 ..lin.ffc4db14..d0682def.0_153::
                        2941 .LDWlin153:
00000598 3d0f5900       2942 	ld.w	88[r29],r1
0000059c 2b0600000000*  2943 	mov	_drapp_I2C_READSTART,r11
000005a2 6b0f0100       2944 	st.w	r1,0[r11]
                        2945 --1239:       drapp_I2C_ISSUESTOP = callbacks_ptr->i2cIssueStop;
                        2946 --line1239
                        2947 ..lin.ffc4db14..d0682def.0_154::
                        2948 .LDWlin154:
000005a6 3d0f5d00       2949 	ld.w	92[r29],r1
000005aa 2b0600000000*  2950 	mov	_drapp_I2C_ISSUESTOP,r11
000005b0 6b0f0100       2951 	st.w	r1,0[r11]

                                                                      Page 52
                                                              C:\Users\minda\AppData\Local\Temp\gh_000031s1.si
                        2952 --1240:       drapp_GET_SCALED_VIDEO_SIZE = callbacks_ptr->getScaledVideoSize;
                        2953 --line1240
                        2954 ..lin.ffc4db14..d0682def.0_155::
                        2955 .LDWlin155:
000005b4 3d0f6100       2956 	ld.w	96[r29],r1
000005b8 2b0600000000*  2957 	mov	_drapp_GET_SCALED_VIDEO_SIZE,r11
000005be 6b0f0100       2958 	st.w	r1,0[r11]
                        2959 .L1688:
                        2960 --1241:    }
                        2961 --1242: #endif
                        2962 --1243: }
                        2963 --	    .ef
                        2964 .LDW78:
                        2965 --line1243
                        2966 ..lin.ffc4db14..d0682def.0_156::
                        2967 .LDWlin156:
000005c2 40067f00       2968 	dispose	0,{r29,r31},[lp]
                        2969 ..lin.ffc4db14..d0682def.0_157::
                        2970 .LDWlin157:
                        2971 	.type	_initDrappCallbacks,@function
                        2972 	.size	_initDrappCallbacks,.-_initDrappCallbacks
                        2973 	.type	_initDrappCallbacks..E.3A.5CMahindra.20Repo.5CM.26M.20branches.5C4.2E4.2EW501.5C4.2ESoftware_Code.5C4.2E1.2ESoftware_Source_Code.5Cvlib_v1.2E8.5Capp.5Cgfx_apps.5CW501.5Ctarget.5Cobj.5Cdrome.,@function
                        2974 	.size	_initDrappCallbacks..E.3A.5CMahindra.20Repo.5CM.26M.20branches.5C4.2E4.2EW501.5C4.2ESoftware_Code.5C4.2E1.2ESoftware_Source_Code.5Cvlib_v1.2E8.5Capp.5Cgfx_apps.5CW501.5Ctarget.5Cobj.5Cdrome.,.-_initDrappCallbacks..E.3A.5CMahindra.20Repo.5CM.26M.20branches.5C4.2E4.2EW501.5C4.2ESoftware_Code.5C4.2E1.2ESoftware_Source_Code.5Cvlib_v1.2E8.5Capp.5Cgfx_apps.5CW501.5Ctarget.5Cobj.5Cdrome.
                        2975 	.align	2
                        2976 .LDW88:
                        2977 --_i	r1	local
                        2978 --_p	ep	local
                        2979 --_pointer_error	r14	local
                        2980 
                        2981 --_callbacks_ptr	r29	param
                        2982 
                        2983 	.section ".bss","awb"
                        2984 .L1946:
                        2985 	.type	.L1946,@object
                        2986 	.size	.L1946,0
                        2987 	.data
                        2988 	.text
                        2989 
                        2990 	.align	2
                        2991 --_priv_dromelib_ver	_priv_dromelib_ver	static
                        2992 --_priv_shutdown_state	_priv_shutdown_state	static
                        2993 --_priv_fatal_error_detected	_priv_fatal_error_detected	static
                        2994 
                        2995 	.data
                        2996 	.align	4
                        2997 	.global	_drapp_DETECTED_DROME_ERROR
00000000 00000000       2998 _drapp_DETECTED_DROME_ERROR:	.byte	0,0,0,0
                        2999 	.type	_drapp_DETECTED_DROME_ERROR,@object
                        3000 	.size	_drapp_DETECTED_DROME_ERROR,4
                        3001 	.global	_drapp_DETECTED_CODE_ERROR
00000004 00000000       3002 _drapp_DETECTED_CODE_ERROR:	.byte	0,0,0,0
                        3003 	.type	_drapp_DETECTED_CODE_ERROR,@object
                        3004 	.size	_drapp_DETECTED_CODE_ERROR,4
                        3005 	.global	_drapp_GET_DP_VAL_AS_STRING
00000008 00000000       3006 _drapp_GET_DP_VAL_AS_STRING:	.byte	0,0,0,0
                        3007 	.type	_drapp_GET_DP_VAL_AS_STRING,@object
                        3008 	.size	_drapp_GET_DP_VAL_AS_STRING,4
                        3009 	.global	_drapp_GET_DP_VAL_AS_NUMERIC
0000000c 00000000       3010 _drapp_GET_DP_VAL_AS_NUMERIC:	.byte	0,0,0,0
                        3011 	.type	_drapp_GET_DP_VAL_AS_NUMERIC,@object
                        3012 	.size	_drapp_GET_DP_VAL_AS_NUMERIC,4

                                                                      Page 53
                                                              C:\Users\minda\AppData\Local\Temp\gh_000031s1.si
                        3013 	.global	_drapp_SET_DP_VAL_AS_NUMERIC
00000010 00000000       3014 _drapp_SET_DP_VAL_AS_NUMERIC:	.byte	0,0,0,0
                        3015 	.type	_drapp_SET_DP_VAL_AS_NUMERIC,@object
                        3016 	.size	_drapp_SET_DP_VAL_AS_NUMERIC,4
                        3017 	.global	_drapp_LOAD_HISTORY_STATES
00000014 00000000       3018 _drapp_LOAD_HISTORY_STATES:	.byte	0,0,0,0
                        3019 	.type	_drapp_LOAD_HISTORY_STATES,@object
                        3020 	.size	_drapp_LOAD_HISTORY_STATES,4
                        3021 	.global	_drapp_SAVE_HISTORY_STATES
00000018 00000000       3022 _drapp_SAVE_HISTORY_STATES:	.byte	0,0,0,0
                        3023 	.type	_drapp_SAVE_HISTORY_STATES,@object
                        3024 	.size	_drapp_SAVE_HISTORY_STATES,4
                        3025 	.global	_drapp_GET_TIME_IN_US
0000001c 00000000       3026 _drapp_GET_TIME_IN_US:	.byte	0,0,0,0
                        3027 	.type	_drapp_GET_TIME_IN_US,@object
                        3028 	.size	_drapp_GET_TIME_IN_US,4
                        3029 	.global	_drapp_GET_TIME_IN_MS
00000020 00000000       3030 _drapp_GET_TIME_IN_MS:	.byte	0,0,0,0
                        3031 	.type	_drapp_GET_TIME_IN_MS,@object
                        3032 	.size	_drapp_GET_TIME_IN_MS,4
                        3033 	.global	_drapp_GET_USER_CONFIG_CHECKSUM
00000024 00000000       3034 _drapp_GET_USER_CONFIG_CHECKSUM:	.byte	0,0,0,0
                        3035 	.type	_drapp_GET_USER_CONFIG_CHECKSUM,@object
                        3036 	.size	_drapp_GET_USER_CONFIG_CHECKSUM,4
                        3037 	.global	_drapp_SEND_EVENT_TO_APPLICATION
00000028 00000000       3038 _drapp_SEND_EVENT_TO_APPLICATION:	.byte	0,0,0,0
                        3039 	.type	_drapp_SEND_EVENT_TO_APPLICATION,@object
                        3040 	.size	_drapp_SEND_EVENT_TO_APPLICATION,4
                        3041 	.global	_drapp_GET_NULL_EVENT
0000002c 00000000       3042 _drapp_GET_NULL_EVENT:	.byte	0,0,0,0
                        3043 	.type	_drapp_GET_NULL_EVENT,@object
                        3044 	.size	_drapp_GET_NULL_EVENT,4
                        3045 	.global	_drapp_GET_LAST_IN_EVENT
00000030 00000000       3046 _drapp_GET_LAST_IN_EVENT:	.byte	0,0,0,0
                        3047 	.type	_drapp_GET_LAST_IN_EVENT,@object
                        3048 	.size	_drapp_GET_LAST_IN_EVENT,4
                        3049 	.global	_drapp_GET_MAX_EVENTS
00000034 00000000       3050 _drapp_GET_MAX_EVENTS:	.byte	0,0,0,0
                        3051 	.type	_drapp_GET_MAX_EVENTS,@object
                        3052 	.size	_drapp_GET_MAX_EVENTS,4
                        3053 	.global	_drapp_SAFE_TO_UPDATE_GLOBAL_PROPERTIES
00000038 00000000       3054 _drapp_SAFE_TO_UPDATE_GLOBAL_PROPERTIES:	.byte	0,0,0,0
                        3055 	.type	_drapp_SAFE_TO_UPDATE_GLOBAL_PROPERTIES,@object
                        3056 	.size	_drapp_SAFE_TO_UPDATE_GLOBAL_PROPERTIES,4
                        3057 	.global	_drapp_GET_DP_VAL_MAX_VAL
0000003c 00000000       3058 _drapp_GET_DP_VAL_MAX_VAL:	.byte	0,0,0,0
                        3059 	.type	_drapp_GET_DP_VAL_MAX_VAL,@object
                        3060 	.size	_drapp_GET_DP_VAL_MAX_VAL,4
                        3061 	.global	_drapp_GET_DISP_PARAMS
00000040 00000000       3062 _drapp_GET_DISP_PARAMS:	.byte	0,0,0,0
                        3063 	.type	_drapp_GET_DISP_PARAMS,@object
                        3064 	.size	_drapp_GET_DISP_PARAMS,4
                        3065 	.global	_drapp_I2C_OPENIF
00000044 00000000       3066 _drapp_I2C_OPENIF:	.byte	0,0,0,0
                        3067 	.type	_drapp_I2C_OPENIF,@object
                        3068 	.size	_drapp_I2C_OPENIF,4
                        3069 	.global	_drapp_I2C_CLOSEIF
00000048 00000000       3070 _drapp_I2C_CLOSEIF:	.byte	0,0,0,0
                        3071 	.type	_drapp_I2C_CLOSEIF,@object
                        3072 	.size	_drapp_I2C_CLOSEIF,4
                        3073 	.global	_drapp_I2C_WRITESTART

                                                                      Page 54
                                                              C:\Users\minda\AppData\Local\Temp\gh_000031s1.si
0000004c 00000000       3074 _drapp_I2C_WRITESTART:	.byte	0,0,0,0
                        3075 	.type	_drapp_I2C_WRITESTART,@object
                        3076 	.size	_drapp_I2C_WRITESTART,4
                        3077 	.global	_drapp_I2C_READSTART
00000050 00000000       3078 _drapp_I2C_READSTART:	.byte	0,0,0,0
                        3079 	.type	_drapp_I2C_READSTART,@object
                        3080 	.size	_drapp_I2C_READSTART,4
                        3081 	.global	_drapp_I2C_ISSUESTOP
00000054 00000000       3082 _drapp_I2C_ISSUESTOP:	.byte	0,0,0,0
                        3083 	.type	_drapp_I2C_ISSUESTOP,@object
                        3084 	.size	_drapp_I2C_ISSUESTOP,4
                        3085 	.global	_drapp_GET_SCALED_VIDEO_SIZE
00000058 00000000       3086 _drapp_GET_SCALED_VIDEO_SIZE:	.byte	0,0,0,0
                        3087 	.type	_drapp_GET_SCALED_VIDEO_SIZE,@object
                        3088 	.size	_drapp_GET_SCALED_VIDEO_SIZE,4
                        3089 	.ghsnote version,19
                        3090 	.ghsnote tools,3
                        3091 	.ghsnote options,656
                        3092 	.text
                        3093 	.align	2
                        3094 ..eof.E.3A.5CMahindra.20Repo.5CM.26M.20branches.5C4.2E4.2EW501.5C4.2ESoftware_Code.5C4.2E1.2ESoftware_Source_Code.5Cvlib_v1.2E8.5Capp.5Cgfx_apps.5CW501.5Ctarget.5Cobj.5Cdrome...45.3A.5CMahindra.20Repo.5CM.26M.20branches.5C4.2E4.2EW501.5C4.2ESoftware_Code.5C4.2E1.2ESoftware_Source_Code.5Cvlib_v1.2E8.5Capp.5Cgfx_apps.5CW501.5Ctarget..5C5EE30F..0::
                        3095 .rh850_flags REGMODE22,DATA_ALIGN8,GP_FIX,EP_NONFIX,TP_FIX,REG2_RESERVE,G3M,SDA_EXTRA_REGS_0
