                                                                      Page 1
                                                              C:\Users\MANGESH\AppData\Local\Temp\gh_00004k01.si
Command Line: C:\ghs\comp_201715\ease850.exe -w -elf -b0 -I..\..\..\..\..\app\common\dhd -I..\..\..\..\..\app\gfx_apps\d1m1_flashdash_demo\res -I..\..\..\..\..\app\gfx_apps\d1m1_flashdash_demo\src -I..\..\..\..\..\app\gfx_apps\d1m1_flashdash_demo\src\images -I..\..\..\..\..\app\gfx_apps\d1m1_flashdash_demo\target\d1m2_mango_ghs -I..\..\..\..\..\app\gfx_apps\d1m1_flashdash_demo\target\d1m2_mango_ghs\config -I..\..\..\..\..\bsp\board\\config -I..\..\..\..\..\bsp\board\\src\gfx -I..\..\..\..\..\bsp\board\\src\hmi -I..\..\..\..\..\bsp\board\\src\stdio -I..\..\..\..\..\bsp\board\d1mx_mango\config -I..\..\..\..\..\bsp\board\d1mx_mango\src -I..\..\..\..\..\bsp\board\d1mx_mango\src\gfx -I..\..\..\..\..\bsp\board\d1mx_mango\src\hmi -I..\..\..\..\..\bsp\board\d1mx_mango\src\stdio -I..\..\..\..\..\bsp\gfx\lib -I..\..\..\..\..\bsp\gfx\src -I..\..\..\..\..\bsp\hmi\lib -I..\..\..\..\..\bsp\hmi\src -I..\..\..\..\..\bsp\lib -I..\..\..\..\..\bsp\stdio\lib -I..\..\..\..\..\bsp\stdio\src -I..\..\..\..\..\cdi\lib -I..\..\..\..\..\cdi\src -I..\..\..\..\..\compiler\rh850_ghs\inc -I..\..\..\..\..\device\d1mx\lib -I..\..\..\..\..\device\d1mx\macro_cfg -I..\..\..\..\..\device\d1mx\src\dev -I..\..\..\..\..\device\d1mx\src\dhd -I..\..\..\..\..\device\d1mx\src\jcua -I..\..\..\..\..\device\d1mx\src\rh850_ghs -I..\..\..\..\..\device\d1mx\src\vowe -I..\..\..\..\..\device\d1x_common\macro_cfg -I..\..\..\..\..\device\d1x_common\src\csisw -I..\..\..\..\..\device\d1x_common\src\dev -I..\..\..\..\..\device\d1x_common\src\gfxbus -I..\..\..\..\..\device\d1x_common\src\gpio -I..\..\..\..\..\device\d1x_common\src\ostm -I..\..\..\..\..\device\d1x_common\src\pbg -I..\..\..\..\..\device\d1x_common\src\riic -I..\..\..\..\..\device\d1x_common\src\sfma -I..\..\..\..\..\device\d1x_common\src\spea -I..\..\..\..\..\device\d1x_common\src\tauj -I..\..\..\..\..\device\d1x_common\src\tick -I..\..\..\..\..\device\d1x_common\src\vdce -I..\..\..\..\..\device\d1x_common\src\wm -I..\..\..\..\..\device\d1x_common\src\dma -I..\..\..\..\..\device\d1x_common\src\g3dma -I..\..\..\..\..\device\d1x_common\src\xbus -I..\..\..\..\..\device\d1x_common\src\pcmp -I..\..\..\..\..\device\d1x_common\src\taub -I..\..\..\..\..\device\lib -I..\..\..\..\..\macro\bus\pbg\lib -I..\..\..\..\..\macro\bus\pbg\src -I..\..\..\..\..\macro\csi\csisw\lib -I..\..\..\..\..\macro\csi\csisw\src -I..\..\..\..\..\macro\dma\dma\lib -I..\..\..\..\..\macro\dma\dma\src -I..\..\..\..\..\macro\dma\g3dma\lib -I..\..\..\..\..\macro\dma\g3dma\src -I..\..\..\..\..\macro\drw2d\lib -I..\..\..\..\..\macro\drw2d\platform\davehd -I..\..\..\..\..\macro\drw2d\platform\os\no_os -I..\..\..\..\..\macro\drw2d\src -I..\..\..\..\..\macro\flashc\sfcdb\lib -I..\..\..\..\..\macro\flashc\sfcdb\src -I..\..\..\..\..\macro\flashc\sfma\lib -I..\..\..\..\..\macro\flashc\sfma\src -I..\..\..\..\..\macro\gfxbus\lib -I..\..\..\..\..\macro\gfxbus\src -I..\..\..\..\..\macro\gfxbus\xbus\lib -I..\..\..\..\..\macro\gfxbus\xbus\src -I..\..\..\..\..\macro\gpio\lib -I..\..\..\..\..\macro\gpio\src -I..\..\..\..\..\macro\gpu\davehd\common\inc -I..\..\..\..\..\macro\gpu\davehd\common\inc\platform -I..\..\..\..\..\macro\gpu\davehd\common\inc\platform\d1mx -I..\..\..\..\..\macro\gpu\davehd\kernel\inc -I..\..\..\..\..\macro\gpu\davehd\kernel\platform\d1mx -I..\..\..\..\..\macro\gpu\davehd\kernel\platform\d1mx\bridge -I..\..\..\..\..\macro\gpu\davehd\kernel\platform\ree -I..\..\..\..\..\macro\gpu\davehd\kernel\src -I..\..\..\..\..\macro\gpu\davehd\user\inc -I..\..\..\..\..\macro\gpu\davehd\user\platform\d1mx\no_os -I..\..\..\..\..\macro\gpu\davehd\user\src -I..\..\..\..\..\macro\gpu\jcua\lib -I..\..\..\..\..\macro\gpu\jcua\src -I..\..\..\..\..\macro\i2c\riic\lib -I..\..\..\..\..\macro\i2c\riic\src -I..\..\..\..\..\macro\pwm\pcmp\lib -I..\..\..\..\..\macro\pwm\pcmp\src -I..\..\..\..\..\macro\tick\lib -I..\..\..\..\..\macro\tick\src -I..\..\..\..\..\macro\timer\ostm\lib -I..\..\..\..\..\macro\timer\ostm\src -I..\..\..\..\..\macro\timer\tauj\lib -I..\..\..\..\..\macro\timer\tauj\src -I..\..\..\..\..\macro\timer\taub\lib -I..\..\..\..\..\macro\timer\taub\src -I..\..\..\..\..\macro\vdce\lib -I..\..\..\..\..\macro\vdce\src -I..\..\..\..\..\macro\vo\ddb\lib -I..\..\..\..\..\macro\vo\ddb\src -I..\..\..\..\..\macro\vo\spea\lib -I..\..\..\..\..\macro\vo\spea\src -I..\..\..\..\..\macro\vo\vowe\lib -I..\..\..\..\..\macro\vo\vowe\src -I..\..\..\..\..\macro\wm\lib -I..\..\..\..\..\macro\wm\src -I..\..\..\..\..\middleware\gfxutils\lib -I..\..\..\..\..\middleware\gfxutils\src -I..\..\..\..\..\device\d1mx\macro_cfg\csisw -I..\..\..\..\..\device\d1mx\macro_cfg\davehd -I..\..\..\..\..\device\d1mx\macro_cfg\ddb -I..\..\..\..\..\device\d1mx\macro_cfg\drw2d -I..\..\..\..\..\device\d1mx\macro_cfg\gfxbus -I..\..\..\..\..\device\d1mx\macro_cfg\gpio -I..\..\..\..\..\device\d1mx\macro_cfg\hypb -I..\..\..\..\..\device\d1mx\macro_cfg\hypdb -I..\..\..\..\..\device\d1mx\macro_cfg\jcua -I..\..\..\..\..\device\d1mx\macro_cfg\nfmabare -I..\..\..\..\..\device\d1mx\macro_cfg\octa -I..\..\..\..\..\device\d1mx\macro_cfg\octacdb -I..\..\..\..\..\device\d1mx\macro_cfg\ostm -I..\..\..\..\..\device\d1mx\macro_cfg\pbg -I..\..\..\..\..\device\d1mx\macro_cfg\riic -I..\..\..\..\..\device\d1mx\macro_cfg\sfcdb -I..\..\..\..\..\device\d1mx\macro_cfg\sfma -I..\..\..\..\..\device\d1mx\macro_cfg\spea -I..\..\..\..\..\device\d1mx\macro_cfg\tauj -I..\..\..\..\..\device\d1mx\macro_cfg\tick -I..\..\..\..\..\device\d1mx\macro_cfg\vdce -I..\..\..\..\..\device\d1mx\macro_cfg\vowe -I..\..\..\..\..\device\d1mx\macro_cfg\wm -I..\..\..\..\..\device\d1mx\macro_cfg\xbus -I..\..\..\..\..\device\d1x_common\macro_cfg\csisw -I..\..\..\..\..\device\d1x_common\macro_cfg\davehd -I..\..\..\..\..\device\d1x_common\macro_cfg\ddb -I..\..\..\..\..\device\d1x_common\macro_cfg\drw2d -I..\..\..\..\..\device\d1x_common\macro_cfg\gfxbus -I..\..\..\..\..\device\d1x_common\macro_cfg\gpio -I..\..\..\..\..\device\d1x_common\macro_cfg\hypb -I..\..\..\..\..\device\d1x_common\macro_cfg\hypdb -I..\..\..\..\..\device\d1x_common\macro_cfg\jcua -I..\..\..\..\..\device\d1x_common\macro_cfg\nfmabare -I..\..\..\..\..\device\d1x_common\macro_cfg\octa -I..\..\..\..\..\device\d1x_common\macro_cfg\octacdb -I..\..\..\..\..\device\d1x_common\macro_cfg\ostm -I..\..\..\..\..\device\d1x_common\macro_cfg\pbg -I..\..\..\..\..\device\d1x_common\macro_cfg\riic -I..\..\..\..\..\device\d1x_common\macro_cfg\sfcdb -I..\..\..\..\..\device\d1x_common\macro_cfg\sfma -I..\..\..\..\..\device\d1x_common\macro_cfg\spea -I..\..\..\..\..\device\d1x_common\macro_cfg\tauj -I..\..\..\..\..\device\d1x_common\macro_cfg\tick -I..\..\..\..\..\device\d1x_common\macro_cfg\vdce -I..\..\..\..\..\device\d1x_common\macro_cfg\vowe -I..\..\..\..\..\device\d1x_common\macro_cfg\wm -I..\..\..\..\..\device\d1x_common\macro_cfg\xbus -I..\..\..\..\..\app\gfx_apps\d1m1_flashdash_demo\src\TEXT_MY -IC:\ghs\comp_201715\lib\rh850_22 -cg_underscore -cpu=rh850g3m -no_v850_simd -nomacro -patch_dbo=G:\vlib_v1.8_svn\app\gfx_apps\d1m1_flashdash_demo\target\d1m2_mango_ghs\obj\main_scene.dbo -source=main_scene.c -o .\obj\gh_00004k01.o -list=.\obj\main_scene.lst C:\Users\MANGESH\AppData\Local\Temp\gh_00004k01.si 
Original File: C:\Users\MANGESH\AppData\Local\Temp\gh_00004k01.si
Source File: main_scene.c
Directory: G:\vlib_v1.8_svn\app\gfx_apps\d1m1_flashdash_demo\target\d1m2_mango_ghs
Host OS: Windows 7 Service Pack 1
EASE: Copyright (C) 1983-2016 Green Hills Software.  All Rights Reserved.
Release: MULTI v800-v2017.1.5-comp-P04
Custom String: TOOLS-28024 unreached assembly routines deleted by linker
Build Directory: [Directory] BTOWINBOX:c:/build_2017_1_bto/2017-10-04.2100-2017_1_bto/win32-comp-ecom
Revision: [VCInfo] http://toolsvc/branches/release-branch-2017-1-bto/src@603992 (built by build)
Revision Date: Thu Oct 05 10:11:26 2017

Release Date: Tue Oct 10 02:48:58 2017

                           1 --Driver Command: ccv850 -c -MD -I..\..\..\..\..\app\common\dhd
                           2 --		-I..\..\..\..\..\app\gfx_apps\d1m1_flashdash_demo\res
                           3 --		-I..\..\..\..\..\app\gfx_apps\d1m1_flashdash_demo\src
                           4 --		-I..\..\..\..\..\app\gfx_apps\d1m1_flashdash_demo\src\images
                           5 --		-I..\..\..\..\..\app\gfx_apps\d1m1_flashdash_demo\target\d1m2_mango_ghs
                           6 --		-I..\..\..\..\..\app\gfx_apps\d1m1_flashdash_demo\target\d1m2_mango_ghs\config
                           7 --		-I..\..\..\..\..\bsp\board\\config
                           8 --		-I..\..\..\..\..\bsp\board\\src\gfx
                           9 --		-I..\..\..\..\..\bsp\board\\src\hmi
                          10 --		-I..\..\..\..\..\bsp\board\\src\stdio
                          11 --		-I..\..\..\..\..\bsp\board\d1mx_mango\config
                          12 --		-I..\..\..\..\..\bsp\board\d1mx_mango\src
                          13 --		-I..\..\..\..\..\bsp\board\d1mx_mango\src\gfx
                          14 --		-I..\..\..\..\..\bsp\board\d1mx_mango\src\hmi
                          15 --		-I..\..\..\..\..\bsp\board\d1mx_mango\src\stdio
                          16 --		-I..\..\..\..\..\bsp\gfx\lib -I..\..\..\..\..\bsp\gfx\src
                          17 --		-I..\..\..\..\..\bsp\hmi\lib -I..\..\..\..\..\bsp\hmi\src
                          18 --		-I..\..\..\..\..\bsp\lib -I..\..\..\..\..\bsp\stdio\lib
                          19 --		-I..\..\..\..\..\bsp\stdio\src -I..\..\..\..\..\cdi\lib
                          20 --		-I..\..\..\..\..\cdi\src -I..\..\..\..\..\compiler\rh850_ghs\inc
                          21 --		-I..\..\..\..\..\device\d1mx\lib
                          22 --		-I..\..\..\..\..\device\d1mx\macro_cfg
                          23 --		-I..\..\..\..\..\device\d1mx\src\dev
                          24 --		-I..\..\..\..\..\device\d1mx\src\dhd
                          25 --		-I..\..\..\..\..\device\d1mx\src\jcua
                          26 --		-I..\..\..\..\..\device\d1mx\src\rh850_ghs
                          27 --		-I..\..\..\..\..\device\d1mx\src\vowe
                          28 --		-I..\..\..\..\..\device\d1x_common\macro_cfg
                          29 --		-I..\..\..\..\..\device\d1x_common\src\csisw
                          30 --		-I..\..\..\..\..\device\d1x_common\src\dev
                          31 --		-I..\..\..\..\..\device\d1x_common\src\gfxbus
                          32 --		-I..\..\..\..\..\device\d1x_common\src\gpio
                          33 --		-I..\..\..\..\..\device\d1x_common\src\ostm
                          34 --		-I..\..\..\..\..\device\d1x_common\src\pbg
                          35 --		-I..\..\..\..\..\device\d1x_common\src\riic
                          36 --		-I..\..\..\..\..\device\d1x_common\src\sfma
                          37 --		-I..\..\..\..\..\device\d1x_common\src\spea
                          38 --		-I..\..\..\..\..\device\d1x_common\src\tauj
                          39 --		-I..\..\..\..\..\device\d1x_common\src\tick
                          40 --		-I..\..\..\..\..\device\d1x_common\src\vdce
                          41 --		-I..\..\..\..\..\device\d1x_common\src\wm
                          42 --		-I..\..\..\..\..\device\d1x_common\src\dma
                          43 --		-I..\..\..\..\..\device\d1x_common\src\g3dma
                          44 --		-I..\..\..\..\..\device\d1x_common\src\xbus
                          45 --		-I..\..\..\..\..\device\d1x_common\src\pcmp
                          46 --		-I..\..\..\..\..\device\d1x_common\src\taub
                          47 --		-I..\..\..\..\..\device\lib -I..\..\..\..\..\macro\bus\pbg\lib
                          48 --		-I..\..\..\..\..\macro\bus\pbg\src
                          49 --		-I..\..\..\..\..\macro\csi\csisw\lib

                                                                      Page 2
                                                              C:\Users\MANGESH\AppData\Local\Temp\gh_00004k01.si
                          50 --		-I..\..\..\..\..\macro\csi\csisw\src
                          51 --		-I..\..\..\..\..\macro\dma\dma\lib
                          52 --		-I..\..\..\..\..\macro\dma\dma\src
                          53 --		-I..\..\..\..\..\macro\dma\g3dma\lib
                          54 --		-I..\..\..\..\..\macro\dma\g3dma\src
                          55 --		-I..\..\..\..\..\macro\drw2d\lib
                          56 --		-I..\..\..\..\..\macro\drw2d\platform\davehd
                          57 --		-I..\..\..\..\..\macro\drw2d\platform\os\no_os
                          58 --		-I..\..\..\..\..\macro\drw2d\src
                          59 --		-I..\..\..\..\..\macro\flashc\sfcdb\lib
                          60 --		-I..\..\..\..\..\macro\flashc\sfcdb\src
                          61 --		-I..\..\..\..\..\macro\flashc\sfma\lib
                          62 --		-I..\..\..\..\..\macro\flashc\sfma\src
                          63 --		-I..\..\..\..\..\macro\gfxbus\lib
                          64 --		-I..\..\..\..\..\macro\gfxbus\src
                          65 --		-I..\..\..\..\..\macro\gfxbus\xbus\lib
                          66 --		-I..\..\..\..\..\macro\gfxbus\xbus\src
                          67 --		-I..\..\..\..\..\macro\gpio\lib -I..\..\..\..\..\macro\gpio\src
                          68 --		-I..\..\..\..\..\macro\gpu\davehd\common\inc
                          69 --		-I..\..\..\..\..\macro\gpu\davehd\common\inc\platform
                          70 --		-I..\..\..\..\..\macro\gpu\davehd\common\inc\platform\d1mx
                          71 --		-I..\..\..\..\..\macro\gpu\davehd\kernel\inc
                          72 --		-I..\..\..\..\..\macro\gpu\davehd\kernel\platform\d1mx
                          73 --		-I..\..\..\..\..\macro\gpu\davehd\kernel\platform\d1mx\bridge
                          74 --		-I..\..\..\..\..\macro\gpu\davehd\kernel\platform\ree
                          75 --		-I..\..\..\..\..\macro\gpu\davehd\kernel\src
                          76 --		-I..\..\..\..\..\macro\gpu\davehd\user\inc
                          77 --		-I..\..\..\..\..\macro\gpu\davehd\user\platform\d1mx\no_os
                          78 --		-I..\..\..\..\..\macro\gpu\davehd\user\src
                          79 --		-I..\..\..\..\..\macro\gpu\jcua\lib
                          80 --		-I..\..\..\..\..\macro\gpu\jcua\src
                          81 --		-I..\..\..\..\..\macro\i2c\riic\lib
                          82 --		-I..\..\..\..\..\macro\i2c\riic\src
                          83 --		-I..\..\..\..\..\macro\pwm\pcmp\lib
                          84 --		-I..\..\..\..\..\macro\pwm\pcmp\src
                          85 --		-I..\..\..\..\..\macro\tick\lib -I..\..\..\..\..\macro\tick\src
                          86 --		-I..\..\..\..\..\macro\timer\ostm\lib
                          87 --		-I..\..\..\..\..\macro\timer\ostm\src
                          88 --		-I..\..\..\..\..\macro\timer\tauj\lib
                          89 --		-I..\..\..\..\..\macro\timer\tauj\src
                          90 --		-I..\..\..\..\..\macro\timer\taub\lib
                          91 --		-I..\..\..\..\..\macro\timer\taub\src
                          92 --		-I..\..\..\..\..\macro\vdce\lib -I..\..\..\..\..\macro\vdce\src
                          93 --		-I..\..\..\..\..\macro\vo\ddb\lib
                          94 --		-I..\..\..\..\..\macro\vo\ddb\src
                          95 --		-I..\..\..\..\..\macro\vo\spea\lib
                          96 --		-I..\..\..\..\..\macro\vo\spea\src
                          97 --		-I..\..\..\..\..\macro\vo\vowe\lib
                          98 --		-I..\..\..\..\..\macro\vo\vowe\src -I..\..\..\..\..\macro\wm\lib
                          99 --		-I..\..\..\..\..\macro\wm\src
                         100 --		-I..\..\..\..\..\middleware\gfxutils\lib
                         101 --		-I..\..\..\..\..\middleware\gfxutils\src
                         102 --		-I..\..\..\..\..\device\d1mx\macro_cfg\csisw
                         103 --		-I..\..\..\..\..\device\d1mx\macro_cfg\davehd
                         104 --		-I..\..\..\..\..\device\d1mx\macro_cfg\ddb
                         105 --		-I..\..\..\..\..\device\d1mx\macro_cfg\drw2d
                         106 --		-I..\..\..\..\..\device\d1mx\macro_cfg\gfxbus
                         107 --		-I..\..\..\..\..\device\d1mx\macro_cfg\gpio
                         108 --		-I..\..\..\..\..\device\d1mx\macro_cfg\hypb
                         109 --		-I..\..\..\..\..\device\d1mx\macro_cfg\hypdb
                         110 --		-I..\..\..\..\..\device\d1mx\macro_cfg\jcua

                                                                      Page 3
                                                              C:\Users\MANGESH\AppData\Local\Temp\gh_00004k01.si
                         111 --		-I..\..\..\..\..\device\d1mx\macro_cfg\nfmabare
                         112 --		-I..\..\..\..\..\device\d1mx\macro_cfg\octa
                         113 --		-I..\..\..\..\..\device\d1mx\macro_cfg\octacdb
                         114 --		-I..\..\..\..\..\device\d1mx\macro_cfg\ostm
                         115 --		-I..\..\..\..\..\device\d1mx\macro_cfg\pbg
                         116 --		-I..\..\..\..\..\device\d1mx\macro_cfg\riic
                         117 --		-I..\..\..\..\..\device\d1mx\macro_cfg\sfcdb
                         118 --		-I..\..\..\..\..\device\d1mx\macro_cfg\sfma
                         119 --		-I..\..\..\..\..\device\d1mx\macro_cfg\spea
                         120 --		-I..\..\..\..\..\device\d1mx\macro_cfg\tauj
                         121 --		-I..\..\..\..\..\device\d1mx\macro_cfg\tick
                         122 --		-I..\..\..\..\..\device\d1mx\macro_cfg\vdce
                         123 --		-I..\..\..\..\..\device\d1mx\macro_cfg\vowe
                         124 --		-I..\..\..\..\..\device\d1mx\macro_cfg\wm
                         125 --		-I..\..\..\..\..\device\d1mx\macro_cfg\xbus
                         126 --		-I..\..\..\..\..\device\d1x_common\macro_cfg\csisw
                         127 --		-I..\..\..\..\..\device\d1x_common\macro_cfg\davehd
                         128 --		-I..\..\..\..\..\device\d1x_common\macro_cfg\ddb
                         129 --		-I..\..\..\..\..\device\d1x_common\macro_cfg\drw2d
                         130 --		-I..\..\..\..\..\device\d1x_common\macro_cfg\gfxbus
                         131 --		-I..\..\..\..\..\device\d1x_common\macro_cfg\gpio
                         132 --		-I..\..\..\..\..\device\d1x_common\macro_cfg\hypb
                         133 --		-I..\..\..\..\..\device\d1x_common\macro_cfg\hypdb
                         134 --		-I..\..\..\..\..\device\d1x_common\macro_cfg\jcua
                         135 --		-I..\..\..\..\..\device\d1x_common\macro_cfg\nfmabare
                         136 --		-I..\..\..\..\..\device\d1x_common\macro_cfg\octa
                         137 --		-I..\..\..\..\..\device\d1x_common\macro_cfg\octacdb
                         138 --		-I..\..\..\..\..\device\d1x_common\macro_cfg\ostm
                         139 --		-I..\..\..\..\..\device\d1x_common\macro_cfg\pbg
                         140 --		-I..\..\..\..\..\device\d1x_common\macro_cfg\riic
                         141 --		-I..\..\..\..\..\device\d1x_common\macro_cfg\sfcdb
                         142 --		-I..\..\..\..\..\device\d1x_common\macro_cfg\sfma
                         143 --		-I..\..\..\..\..\device\d1x_common\macro_cfg\spea
                         144 --		-I..\..\..\..\..\device\d1x_common\macro_cfg\tauj
                         145 --		-I..\..\..\..\..\device\d1x_common\macro_cfg\tick
                         146 --		-I..\..\..\..\..\device\d1x_common\macro_cfg\vdce
                         147 --		-I..\..\..\..\..\device\d1x_common\macro_cfg\vowe
                         148 --		-I..\..\..\..\..\device\d1x_common\macro_cfg\wm
                         149 --		-I..\..\..\..\..\device\d1x_common\macro_cfg\xbus
                         150 --		-I..\..\..\..\..\app\gfx_apps\d1m1_flashdash_demo\src\TEXT_MY
                         151 --		--no_commons --no_implicit_include --prototype_errors
                         152 --		-DBSP_INIT_QOS_SDRAM_ORG -DDEVICE_TYPE_D1M1X -DBSP_INIT_SFMA_ORG
                         153 --		-DRENESAS_D1X -DR_DRW2D_OS_NO_OS -DR_DRW2D_SYS_DHD
                         154 --		-DUSED_CPU=RH850G3M -DUSE_BSP_GFX -DUSE_BSP_HMI_ORG -DUSE_BSP_HMI
                         155 --		-DUSE_BSP_STDIO -DUSE_CDI -DUSE_CSISW -DUSE_DAVEHD -DUSE_DDB
                         156 --		-DUSE_DMA -DUSE_DRW2D -DUSE_GFXBUS -DUSE_G3DMA -DUSE_GFXUTILS
                         157 --		-DUSE_GPIO -DUSE_JCUA -DUSE_OSTM -DUSE_PCMP -DUSE_PBG -DUSE_RIIC
                         158 --		-DUSE_SFCDB -DUSE_SFMA_ORG -DUSE_SPEA -DUSE_TAUB -DUSE_TAUJ
                         159 --		-DUSE_TICK -DUSE_VDCE -DUSE_VOWE -DUSE_WM -DUSE_XBUS -G -MD
                         160 --		-Odebug -Zuse1bit -allocate_ep -cpu=rh850g3m -large_sda -list
                         161 --		-no_callt -notda -passsource -preprocess_assembly_files
                         162 --		-registermode=22 -reserve_r2 --diag_warning 1 -object_dir=.\obj
                         163 --		-DBSP_INIT_QOS_VRAM -DUSE_RSCAN -filetype.c
                         164 --		..\..\..\..\gfx_apps\d1m1_flashdash_demo\src\main_scene.c -o
                         165 --		.\obj\main_scene.o
                         166 --Source File:   ..\..\..\..\gfx_apps\d1m1_flashdash_demo\src\main_scene.c
                         167 --Directory:     
                         168 --		G:\vlib_v1.8_svn\app\gfx_apps\d1m1_flashdash_demo\target\d1m2_mango_ghs
                         169 --Compile Date:  Sat Jan 12 14:23:31 2019
                         170 --Host OS:       Win32
                         171 --Version:       C-RH850 2017.1.5 RELEASE VERSION

                                                                      Page 4
                                                              C:\Users\MANGESH\AppData\Local\Temp\gh_00004k01.si
                         172 --Release:       Compiler v2017.1.5
                         173 --Revision Date: Tue Apr 11 09:29:40 2017
                         174 --Release Date:  Tue Apr 11 11:12:26 2017
                         175 -- ecom  -g -w
                         176 
                         177 --1: #include "r_typedefs.h"
                         178 --3: #include "r_cdi_api.h"
                         179 --4: #include "r_drw2d_os.h"
                         180 --5: #include "r_drw2d_api.h"
                         181 --6: #include "r_config_drw2d.h"
                         182 --7: #include "r_drw2d_ctx_dhd.h"
                         183 --8: #include "r_ddb_api.h"
                         184 --9: #include "r_wm_api.h"
                         185 --10: #include "scenes.h"
                         186 --11: #include "drw_wrap.h"
                         187 --12: #include "mem_init.h"
                         188 --13: #include "sprite.h"
                         189 --14: #include "wm.h"
                         190 --15: #include "fs_data.h"
                         191 --16: #include "fs_data_res.h"
                         192 --18: #include "r_bsp_stdio_api.h"
                         193 --19: //#include "r_gfxutils_api.h"
                         194 --20: #include "r_util_dhd.h"
                         195 --21: #include "load_to_ram.h"
                         196 --22: #include "math.h"
                         197 --23: #include "jpeg.h"
                         198 --24: #include "r_tick_api.h"
                         199 --25: #include "bench.h"
                         200 --26: #include "car_model.h"
                         201 --27: #include "util.h"
                         202 --28: #include <stdio.h>
                         203 --29: #include <stdlib.h>
                         204 --30: #include <math.h>
                         205 --31: #include <float.h>
                         206 --32: #include "state_machine.h"
                         207 --33: #include "font.h"
                         208 --34: //#include "my_text_print.h"
                         209 --37: static int movie_count=0;
                         210 --39: unsigned int my_L_X = 150;//160;
                         211 --40: unsigned int my_L_Y = 240;//290;
                         212 --42: unsigned int my_R_X = 400;//500;//400;
                         213 --43: unsigned int my_R_Y = 240;//210;//248;
                         214 --45: unsigned char my_move = 0;
                         215 --46: unsigned char move_done = 0;
                         216 --48: extern unsigned char my_speed_val;
                         217 --49: extern unsigned int my_rpm_val;
                         218 --50: 	
                         219 --51: #define CENTER_L_X (234.5 + 2 + .25 + 160)
                         220 --52: #define CENTER_L_Y (239.5 + .25)
                         221 --54: #define DEBUG_SPRITES 0
                         222 --55: #define KPH_FACTOR 1.7
                         223 --57: extern unsigned char my_angle_val;
                         224 --59: r_drw2d_Framebuffer_t drw2d_fb;
                         225 --60: extern r_wm_Window_t speed_Window;
                         226 --61: extern r_wm_Window_t g_Window;
                         227 --62: extern r_wm_Window_t odo_Window;
                         228 --63: extern MultiBufferSprite_t Speed_Sprite;
                         229 --64: extern MultiBufferSprite_t Odo_Sprite;
                         230 --65: extern MultiBufferSprite_t Time_Sprite;
                         231 --66: extern MultiBufferSprite_t Temp_Sprite;
                         232 --67: extern MultiBufferSprite_t Mode_Sprite;

                                                                      Page 5
                                                              C:\Users\MANGESH\AppData\Local\Temp\gh_00004k01.si
                         233 --69: float32_t kph, rpm;
                         234 --70: extern r_drw2d_Texture_t my_odo_font_texture;
                         235 --72: uint8_t odo_string = 0;
                         236 --73: //======================================================================================
                         237 --75: void Init_LeftNeedle(void){
                         238 	.text
                         239 ..bof.G.3A.5Cvlib_v1.2E8_svn.5Capp.5Cgfx_apps.5Cd1m1_flashdash_demo.5Ctarget.5Cd1m2_mango_ghs.5Cobj.5Cmain_scene...47.3A.5Cvlib_v1.2E8_svn.5Capp.5Cgfx_apps.5Cd1m1_flashdash_demo.5Ctarget.5Cd1m2_mango_ghs..5C39AB0B..0::
                         240 	.align	2
                         241 	.align	2
                         242 ..gh.f.a.2.e.0:
                         243 	.type	..gh.f.a.2.e.0,@object
                         244 	.size	..gh.f.a.2.e.0,0
                         245 	.global	_Init_LeftNeedle
                         246 _Init_LeftNeedle:
00000000 80076100        247 	prepare	{r29,r31},0
00000004 3d0600000000*   248 	mov	_g_Drw2dDev,r29
                         249 --	    .bf
                         250 .LDW01:
                         251 --76:     r_drw2d_Framebuffer_t *draw_fb;
                         252 --77:     draw_fb = MbSpriteNewDrawBufGet(&LeftNeedle);
                         253 --line77
                         254 ..lin.7bbb3f5b..6d4d3fef.0_1::
                         255 .LDWlin1:
0000000a 260600000000*   256 	mov	_LeftNeedle,r6
                         257 	jarl	_MbSpriteNewDrawBufGet,lp
                         257 <EXPANSION BEGIN>
                         257 jarl22 _MbSpriteNewDrawBufGet , lp 
00000010 80ff0000*       257 <EXPANSION END>
00000014 0a38            258 	mov	r10,r7
                         259 --78:     R_DRW2D_FramebufferSet(g_Drw2dDev, draw_fb);
                         260 --line78
                         261 ..lin.7bbb3f5b..6d4d3fef.0_2::
                         262 .LDWlin2:
00000016 3d370100        263 	ld.w	0[r29],r6
                         264 	jarl	_R_DRW2D_FramebufferSet,lp
                         264 <EXPANSION BEGIN>
                         264 jarl22 _R_DRW2D_FramebufferSet , lp 
0000001a 80ff0000*       264 <EXPANSION END>
                         265 --79: #if DEBUG_SPRITES
                         266 --80:     R_DRW2D_CtxBgColor(g_Drw2dDev, 0x8000ffff);
                         267 --81: #else
                         268 --82:     R_DRW2D_CtxBgColor(g_Drw2dDev, 0x00000000);
                         269 --line82
                         270 ..lin.7bbb3f5b..6d4d3fef.0_3::
                         271 .LDWlin3:
0000001e 3d370100        272 	ld.w	0[r29],r6
00000022 003a            273 	mov	0,r7
                         274 	jarl	_R_DRW2D_CtxBgColor,lp
                         274 <EXPANSION BEGIN>
                         274 jarl22 _R_DRW2D_CtxBgColor , lp 
00000024 80ff0000*       274 <EXPANSION END>
                         275 --83: #endif
                         276 --84:     R_DRW2D_FramebufferClear(g_Drw2dDev);    
                         277 --line84
                         278 ..lin.7bbb3f5b..6d4d3fef.0_4::
                         279 .LDWlin4:
00000028 3d370100        280 	ld.w	0[r29],r6
                         281 	jarl	_R_DRW2D_FramebufferClear,lp
                         281 <EXPANSION BEGIN>
                         281 jarl22 _R_DRW2D_FramebufferClear , lp 
0000002c 80ff0000*       281 <EXPANSION END>

                                                                      Page 6
                                                              C:\Users\MANGESH\AppData\Local\Temp\gh_00004k01.si
                         282 --85: }
                         283 --	    .ef
                         284 .LDW11:
                         285 --line85
                         286 ..lin.7bbb3f5b..6d4d3fef.0_5::
                         287 .LDWlin5:
00000030 40067f00        288 	dispose	0,{r29,r31},[lp]
                         289 ..lin.7bbb3f5b..6d4d3fef.0_6::
                         290 .LDWlin6:
                         291 	.type	_Init_LeftNeedle,@function
                         292 	.size	_Init_LeftNeedle,.-_Init_LeftNeedle
                         293 	.align	2
                         294 .LDW21:
                         295 --_draw_fb	r7	local
                         296 
                         297 	.section ".bss","awb"
                         298 .L46:
                         299 	.type	.L46,@object
                         300 	.size	.L46,0
                         301 	.data
                         302 	.align	4
                         303 	.global	_movie_count..G.3A.5Cvlib_v1.2E8_svn.5Capp.5Cgfx_apps.5Cd1m1_flashdash_demo.5Ctarget.5Cd1m2_mango_ghs.5Cobj.5Cmain_scene.
                         304 _movie_count..G.3A.5Cvlib_v1.2E8_svn.5Capp.5Cgfx_apps.5Cd1m1_flashdash_demo.5Ctarget.5Cd1m2_mango_ghs.5Cobj.5Cmain_scene.:
00000000 00000000        305 _movie_count:	.byte	0,0,0,0
                         306 	.type	_movie_count..G.3A.5Cvlib_v1.2E8_svn.5Capp.5Cgfx_apps.5Cd1m1_flashdash_demo.5Ctarget.5Cd1m2_mango_ghs.5Cobj.5Cmain_scene.,@object
                         307 	.size	_movie_count..G.3A.5Cvlib_v1.2E8_svn.5Capp.5Cgfx_apps.5Cd1m1_flashdash_demo.5Ctarget.5Cd1m2_mango_ghs.5Cobj.5Cmain_scene.,4
                         308 	.type	_movie_count,@object
                         309 	.size	_movie_count,4
                         310 	.global	_frame_count..G.3A.5Cvlib_v1.2E8_svn.5Capp.5Cgfx_apps.5Cd1m1_flashdash_demo.5Ctarget.5Cd1m2_mango_ghs.5Cobj.5Cmain_scene.
                         311 _frame_count..G.3A.5Cvlib_v1.2E8_svn.5Capp.5Cgfx_apps.5Cd1m1_flashdash_demo.5Ctarget.5Cd1m2_mango_ghs.5Cobj.5Cmain_scene.:
00000004 00000000        312 _frame_count:	.byte	0,0,0,0
                         313 	.type	_frame_count..G.3A.5Cvlib_v1.2E8_svn.5Capp.5Cgfx_apps.5Cd1m1_flashdash_demo.5Ctarget.5Cd1m2_mango_ghs.5Cobj.5Cmain_scene.,@object
                         314 	.size	_frame_count..G.3A.5Cvlib_v1.2E8_svn.5Capp.5Cgfx_apps.5Cd1m1_flashdash_demo.5Ctarget.5Cd1m2_mango_ghs.5Cobj.5Cmain_scene.,4
                         315 	.type	_frame_count,@object
                         316 	.size	_frame_count,4
                         317 	.text
                         318 
                         319 
                         320 --87: void Init_SpeedSprite(void){
                         321 	.align	2
                         322 	.align	2
                         323 	.align	2
                         324 ..gh.f.a.2.e.1:
                         325 	.type	..gh.f.a.2.e.1,@object
                         326 	.size	..gh.f.a.2.e.1,0
                         327 	.global	_Init_SpeedSprite
                         328 _Init_SpeedSprite:
00000034 80076100        329 	prepare	{r29,r31},0
00000038 3d0600000000*   330 	mov	_g_Drw2dDev,r29
                         331 --	    .bf
                         332 .LDW31:
                         333 --88:     r_drw2d_Framebuffer_t *draw_fb;
                         334 --89:     draw_fb = MbSpriteNewDrawBufGet(&Speed_Sprite);
                         335 --line89
                         336 ..lin.7bbb3f5b..10ed927f.0_7::
                         337 .LDWlin7:
0000003e 260600000000*   338 	mov	_Speed_Sprite,r6
                         339 	jarl	_MbSpriteNewDrawBufGet,lp
                         339 <EXPANSION BEGIN>
                         339 jarl22 _MbSpriteNewDrawBufGet , lp 
00000044 80ff0000*       339 <EXPANSION END>

                                                                      Page 7
                                                              C:\Users\MANGESH\AppData\Local\Temp\gh_00004k01.si
00000048 0a38            340 	mov	r10,r7
                         341 --90:     R_DRW2D_FramebufferSet(g_Drw2dDev, draw_fb);
                         342 --line90
                         343 ..lin.7bbb3f5b..10ed927f.0_8::
                         344 .LDWlin8:
0000004a 3d370100        345 	ld.w	0[r29],r6
                         346 	jarl	_R_DRW2D_FramebufferSet,lp
                         346 <EXPANSION BEGIN>
                         346 jarl22 _R_DRW2D_FramebufferSet , lp 
0000004e 80ff0000*       346 <EXPANSION END>
                         347 --91: #if DEBUG_SPRITES
                         348 --92:     R_DRW2D_CtxBgColor(g_Drw2dDev, 0x8000ffff);
                         349 --93: #else
                         350 --94:     R_DRW2D_CtxBgColor(g_Drw2dDev, 0x00000000);
                         351 --line94
                         352 ..lin.7bbb3f5b..10ed927f.0_9::
                         353 .LDWlin9:
00000052 3d370100        354 	ld.w	0[r29],r6
00000056 003a            355 	mov	0,r7
                         356 	jarl	_R_DRW2D_CtxBgColor,lp
                         356 <EXPANSION BEGIN>
                         356 jarl22 _R_DRW2D_CtxBgColor , lp 
00000058 80ff0000*       356 <EXPANSION END>
                         357 --95: #endif
                         358 --96:     R_DRW2D_FramebufferClear(g_Drw2dDev);    
                         359 --line96
                         360 ..lin.7bbb3f5b..10ed927f.0_10::
                         361 .LDWlin10:
0000005c 3d370100        362 	ld.w	0[r29],r6
                         363 	jarl	_R_DRW2D_FramebufferClear,lp
                         363 <EXPANSION BEGIN>
                         363 jarl22 _R_DRW2D_FramebufferClear , lp 
00000060 80ff0000*       363 <EXPANSION END>
                         364 --97: }
                         365 --	    .ef
                         366 .LDW41:
                         367 --line97
                         368 ..lin.7bbb3f5b..10ed927f.0_11::
                         369 .LDWlin11:
00000064 40067f00        370 	dispose	0,{r29,r31},[lp]
                         371 ..lin.7bbb3f5b..10ed927f.0_12::
                         372 .LDWlin12:
                         373 	.type	_Init_SpeedSprite,@function
                         374 	.size	_Init_SpeedSprite,.-_Init_SpeedSprite
                         375 	.align	2
                         376 .LDW51:
                         377 --_draw_fb	r7	local
                         378 
                         379 	.section ".bss","awb"
                         380 .L110:
                         381 	.type	.L110,@object
                         382 	.size	.L110,0
                         383 	.data
                         384 	.text
                         385 
                         386 
                         387 --99: void Init_OdoSprite(void)
                         388 	.align	2
                         389 	.align	2
                         390 	.align	2
                         391 ..gh.f.a.2.e.2:

                                                                      Page 8
                                                              C:\Users\MANGESH\AppData\Local\Temp\gh_00004k01.si
                         392 	.type	..gh.f.a.2.e.2,@object
                         393 	.size	..gh.f.a.2.e.2,0
                         394 	.global	_Init_OdoSprite
                         395 _Init_OdoSprite:
00000068 80076100        396 	prepare	{r29,r31},0
0000006c 3d0600000000*   397 	mov	_g_Drw2dDev,r29
                         398 --	    .bf
                         399 .LDW61:
                         400 --100: {
                         401 --101:     r_drw2d_Framebuffer_t *draw_fb;
                         402 --102:     draw_fb = MbSpriteNewDrawBufGet(&Odo_Sprite);
                         403 --line102
                         404 ..lin.7bbb3f5b..98f24f90.0_13::
                         405 .LDWlin13:
00000072 260600000000*   406 	mov	_Odo_Sprite,r6
                         407 	jarl	_MbSpriteNewDrawBufGet,lp
                         407 <EXPANSION BEGIN>
                         407 jarl22 _MbSpriteNewDrawBufGet , lp 
00000078 80ff0000*       407 <EXPANSION END>
0000007c 0a38            408 	mov	r10,r7
                         409 --103:     R_DRW2D_FramebufferSet(g_Drw2dDev, draw_fb);
                         410 --line103
                         411 ..lin.7bbb3f5b..98f24f90.0_14::
                         412 .LDWlin14:
0000007e 3d370100        413 	ld.w	0[r29],r6
                         414 	jarl	_R_DRW2D_FramebufferSet,lp
                         414 <EXPANSION BEGIN>
                         414 jarl22 _R_DRW2D_FramebufferSet , lp 
00000082 80ff0000*       414 <EXPANSION END>
                         415 --104: #if DEBUG_SPRITES
                         416 --105:     R_DRW2D_CtxBgColor(g_Drw2dDev, 0x8000ffff);
                         417 --106: #else
                         418 --107:     R_DRW2D_CtxBgColor(g_Drw2dDev, 0x00000000);
                         419 --line107
                         420 ..lin.7bbb3f5b..98f24f90.0_15::
                         421 .LDWlin15:
00000086 3d370100        422 	ld.w	0[r29],r6
0000008a 003a            423 	mov	0,r7
                         424 	jarl	_R_DRW2D_CtxBgColor,lp
                         424 <EXPANSION BEGIN>
                         424 jarl22 _R_DRW2D_CtxBgColor , lp 
0000008c 80ff0000*       424 <EXPANSION END>
                         425 --108: #endif
                         426 --109:     R_DRW2D_FramebufferClear(g_Drw2dDev);    
                         427 --line109
                         428 ..lin.7bbb3f5b..98f24f90.0_16::
                         429 .LDWlin16:
00000090 3d370100        430 	ld.w	0[r29],r6
                         431 	jarl	_R_DRW2D_FramebufferClear,lp
                         431 <EXPANSION BEGIN>
                         431 jarl22 _R_DRW2D_FramebufferClear , lp 
00000094 80ff0000*       431 <EXPANSION END>
                         432 --110: }
                         433 --	    .ef
                         434 .LDW71:
                         435 --line110
                         436 ..lin.7bbb3f5b..98f24f90.0_17::
                         437 .LDWlin17:
00000098 40067f00        438 	dispose	0,{r29,r31},[lp]
                         439 ..lin.7bbb3f5b..98f24f90.0_18::
                         440 .LDWlin18:

                                                                      Page 9
                                                              C:\Users\MANGESH\AppData\Local\Temp\gh_00004k01.si
                         441 	.type	_Init_OdoSprite,@function
                         442 	.size	_Init_OdoSprite,.-_Init_OdoSprite
                         443 	.align	2
                         444 .LDW81:
                         445 --_draw_fb	r7	local
                         446 
                         447 	.section ".bss","awb"
                         448 .L174:
                         449 	.type	.L174,@object
                         450 	.size	.L174,0
                         451 	.data
                         452 	.text
                         453 
                         454 
                         455 --112: void Init_TimeSprite(void)
                         456 	.align	2
                         457 	.align	2
                         458 	.align	2
                         459 ..gh.f.a.2.e.3:
                         460 	.type	..gh.f.a.2.e.3,@object
                         461 	.size	..gh.f.a.2.e.3,0
                         462 	.global	_Init_TimeSprite
                         463 _Init_TimeSprite:
0000009c 80076100        464 	prepare	{r29,r31},0
000000a0 3d0600000000*   465 	mov	_g_Drw2dDev,r29
                         466 --	    .bf
                         467 .LDW91:
                         468 --113: {
                         469 --114:     r_drw2d_Framebuffer_t *draw_fb;
                         470 --115:     draw_fb = MbSpriteNewDrawBufGet(&Time_Sprite);
                         471 --line115
                         472 ..lin.7bbb3f5b..5f2edfbd.0_19::
                         473 .LDWlin19:
000000a6 260600000000*   474 	mov	_Time_Sprite,r6
                         475 	jarl	_MbSpriteNewDrawBufGet,lp
                         475 <EXPANSION BEGIN>
                         475 jarl22 _MbSpriteNewDrawBufGet , lp 
000000ac 80ff0000*       475 <EXPANSION END>
000000b0 0a38            476 	mov	r10,r7
                         477 --116:     R_DRW2D_FramebufferSet(g_Drw2dDev, draw_fb);
                         478 --line116
                         479 ..lin.7bbb3f5b..5f2edfbd.0_20::
                         480 .LDWlin20:
000000b2 3d370100        481 	ld.w	0[r29],r6
                         482 	jarl	_R_DRW2D_FramebufferSet,lp
                         482 <EXPANSION BEGIN>
                         482 jarl22 _R_DRW2D_FramebufferSet , lp 
000000b6 80ff0000*       482 <EXPANSION END>
                         483 --117: #if DEBUG_SPRITES
                         484 --118:     R_DRW2D_CtxBgColor(g_Drw2dDev, 0x8000ffff);
                         485 --119: #else
                         486 --120:     R_DRW2D_CtxBgColor(g_Drw2dDev, 0x00000000);
                         487 --line120
                         488 ..lin.7bbb3f5b..5f2edfbd.0_21::
                         489 .LDWlin21:
000000ba 3d370100        490 	ld.w	0[r29],r6
000000be 003a            491 	mov	0,r7
                         492 	jarl	_R_DRW2D_CtxBgColor,lp
                         492 <EXPANSION BEGIN>
                         492 jarl22 _R_DRW2D_CtxBgColor , lp 
000000c0 80ff0000*       492 <EXPANSION END>

                                                                      Page 10
                                                              C:\Users\MANGESH\AppData\Local\Temp\gh_00004k01.si
                         493 --121: #endif
                         494 --122:     R_DRW2D_FramebufferClear(g_Drw2dDev);    
                         495 --line122
                         496 ..lin.7bbb3f5b..5f2edfbd.0_22::
                         497 .LDWlin22:
000000c4 3d370100        498 	ld.w	0[r29],r6
                         499 	jarl	_R_DRW2D_FramebufferClear,lp
                         499 <EXPANSION BEGIN>
                         499 jarl22 _R_DRW2D_FramebufferClear , lp 
000000c8 80ff0000*       499 <EXPANSION END>
                         500 --123: }
                         501 --	    .ef
                         502 .LDW02:
                         503 --line123
                         504 ..lin.7bbb3f5b..5f2edfbd.0_23::
                         505 .LDWlin23:
000000cc 40067f00        506 	dispose	0,{r29,r31},[lp]
                         507 ..lin.7bbb3f5b..5f2edfbd.0_24::
                         508 .LDWlin24:
                         509 	.type	_Init_TimeSprite,@function
                         510 	.size	_Init_TimeSprite,.-_Init_TimeSprite
                         511 	.align	2
                         512 .LDW12:
                         513 --_draw_fb	r7	local
                         514 
                         515 	.section ".bss","awb"
                         516 .L238:
                         517 	.type	.L238,@object
                         518 	.size	.L238,0
                         519 	.data
                         520 	.text
                         521 
                         522 
                         523 --125: void Init_TempSprite(void)
                         524 	.align	2
                         525 	.align	2
                         526 	.align	2
                         527 ..gh.f.a.2.e.4:
                         528 	.type	..gh.f.a.2.e.4,@object
                         529 	.size	..gh.f.a.2.e.4,0
                         530 	.global	_Init_TempSprite
                         531 _Init_TempSprite:
000000d0 80076100        532 	prepare	{r29,r31},0
000000d4 3d0600000000*   533 	mov	_g_Drw2dDev,r29
                         534 --	    .bf
                         535 .LDW22:
                         536 --126: {
                         537 --127:     r_drw2d_Framebuffer_t *draw_fb;
                         538 --128:     draw_fb = MbSpriteNewDrawBufGet(&Temp_Sprite);
                         539 --line128
                         540 ..lin.7bbb3f5b..dbfdb804.0_25::
                         541 .LDWlin25:
000000da 260600000000*   542 	mov	_Temp_Sprite,r6
                         543 	jarl	_MbSpriteNewDrawBufGet,lp
                         543 <EXPANSION BEGIN>
                         543 jarl22 _MbSpriteNewDrawBufGet , lp 
000000e0 80ff0000*       543 <EXPANSION END>
000000e4 0a38            544 	mov	r10,r7
                         545 --129:     R_DRW2D_FramebufferSet(g_Drw2dDev, draw_fb);
                         546 --line129
                         547 ..lin.7bbb3f5b..dbfdb804.0_26::

                                                                      Page 11
                                                              C:\Users\MANGESH\AppData\Local\Temp\gh_00004k01.si
                         548 .LDWlin26:
000000e6 3d370100        549 	ld.w	0[r29],r6
                         550 	jarl	_R_DRW2D_FramebufferSet,lp
                         550 <EXPANSION BEGIN>
                         550 jarl22 _R_DRW2D_FramebufferSet , lp 
000000ea 80ff0000*       550 <EXPANSION END>
                         551 --130: #if DEBUG_SPRITES
                         552 --131:     R_DRW2D_CtxBgColor(g_Drw2dDev, 0x8000ffff);
                         553 --132: #else
                         554 --133:     R_DRW2D_CtxBgColor(g_Drw2dDev, 0x00000000);
                         555 --line133
                         556 ..lin.7bbb3f5b..dbfdb804.0_27::
                         557 .LDWlin27:
000000ee 3d370100        558 	ld.w	0[r29],r6
000000f2 003a            559 	mov	0,r7
                         560 	jarl	_R_DRW2D_CtxBgColor,lp
                         560 <EXPANSION BEGIN>
                         560 jarl22 _R_DRW2D_CtxBgColor , lp 
000000f4 80ff0000*       560 <EXPANSION END>
                         561 --134: #endif
                         562 --135:     R_DRW2D_FramebufferClear(g_Drw2dDev);    
                         563 --line135
                         564 ..lin.7bbb3f5b..dbfdb804.0_28::
                         565 .LDWlin28:
000000f8 3d370100        566 	ld.w	0[r29],r6
                         567 	jarl	_R_DRW2D_FramebufferClear,lp
                         567 <EXPANSION BEGIN>
                         567 jarl22 _R_DRW2D_FramebufferClear , lp 
000000fc 80ff0000*       567 <EXPANSION END>
                         568 --136: }
                         569 --	    .ef
                         570 .LDW32:
                         571 --line136
                         572 ..lin.7bbb3f5b..dbfdb804.0_29::
                         573 .LDWlin29:
00000100 40067f00        574 	dispose	0,{r29,r31},[lp]
                         575 ..lin.7bbb3f5b..dbfdb804.0_30::
                         576 .LDWlin30:
                         577 	.type	_Init_TempSprite,@function
                         578 	.size	_Init_TempSprite,.-_Init_TempSprite
                         579 	.align	2
                         580 .LDW42:
                         581 --_draw_fb	r7	local
                         582 
                         583 	.section ".bss","awb"
                         584 .L302:
                         585 	.type	.L302,@object
                         586 	.size	.L302,0
                         587 	.data
                         588 	.text
                         589 
                         590 
                         591 --138: void Init_ModeSprite(void)
                         592 	.align	2
                         593 	.align	2
                         594 	.align	2
                         595 ..gh.f.a.2.e.5:
                         596 	.type	..gh.f.a.2.e.5,@object
                         597 	.size	..gh.f.a.2.e.5,0
                         598 	.global	_Init_ModeSprite
                         599 _Init_ModeSprite:

                                                                      Page 12
                                                              C:\Users\MANGESH\AppData\Local\Temp\gh_00004k01.si
00000104 80076100        600 	prepare	{r29,r31},0
00000108 3d0600000000*   601 	mov	_g_Drw2dDev,r29
                         602 --	    .bf
                         603 .LDW52:
                         604 --139: {
                         605 --140:     r_drw2d_Framebuffer_t *draw_fb;
                         606 --141:     draw_fb = MbSpriteNewDrawBufGet(&Mode_Sprite);
                         607 --line141
                         608 ..lin.7bbb3f5b..af7f11f3.0_31::
                         609 .LDWlin31:
0000010e 260600000000*   610 	mov	_Mode_Sprite,r6
                         611 	jarl	_MbSpriteNewDrawBufGet,lp
                         611 <EXPANSION BEGIN>
                         611 jarl22 _MbSpriteNewDrawBufGet , lp 
00000114 80ff0000*       611 <EXPANSION END>
00000118 0a38            612 	mov	r10,r7
                         613 --142:     R_DRW2D_FramebufferSet(g_Drw2dDev, draw_fb);
                         614 --line142
                         615 ..lin.7bbb3f5b..af7f11f3.0_32::
                         616 .LDWlin32:
0000011a 3d370100        617 	ld.w	0[r29],r6
                         618 	jarl	_R_DRW2D_FramebufferSet,lp
                         618 <EXPANSION BEGIN>
                         618 jarl22 _R_DRW2D_FramebufferSet , lp 
0000011e 80ff0000*       618 <EXPANSION END>
                         619 --143: #if DEBUG_SPRITES
                         620 --144:     R_DRW2D_CtxBgColor(g_Drw2dDev, 0x8000ffff);
                         621 --145: #else
                         622 --146:     R_DRW2D_CtxBgColor(g_Drw2dDev, 0x00000000);
                         623 --line146
                         624 ..lin.7bbb3f5b..af7f11f3.0_33::
                         625 .LDWlin33:
00000122 3d370100        626 	ld.w	0[r29],r6
00000126 003a            627 	mov	0,r7
                         628 	jarl	_R_DRW2D_CtxBgColor,lp
                         628 <EXPANSION BEGIN>
                         628 jarl22 _R_DRW2D_CtxBgColor , lp 
00000128 80ff0000*       628 <EXPANSION END>
                         629 --147: #endif
                         630 --148:     R_DRW2D_FramebufferClear(g_Drw2dDev);    
                         631 --line148
                         632 ..lin.7bbb3f5b..af7f11f3.0_34::
                         633 .LDWlin34:
0000012c 3d370100        634 	ld.w	0[r29],r6
                         635 	jarl	_R_DRW2D_FramebufferClear,lp
                         635 <EXPANSION BEGIN>
                         635 jarl22 _R_DRW2D_FramebufferClear , lp 
00000130 80ff0000*       635 <EXPANSION END>
                         636 --149: }
                         637 --	    .ef
                         638 .LDW62:
                         639 --line149
                         640 ..lin.7bbb3f5b..af7f11f3.0_35::
                         641 .LDWlin35:
00000134 40067f00        642 	dispose	0,{r29,r31},[lp]
                         643 ..lin.7bbb3f5b..af7f11f3.0_36::
                         644 .LDWlin36:
                         645 	.type	_Init_ModeSprite,@function
                         646 	.size	_Init_ModeSprite,.-_Init_ModeSprite
                         647 	.align	2
                         648 .LDW72:

                                                                      Page 13
                                                              C:\Users\MANGESH\AppData\Local\Temp\gh_00004k01.si
                         649 --_draw_fb	r7	local
                         650 
                         651 	.section ".bss","awb"
                         652 .L366:
                         653 	.type	.L366,@object
                         654 	.size	.L366,0
                         655 	.data
                         656 	.text
                         657 
                         658 
                         659 --153: void Init_RightNeedle(void){
                         660 	.align	2
                         661 	.align	2
                         662 	.align	2
                         663 ..gh.f.a.2.e.6:
                         664 	.type	..gh.f.a.2.e.6,@object
                         665 	.size	..gh.f.a.2.e.6,0
                         666 	.global	_Init_RightNeedle
                         667 _Init_RightNeedle:
00000138 80076100        668 	prepare	{r29,r31},0
0000013c 3d0600000000*   669 	mov	_g_Drw2dDev,r29
                         670 --	    .bf
                         671 .LDW82:
                         672 --154:     r_drw2d_Framebuffer_t *draw_fb;
                         673 --155:     draw_fb = MbSpriteNewDrawBufGet(&RightNeedle);
                         674 --line155
                         675 ..lin.7bbb3f5b..e0310222.0_37::
                         676 .LDWlin37:
00000142 260600000000*   677 	mov	_RightNeedle,r6
                         678 	jarl	_MbSpriteNewDrawBufGet,lp
                         678 <EXPANSION BEGIN>
                         678 jarl22 _MbSpriteNewDrawBufGet , lp 
00000148 80ff0000*       678 <EXPANSION END>
0000014c 0a38            679 	mov	r10,r7
                         680 --156:     R_DRW2D_FramebufferSet(g_Drw2dDev, draw_fb);
                         681 --line156
                         682 ..lin.7bbb3f5b..e0310222.0_38::
                         683 .LDWlin38:
0000014e 3d370100        684 	ld.w	0[r29],r6
                         685 	jarl	_R_DRW2D_FramebufferSet,lp
                         685 <EXPANSION BEGIN>
                         685 jarl22 _R_DRW2D_FramebufferSet , lp 
00000152 80ff0000*       685 <EXPANSION END>
                         686 --157: 	
                         687 --158: #if DEBUG_SPRITES
                         688 --159:     R_DRW2D_CtxBgColor(g_Drw2dDev, 0x80ff00ff);
                         689 --160: #else
                         690 --161:     R_DRW2D_CtxBgColor(g_Drw2dDev, 0x00000000);
                         691 --line161
                         692 ..lin.7bbb3f5b..e0310222.0_39::
                         693 .LDWlin39:
00000156 3d370100        694 	ld.w	0[r29],r6
0000015a 003a            695 	mov	0,r7
                         696 	jarl	_R_DRW2D_CtxBgColor,lp
                         696 <EXPANSION BEGIN>
                         696 jarl22 _R_DRW2D_CtxBgColor , lp 
0000015c 80ff0000*       696 <EXPANSION END>
                         697 --162: #endif
                         698 --163:     R_DRW2D_FramebufferClear(g_Drw2dDev);    
                         699 --line163
                         700 ..lin.7bbb3f5b..e0310222.0_40::

                                                                      Page 14
                                                              C:\Users\MANGESH\AppData\Local\Temp\gh_00004k01.si
                         701 .LDWlin40:
00000160 3d370100        702 	ld.w	0[r29],r6
                         703 	jarl	_R_DRW2D_FramebufferClear,lp
                         703 <EXPANSION BEGIN>
                         703 jarl22 _R_DRW2D_FramebufferClear , lp 
00000164 80ff0000*       703 <EXPANSION END>
                         704 --164: }
                         705 --	    .ef
                         706 .LDW92:
                         707 --line164
                         708 ..lin.7bbb3f5b..e0310222.0_41::
                         709 .LDWlin41:
00000168 40067f00        710 	dispose	0,{r29,r31},[lp]
                         711 ..lin.7bbb3f5b..e0310222.0_42::
                         712 .LDWlin42:
                         713 	.type	_Init_RightNeedle,@function
                         714 	.size	_Init_RightNeedle,.-_Init_RightNeedle
                         715 	.align	2
                         716 .LDW03:
                         717 --_draw_fb	r7	local
                         718 
                         719 	.section ".bss","awb"
                         720 .L430:
                         721 	.type	.L430,@object
                         722 	.size	.L430,0
                         723 	.data
                         724 	.text
                         725 
                         726 
                         727 --166: void Init_MainScene(void) {
                         728 	.align	2
                         729 	.align	2
                         730 	.align	2
                         731 ..gh.f.a.2.e.7:
                         732 	.type	..gh.f.a.2.e.7,@object
                         733 	.size	..gh.f.a.2.e.7,0
                         734 	.global	_Init_MainScene
                         735 _Init_MainScene:
0000016c 80076100        736 	prepare	{r29,r31},0
00000170 3d0600000000*   737 	mov	_g_Drw2dDev,r29
                         738 --	    .bf
                         739 .LDW13:
                         740 --167:     /* Lowest Layer */
                         741 --168:     R_DRW2D_CtxImgQuality(g_Drw2dDev, R_DRW2D_IMGQUALITY_HIGH);
                         742 --line168
                         743 ..lin.7bbb3f5b..5a3cb94a.0_43::
                         744 .LDWlin43:
00000176 3d370100        745 	ld.w	0[r29],r6
0000017a 023a            746 	mov	2,r7
                         747 	jarl	_R_DRW2D_CtxImgQuality,lp
                         747 <EXPANSION BEGIN>
                         747 jarl22 _R_DRW2D_CtxImgQuality , lp 
0000017c 80ff0000*       747 <EXPANSION END>
                         748 --169:    
                         749 --170:    //Init_Background();
                         750 --171:    R_DRW2D_GpuFinish(g_Drw2dDev, R_DRW2D_FINISH_WAIT);
                         751 --line171
                         752 ..lin.7bbb3f5b..5a3cb94a.0_44::
                         753 .LDWlin44:
00000180 3d370100        754 	ld.w	0[r29],r6
00000184 013a            755 	mov	1,r7

                                                                      Page 15
                                                              C:\Users\MANGESH\AppData\Local\Temp\gh_00004k01.si
                         756 	jarl	_R_DRW2D_GpuFinish,lp
                         756 <EXPANSION BEGIN>
                         756 jarl22 _R_DRW2D_GpuFinish , lp 
00000186 80ff0000*       756 <EXPANSION END>
                         757 --172:    
                         758 --173:    
                         759 --174:     Init_LeftNeedle();
                         760 --line174
                         761 ..lin.7bbb3f5b..5a3cb94a.0_45::
                         762 .LDWlin45:
                         763 	jarl	_Init_LeftNeedle,lp
                         763 <EXPANSION BEGIN>
                         763 jarl22 _Init_LeftNeedle , lp 
0000018a bfff76fe*       763 <EXPANSION END>
                         764 --175: 	Init_SpeedSprite();
                         765 --line175
                         766 ..lin.7bbb3f5b..5a3cb94a.0_46::
                         767 .LDWlin46:
                         768 	jarl	_Init_SpeedSprite,lp
                         768 <EXPANSION BEGIN>
                         768 jarl22 _Init_SpeedSprite , lp 
0000018e bfffa6fe*       768 <EXPANSION END>
                         769 --176: 	Init_OdoSprite();
                         770 --line176
                         771 ..lin.7bbb3f5b..5a3cb94a.0_47::
                         772 .LDWlin47:
                         773 	jarl	_Init_OdoSprite,lp
                         773 <EXPANSION BEGIN>
                         773 jarl22 _Init_OdoSprite , lp 
00000192 bfffd6fe*       773 <EXPANSION END>
                         774 --177: 	Init_TimeSprite();
                         775 --line177
                         776 ..lin.7bbb3f5b..5a3cb94a.0_48::
                         777 .LDWlin48:
                         778 	jarl	_Init_TimeSprite,lp
                         778 <EXPANSION BEGIN>
                         778 jarl22 _Init_TimeSprite , lp 
00000196 bfff06ff*       778 <EXPANSION END>
                         779 --178: 	Init_TempSprite();
                         780 --line178
                         781 ..lin.7bbb3f5b..5a3cb94a.0_49::
                         782 .LDWlin49:
                         783 	jarl	_Init_TempSprite,lp
                         783 <EXPANSION BEGIN>
                         783 jarl22 _Init_TempSprite , lp 
0000019a bfff36ff*       783 <EXPANSION END>
                         784 --179: 	Init_ModeSprite();
                         785 --line179
                         786 ..lin.7bbb3f5b..5a3cb94a.0_50::
                         787 .LDWlin50:
                         788 	jarl	_Init_ModeSprite,lp
                         788 <EXPANSION BEGIN>
                         788 jarl22 _Init_ModeSprite , lp 
0000019e bfff66ff*       788 <EXPANSION END>
                         789 --180: 	
                         790 --181: 	
                         791 --182: 	//Init_RightNeedle();
                         792 --184:     R_DRW2D_GpuFinish(g_Drw2dDev, R_DRW2D_FINISH_WAIT);
                         793 --line184
                         794 ..lin.7bbb3f5b..5a3cb94a.0_51::
                         795 .LDWlin51:

                                                                      Page 16
                                                              C:\Users\MANGESH\AppData\Local\Temp\gh_00004k01.si
000001a2 3d370100        796 	ld.w	0[r29],r6
000001a6 013a            797 	mov	1,r7
                         798 	jarl	_R_DRW2D_GpuFinish,lp
                         798 <EXPANSION BEGIN>
                         798 jarl22 _R_DRW2D_GpuFinish , lp 
000001a8 80ff0000*       798 <EXPANSION END>
                         799 --185:     /* Sprite swap */
                         800 --187:     MbSpriteSwap(&LeftNeedle);
                         801 --line187
                         802 ..lin.7bbb3f5b..5a3cb94a.0_52::
                         803 .LDWlin52:
000001ac 260600000000*   804 	mov	_LeftNeedle,r6
                         805 	jarl	_MbSpriteSwap,lp
                         805 <EXPANSION BEGIN>
                         805 jarl22 _MbSpriteSwap , lp 
000001b2 80ff0000*       805 <EXPANSION END>
                         806 --188: 	MbSpriteSwap(&Speed_Sprite);
                         807 --line188
                         808 ..lin.7bbb3f5b..5a3cb94a.0_53::
                         809 .LDWlin53:
000001b6 260600000000*   810 	mov	_Speed_Sprite,r6
                         811 	jarl	_MbSpriteSwap,lp
                         811 <EXPANSION BEGIN>
                         811 jarl22 _MbSpriteSwap , lp 
000001bc 80ff0000*       811 <EXPANSION END>
                         812 --189: 	MbSpriteSwap(&Odo_Sprite);
                         813 --line189
                         814 ..lin.7bbb3f5b..5a3cb94a.0_54::
                         815 .LDWlin54:
000001c0 260600000000*   816 	mov	_Odo_Sprite,r6
                         817 	jarl	_MbSpriteSwap,lp
                         817 <EXPANSION BEGIN>
                         817 jarl22 _MbSpriteSwap , lp 
000001c6 80ff0000*       817 <EXPANSION END>
                         818 --190: 	MbSpriteSwap(&Time_Sprite);
                         819 --line190
                         820 ..lin.7bbb3f5b..5a3cb94a.0_55::
                         821 .LDWlin55:
000001ca 260600000000*   822 	mov	_Time_Sprite,r6
                         823 	jarl	_MbSpriteSwap,lp
                         823 <EXPANSION BEGIN>
                         823 jarl22 _MbSpriteSwap , lp 
000001d0 80ff0000*       823 <EXPANSION END>
                         824 --191: 	MbSpriteSwap(&Temp_Sprite);
                         825 --line191
                         826 ..lin.7bbb3f5b..5a3cb94a.0_56::
                         827 .LDWlin56:
000001d4 260600000000*   828 	mov	_Temp_Sprite,r6
                         829 	jarl	_MbSpriteSwap,lp
                         829 <EXPANSION BEGIN>
                         829 jarl22 _MbSpriteSwap , lp 
000001da 80ff0000*       829 <EXPANSION END>
                         830 --192: 	MbSpriteSwap(&Mode_Sprite);
                         831 --line192
                         832 ..lin.7bbb3f5b..5a3cb94a.0_57::
                         833 .LDWlin57:
000001de 260600000000*   834 	mov	_Mode_Sprite,r6
                         835 	jarl	_MbSpriteSwap,lp
                         835 <EXPANSION BEGIN>
                         835 jarl22 _MbSpriteSwap , lp 
000001e4 80ff0000*       835 <EXPANSION END>

                                                                      Page 17
                                                              C:\Users\MANGESH\AppData\Local\Temp\gh_00004k01.si
                         836 --193:     
                         837 --194: 	//R_WM_WindowSwap(FLASHDASH_WM_UNIT, &g_Window);
                         838 --195: 	
                         839 --196:     R_WM_FrameEndMark(FLASHDASH_WM_UNIT, 0);
                         840 --line196
                         841 ..lin.7bbb3f5b..5a3cb94a.0_58::
                         842 .LDWlin58:
000001e8 0032            843 	mov	0,r6
000001ea 003a            844 	mov	0,r7
                         845 	jarl	_R_WM_FrameEndMark,lp
                         845 <EXPANSION BEGIN>
                         845 jarl22 _R_WM_FrameEndMark , lp 
000001ec 80ff0000*       845 <EXPANSION END>
                         846 --197:     R_WM_FrameWait(FLASHDASH_WM_UNIT, 0);
                         847 --line197
                         848 ..lin.7bbb3f5b..5a3cb94a.0_59::
                         849 .LDWlin59:
000001f0 0032            850 	mov	0,r6
000001f2 003a            851 	mov	0,r7
                         852 	jarl	_R_WM_FrameWait,lp
                         852 <EXPANSION BEGIN>
                         852 jarl22 _R_WM_FrameWait , lp 
000001f4 80ff0000*       852 <EXPANSION END>
                         853 --198:     srand(R_TICK_GetTimeMS(0));
                         854 --line198
                         855 ..lin.7bbb3f5b..5a3cb94a.0_60::
                         856 .LDWlin60:
000001f8 0032            857 	mov	0,r6
                         858 	jarl	_R_TICK_GetTimeMS,lp
                         858 <EXPANSION BEGIN>
                         858 jarl22 _R_TICK_GetTimeMS , lp 
000001fa 80ff0000*       858 <EXPANSION END>
000001fe 0a30            859 	mov	r10,r6
                         860 	jarl	_srand,lp
                         860 <EXPANSION BEGIN>
                         860 jarl22 _srand , lp 
00000200 80ff0000*       860 <EXPANSION END>
                         861 --199: }
                         862 --	    .ef
                         863 .LDW23:
                         864 --line199
                         865 ..lin.7bbb3f5b..5a3cb94a.0_61::
                         866 .LDWlin61:
00000204 40067f00        867 	dispose	0,{r29,r31},[lp]
                         868 ..lin.7bbb3f5b..5a3cb94a.0_62::
                         869 .LDWlin62:
                         870 	.type	_Init_MainScene,@function
                         871 	.size	_Init_MainScene,.-_Init_MainScene
                         872 	.align	2
                         873 .LDW33:
                         874 
                         875 	.section ".bss","awb"
                         876 .L550:
                         877 	.type	.L550,@object
                         878 	.size	.L550,0
                         879 	.data
                         880 	.text
                         881 
                         882 
                         883 --201: float64_t CalculateAngleLeft(float32_t kph)
                         884 	.align	2

                                                                      Page 18
                                                              C:\Users\MANGESH\AppData\Local\Temp\gh_00004k01.si
                         885 	.align	2
                         886 	.align	2
                         887 ..gh.f.a.2.e.8:
                         888 	.type	..gh.f.a.2.e.8,@object
                         889 	.size	..gh.f.a.2.e.8,0
                         890 	.global	_CalculateAngleLeft
                         891 _CalculateAngleLeft:
00000208 2b06008048c0    892 	mov	-1068990464,r11
0000020e 0052            893 	mov	0,r10
                         894 --	    .bf
                         895 .LDW43:
                         896 --202: {
                         897 --203: 	float64_t final_angle = -49;
                         898 --line203
                         899 ..lin.7bbb3f5b..4aa5bd44.0_63::
                         900 .LDWlin63:
00000210 0a60            901 	mov	r10,r12
00000212 0b68            902 	mov	r11,r13
                         903 --204: 	float64_t angle_min = -49;//-45.44470326;
                         904 --205:     float64_t angle_max = 230;//180 + 29.48890781;
00000214 290600c06c40    905 	mov	1080868864,r9
0000021a 0042            906 	mov	0,r8
                         907 --206: 	
                         908 --207: 	final_angle = ((kph/255)  * 1 * (angle_max - angle_min)) + angle_min;
                         909 --line207
                         910 ..lin.7bbb3f5b..4aa5bd44.0_64::
                         911 .LDWlin64:
0000021c 400e7f43        912 	movhi	hi(1132396544),zero,r1
00000220 4076803f        913 	movhi	hi(1065353216),zero,r14
00000224 e1376e0c        914 	divf.s	r1,r6,r1
00000228 ea477234        915 	subf.d	r10,r8,r6
0000022c ee0f640c        916 	mulf.s	r14,r1,r1
00000230 e20f5264        917 	cvtf.sd	r1,r12
00000234 e6677464        918 	mulf.d	r6,r12,r12
00000238 ea677064        919 	addf.d	r10,r12,r12
                         920 --208: 	
                         921 --209: 	if(final_angle > angle_max)
                         922 --line209
                         923 ..lin.7bbb3f5b..4aa5bd44.0_65::
                         924 .LDWlin65:
0000023c e8673074        925 	cmpf.d	le,r12,r8,0
00000240 e0070004        926 	trfsr	0
00000244 b205*           927 	be	.L618
                         928 --210: 		final_angle = angle_max;
                         929 --line210
                         930 ..lin.7bbb3f5b..4aa5bd44.0_66::
                         931 .LDWlin66:
00000246 0860            932 	mov	r8,r12
00000248 0968            933 	mov	r9,r13
                         934 .L618:
                         935 --211: 	if(final_angle < angle_min)
0000024a ec573274        936 	cmpf.d	le,r10,r12,1
0000024e e0070204        937 	trfsr	1
00000252 b205*           938 	be	.L616
                         939 --212: 		final_angle = angle_min;
                         940 --line212
                         941 ..lin.7bbb3f5b..4aa5bd44.0_67::
                         942 .LDWlin67:
00000254 0a60            943 	mov	r10,r12
00000256 0b68            944 	mov	r11,r13
                         945 --213: 	

                                                                      Page 19
                                                              C:\Users\MANGESH\AppData\Local\Temp\gh_00004k01.si
                         946 --214: 	return final_angle;
                         947 .L616:
                         948 --	    .ef
                         949 .LDW53:
00000258 0c50            950 	mov	r12,r10
0000025a 0d58            951 	mov	r13,r11
                         952 	.jumptype return
0000025c 7f00            953 	jmp	[lp]
                         954 ..lin.7bbb3f5b..4aa5bd44.0_68::
                         955 .LDWlin68:
                         956 	.type	_CalculateAngleLeft,@function
                         957 	.size	_CalculateAngleLeft,.-_CalculateAngleLeft
                         958 	.align	2
                         959 .LDW63:
                         960 --_final_angle	r12	local
                         961 --_angle_min	r10	local
                         962 --_angle_max	r8	local
                         963 
                         964 --_kph	r6	param
                         965 
                         966 	.section ".bss","awb"
                         967 .L670:
                         968 	.type	.L670,@object
                         969 	.size	.L670,0
                         970 	.data
                         971 	.text
                         972 
                         973 --215:     //return kph/220  * KPH_FACTOR * (angle_max - angle_min) + angle_min;
                         974 --216: 	
                         975 --217: 	
                         976 --218: }
                         977 
                         978 --220: float64_t CalculateAngleRight(float32_t rpm)
                         979 	.align	2
                         980 	.align	2
                         981 	.align	2
                         982 ..gh.f.a.2.e.9:
                         983 	.type	..gh.f.a.2.e.9,@object
                         984 	.size	..gh.f.a.2.e.9,0
                         985 	.global	_CalculateAngleRight
                         986 _CalculateAngleRight:
                         987 --	    .bf
                         988 .LDW73:
                         989 --221: {
                         990 --222: 	float64_t final_angle = -21;
0000025e 406e35c0        991 	movhi	49205,zero,r13
00000262 0062            992 	mov	0,r12
                         993 --223:     float64_t angle_min = -45;//-21;//-96.44470326;
                         994 --line223
                         995 ..lin.7bbb3f5b..9fcc2d77.0_69::
                         996 .LDWlin69:
00000264 2b06008046c0    997 	mov	-1069121536,r11
0000026a 0052            998 	mov	0,r10
                         999 --224:     float64_t angle_max = 135;//132;
                        1000 --line224
                        1001 ..lin.7bbb3f5b..9fcc2d77.0_70::
                        1002 .LDWlin70:
0000026c 290600e06040   1003 	mov	1080090624,r9
00000272 0042           1004 	mov	0,r8
                        1005 --225: 	
                        1006 --226: 	final_angle = ((rpm /8000) * (angle_max - angle_min)) + angle_min;

                                                                      Page 20
                                                              C:\Users\MANGESH\AppData\Local\Temp\gh_00004k01.si
                        1007 --line226
                        1008 ..lin.7bbb3f5b..9fcc2d77.0_71::
                        1009 .LDWlin71:
00000274 400efa45       1010 	movhi	hi(1174011904),zero,r1
00000278 e1376e0c       1011 	divf.s	r1,r6,r1
0000027c ea477234       1012 	subf.d	r10,r8,r6
00000280 e20f5264       1013 	cvtf.sd	r1,r12
00000284 e6677464       1014 	mulf.d	r6,r12,r12
00000288 ea677064       1015 	addf.d	r10,r12,r12
                        1016 --227: 	
                        1017 --228: 	if(final_angle > angle_max)
                        1018 --line228
                        1019 ..lin.7bbb3f5b..9fcc2d77.0_72::
                        1020 .LDWlin72:
0000028c e8673074       1021 	cmpf.d	le,r12,r8,0
00000290 e0070004       1022 	trfsr	0
00000294 b205*          1023 	be	.L708
                        1024 --229: 		final_angle = angle_max;
                        1025 --line229
                        1026 ..lin.7bbb3f5b..9fcc2d77.0_73::
                        1027 .LDWlin73:
00000296 0860           1028 	mov	r8,r12
00000298 0968           1029 	mov	r9,r13
                        1030 .L708:
                        1031 --230: 	if(final_angle < angle_min)
0000029a ec573274       1032 	cmpf.d	le,r10,r12,1
0000029e e0070204       1033 	trfsr	1
000002a2 b205*          1034 	be	.L710
                        1035 --231: 		final_angle = angle_min;
                        1036 --line231
                        1037 ..lin.7bbb3f5b..9fcc2d77.0_74::
                        1038 .LDWlin74:
000002a4 0a60           1039 	mov	r10,r12
000002a6 0b68           1040 	mov	r11,r13
                        1041 .L710:
                        1042 --232: 	
                        1043 --233: 	return final_angle;
000002a8 0c50           1044 	mov	r12,r10
000002aa 0d58           1045 	mov	r13,r11
                        1046 --	    .ef
                        1047 .LDW83:
                        1048 	.jumptype return
000002ac 7f00           1049 	jmp	[lp]
                        1050 ..lin.7bbb3f5b..9fcc2d77.0_75::
                        1051 .LDWlin75:
                        1052 	.type	_CalculateAngleRight,@function
                        1053 	.size	_CalculateAngleRight,.-_CalculateAngleRight
                        1054 	.align	2
                        1055 .LDW93:
                        1056 --_final_angle	r12	local
                        1057 --_angle_min	r10	local
                        1058 --_angle_max	r8	local
                        1059 
                        1060 --_rpm	r6	param
                        1061 
                        1062 	.section ".bss","awb"
                        1063 .L766:
                        1064 	.type	.L766,@object
                        1065 	.size	.L766,0
                        1066 	.data
                        1067 	.text

                                                                      Page 21
                                                              C:\Users\MANGESH\AppData\Local\Temp\gh_00004k01.si
                        1068 
                        1069 --234: 	
                        1070 --235:     //return rpm /8000 * (angle_max - angle_min) + angle_min;    
                        1071 --236: }
                        1072 
                        1073 --238: uint32_t IncIndex(uint32_t index){
                        1074 	.align	2
                        1075 	.align	2
                        1076 	.align	2
                        1077 ..gh.f.a.2.e.10:
                        1078 	.type	..gh.f.a.2.e.10,@object
                        1079 	.size	..gh.f.a.2.e.10,0
                        1080 	.global	_IncIndex
                        1081 _IncIndex:
                        1082 --	    .bf
                        1083 .LDW04:
                        1084 --239:     index+=1;
000002ae 4132           1085 	add	1,r6
                        1086 --240:     if(index >= 2) index = 0;
000002b0 6232           1087 	cmp	2,r6
000002b2 e0373233       1088 	cmovnl	zero,r6,r6
                        1089 --241:     return index;
000002b6 0650           1090 	mov	r6,r10
                        1091 --	    .ef
                        1092 .LDW14:
                        1093 	.jumptype return
000002b8 7f00           1094 	jmp	[lp]
                        1095 ..lin.7bbb3f5b..8aec04b6.0_76::
                        1096 .LDWlin76:
                        1097 	.type	_IncIndex,@function
                        1098 	.size	_IncIndex,.-_IncIndex
                        1099 	.align	2
                        1100 .LDW24:
                        1101 
                        1102 --_index	r6	param
                        1103 
                        1104 	.section ".bss","awb"
                        1105 .L840:
                        1106 	.type	.L840,@object
                        1107 	.size	.L840,0
                        1108 	.data
                        1109 	.text
                        1110 
                        1111 --242: }
                        1112 
                        1113 --247: void Setup_LeftNeedleParameters(r_drw2d_Point_t *rot_center_p,
                        1114 	.align	2
                        1115 	.align	2
                        1116 	.align	2
                        1117 ..gh.f.a.2.e.11:
                        1118 	.type	..gh.f.a.2.e.11,@object
                        1119 	.size	..gh.f.a.2.e.11,0
                        1120 	.global	_Setup_LeftNeedleParameters
                        1121 _Setup_LeftNeedleParameters:
000002ba 8407e170       1122 	prepare	{r25,r26,r27,r28,r29,r31},2
000002be 06d0           1123 	mov	r6,r26
000002c0 07c8           1124 	mov	r7,r25
000002c2 3d0600000000*  1125 	mov	_WindowNeedle,r29
000002c8 3c0600000000*  1126 	mov	_LeftNeedle,r28
000002ce 3b0600000000*  1127 	mov	_SpeedSprite,r27
                        1128 --	    .bf

                                                                      Page 22
                                                              C:\Users\MANGESH\AppData\Local\Temp\gh_00004k01.si
                        1129 .LDW34:
                        1130 --248:                                 r_drw2d_Point_t *tex_rot_center_p)
                        1131 --249: {
                        1132 --250:     r_drw2d_Point_t tmp;
                        1133 --251:     
                        1134 --252:     tmp.X = R_DRW2D_2X(WindowNeedle.PosX + MbSpriteDrawPosXGet(&LeftNeedle) - SpeedSprite.PosX );
                        1135 --line252
                        1136 ..lin.7bbb3f5b..a0ef0c00.0_77::
                        1137 .LDWlin77:
000002d4 1c30           1138 	mov	r28,r6
                        1139 	jarl	_MbSpriteDrawPosXGet,lp
                        1139 <EXPANSION BEGIN>
                        1139 jarl22 _MbSpriteDrawPosXGet , lp 
000002d6 80ff0000*      1139 <EXPANSION END>
000002da 3d0f0d00       1140 	ld.w	12[r29],r1
000002de 3b771100       1141 	ld.w	16[r27],r14
000002e2 ca09           1142 	add	r10,r1
000002e4 ae09           1143 	sub	r14,r1
000002e6 d00a           1144 	shl	16,r1
000002e8 630f0100       1145 	st.w	r1,0[sp]
                        1146 --253:     tmp.Y = R_DRW2D_2X(WindowNeedle.PosY + MbSpriteDrawPosYGet(&LeftNeedle) - SpeedSprite.PosY );
                        1147 --line253
                        1148 ..lin.7bbb3f5b..a0ef0c00.0_78::
                        1149 .LDWlin78:
000002ec 1c30           1150 	mov	r28,r6
                        1151 	jarl	_MbSpriteDrawPosYGet,lp
                        1151 <EXPANSION BEGIN>
                        1151 jarl22 _MbSpriteDrawPosYGet , lp 
000002ee 80ff0000*      1151 <EXPANSION END>
000002f2 3d0f1100       1152 	ld.w	16[r29],r1
000002f6 3b771500       1153 	ld.w	20[r27],r14
000002fa ca09           1154 	add	r10,r1
000002fc ae09           1155 	sub	r14,r1
000002fe d00a           1156 	shl	16,r1
00000300 630f0500       1157 	st.w	r1,4[sp]
                        1158 --254:     SetNeedleRefreshSpritePos(tmp);
                        1159 --line254
                        1160 ..lin.7bbb3f5b..a0ef0c00.0_79::
                        1161 .LDWlin79:
00000304 a30709300000   1162 	ld.dw	0[sp],r6
                        1163 	jarl	_SetNeedleRefreshSpritePos,lp
                        1163 <EXPANSION BEGIN>
                        1163 jarl22 _SetNeedleRefreshSpritePos , lp 
0000030a 80ff0000*      1163 <EXPANSION END>
                        1164 --256:     tmp.X = R_DRW2D_2X(WindowNeedle.PosX + MbSpriteDrawPosXGet(&LeftNeedle));
                        1165 --line256
                        1166 ..lin.7bbb3f5b..a0ef0c00.0_80::
                        1167 .LDWlin80:
0000030e 1c30           1168 	mov	r28,r6
                        1169 	jarl	_MbSpriteDrawPosXGet,lp
                        1169 <EXPANSION BEGIN>
                        1169 jarl22 _MbSpriteDrawPosXGet , lp 
00000310 80ff0000*      1169 <EXPANSION END>
00000314 3d0f0d00       1170 	ld.w	12[r29],r1
00000318 ca09           1171 	add	r10,r1
0000031a d00a           1172 	shl	16,r1
0000031c 630f0100       1173 	st.w	r1,0[sp]
                        1174 --257:     tmp.Y = R_DRW2D_2X(WindowNeedle.PosY + MbSpriteDrawPosYGet(&LeftNeedle));
                        1175 --line257
                        1176 ..lin.7bbb3f5b..a0ef0c00.0_81::
                        1177 .LDWlin81:

                                                                      Page 23
                                                              C:\Users\MANGESH\AppData\Local\Temp\gh_00004k01.si
00000320 1c30           1178 	mov	r28,r6
                        1179 	jarl	_MbSpriteDrawPosYGet,lp
                        1179 <EXPANSION BEGIN>
                        1179 jarl22 _MbSpriteDrawPosYGet , lp 
00000322 80ff0000*      1179 <EXPANSION END>
00000326 3d0f1100       1180 	ld.w	16[r29],r1
0000032a ca09           1181 	add	r10,r1
0000032c d00a           1182 	shl	16,r1
0000032e 630f0500       1183 	st.w	r1,4[sp]
                        1184 --259: 	rot_center_p->X     = R_DRW2D_2X(my_R_X) - tmp.X;
                        1185 --line259
                        1186 ..lin.7bbb3f5b..a0ef0c00.0_82::
                        1187 .LDWlin82:
00000332 210600000000*  1188 	mov	_my_R_X,r1
00000338 210f0100       1189 	ld.w	0[r1],r1
0000033c 23770100       1190 	ld.w	0[sp],r14
00000340 d00a           1191 	shl	16,r1
00000342 ae09           1192 	sub	r14,r1
00000344 7a0f0100       1193 	st.w	r1,0[r26]
                        1194 --260:     rot_center_p->Y     = R_DRW2D_2X(my_R_Y) - tmp.Y;
                        1195 --line260
                        1196 ..lin.7bbb3f5b..a0ef0c00.0_83::
                        1197 .LDWlin83:
00000348 210600000000*  1198 	mov	_my_R_Y,r1
0000034e 210f0100       1199 	ld.w	0[r1],r1
00000352 23770500       1200 	ld.w	4[sp],r14
00000356 d00a           1201 	shl	16,r1
00000358 ae09           1202 	sub	r14,r1
0000035a 7a0f0500       1203 	st.w	r1,4[r26]
                        1204 --261: 	
                        1205 --262: 	//tex_rot_center_p->X = R_DRW2D_2X(151);//168.93168-.5);
                        1206 --263:     //tex_rot_center_p->Y = R_DRW2D_2X( 48);// 17);
                        1207 --264: 	
                        1208 --265: 	tex_rot_center_p->X = R_DRW2D_2X(169);
                        1209 --line265
                        1210 ..lin.7bbb3f5b..a0ef0c00.0_84::
                        1211 .LDWlin84:
0000035e 400ea900       1212 	movhi	hi(11075584),zero,r1
00000362 790f0100       1213 	st.w	r1,0[r25]
                        1214 --266:     tex_rot_center_p->Y = R_DRW2D_2X( 39);
                        1215 --line266
                        1216 ..lin.7bbb3f5b..a0ef0c00.0_85::
                        1217 .LDWlin85:
00000366 400e2700       1218 	movhi	hi(2555904),zero,r1
0000036a 790f0500       1219 	st.w	r1,4[r25]
                        1220 --267: 	
                        1221 --268: }
                        1222 --	    .ef
                        1223 .LDW44:
                        1224 --line268
                        1225 ..lin.7bbb3f5b..a0ef0c00.0_86::
                        1226 .LDWlin86:
0000036e 4406ff70       1227 	dispose	2,{r25,r26,r27,r28,r29,r31},[lp]
                        1228 ..lin.7bbb3f5b..a0ef0c00.0_87::
                        1229 .LDWlin87:
                        1230 	.type	_Setup_LeftNeedleParameters,@function
                        1231 	.size	_Setup_LeftNeedleParameters,.-_Setup_LeftNeedleParameters
                        1232 	.align	2
                        1233 .LDW54:
                        1234 --_tmp	0[sp]	local
                        1235 

                                                                      Page 24
                                                              C:\Users\MANGESH\AppData\Local\Temp\gh_00004k01.si
                        1236 --_rot_center_p	r26	param
                        1237 --_tex_rot_center_p	r25	param
                        1238 
                        1239 	.section ".bss","awb"
                        1240 .L914:
                        1241 	.type	.L914,@object
                        1242 	.size	.L914,0
                        1243 	.data
                        1244 	.text
                        1245 
                        1246 
                        1247 --270: void Setup_RightNeedleParameters(r_drw2d_Point_t *rot_center_p,
                        1248 	.align	2
                        1249 	.align	2
                        1250 	.align	2
                        1251 ..gh.f.a.2.e.12:
                        1252 	.type	..gh.f.a.2.e.12,@object
                        1253 	.size	..gh.f.a.2.e.12,0
                        1254 	.global	_Setup_RightNeedleParameters
                        1255 _Setup_RightNeedleParameters:
00000372 8407e170       1256 	prepare	{r25,r26,r27,r28,r29,r31},2
00000376 06d0           1257 	mov	r6,r26
00000378 07c8           1258 	mov	r7,r25
0000037a 3d0600000000*  1259 	mov	_WindowNeedle,r29
00000380 3c0600000000*  1260 	mov	_RightNeedle,r28
00000386 3b0600000000*  1261 	mov	_TachoSprite,r27
                        1262 --	    .bf
                        1263 .LDW64:
                        1264 --271:                                 r_drw2d_Point_t *tex_rot_center_p)
                        1265 --272: {
                        1266 --273:     r_drw2d_Point_t tmp;
                        1267 --274:     
                        1268 --275:     tmp.X = R_DRW2D_2X(WindowNeedle.PosX + MbSpriteDrawPosXGet(&RightNeedle) - TachoSprite.PosX );
                        1269 --line275
                        1270 ..lin.7bbb3f5b..3df66d93.0_88::
                        1271 .LDWlin88:
0000038c 1c30           1272 	mov	r28,r6
                        1273 	jarl	_MbSpriteDrawPosXGet,lp
                        1273 <EXPANSION BEGIN>
                        1273 jarl22 _MbSpriteDrawPosXGet , lp 
0000038e 80ff0000*      1273 <EXPANSION END>
00000392 3d0f0d00       1274 	ld.w	12[r29],r1
00000396 3b771100       1275 	ld.w	16[r27],r14
0000039a ca09           1276 	add	r10,r1
0000039c ae09           1277 	sub	r14,r1
0000039e d00a           1278 	shl	16,r1
000003a0 630f0100       1279 	st.w	r1,0[sp]
                        1280 --276:     tmp.Y = R_DRW2D_2X(WindowNeedle.PosY + MbSpriteDrawPosYGet(&RightNeedle) - TachoSprite.PosY );
                        1281 --line276
                        1282 ..lin.7bbb3f5b..3df66d93.0_89::
                        1283 .LDWlin89:
000003a4 1c30           1284 	mov	r28,r6
                        1285 	jarl	_MbSpriteDrawPosYGet,lp
                        1285 <EXPANSION BEGIN>
                        1285 jarl22 _MbSpriteDrawPosYGet , lp 
000003a6 80ff0000*      1285 <EXPANSION END>
000003aa 3d0f1100       1286 	ld.w	16[r29],r1
000003ae 3b771500       1287 	ld.w	20[r27],r14
000003b2 ca09           1288 	add	r10,r1
000003b4 ae09           1289 	sub	r14,r1
000003b6 d00a           1290 	shl	16,r1

                                                                      Page 25
                                                              C:\Users\MANGESH\AppData\Local\Temp\gh_00004k01.si
000003b8 630f0500       1291 	st.w	r1,4[sp]
                        1292 --277:     SetNeedleRefreshSpritePos(tmp);
                        1293 --line277
                        1294 ..lin.7bbb3f5b..3df66d93.0_90::
                        1295 .LDWlin90:
000003bc a30709300000   1296 	ld.dw	0[sp],r6
                        1297 	jarl	_SetNeedleRefreshSpritePos,lp
                        1297 <EXPANSION BEGIN>
                        1297 jarl22 _SetNeedleRefreshSpritePos , lp 
000003c2 80ff0000*      1297 <EXPANSION END>
                        1298 --279:     tmp.X = R_DRW2D_2X(WindowNeedle.PosX + MbSpriteDrawPosXGet(&RightNeedle));
                        1299 --line279
                        1300 ..lin.7bbb3f5b..3df66d93.0_91::
                        1301 .LDWlin91:
000003c6 1c30           1302 	mov	r28,r6
                        1303 	jarl	_MbSpriteDrawPosXGet,lp
                        1303 <EXPANSION BEGIN>
                        1303 jarl22 _MbSpriteDrawPosXGet , lp 
000003c8 80ff0000*      1303 <EXPANSION END>
000003cc 3d0f0d00       1304 	ld.w	12[r29],r1
000003d0 ca09           1305 	add	r10,r1
000003d2 d00a           1306 	shl	16,r1
000003d4 630f0100       1307 	st.w	r1,0[sp]
                        1308 --280:     tmp.Y = R_DRW2D_2X(WindowNeedle.PosY + MbSpriteDrawPosYGet(&RightNeedle));
                        1309 --line280
                        1310 ..lin.7bbb3f5b..3df66d93.0_92::
                        1311 .LDWlin92:
000003d8 1c30           1312 	mov	r28,r6
                        1313 	jarl	_MbSpriteDrawPosYGet,lp
                        1313 <EXPANSION BEGIN>
                        1313 jarl22 _MbSpriteDrawPosYGet , lp 
000003da 80ff0000*      1313 <EXPANSION END>
000003de 3d0f1100       1314 	ld.w	16[r29],r1
000003e2 ca09           1315 	add	r10,r1
000003e4 d00a           1316 	shl	16,r1
000003e6 630f0500       1317 	st.w	r1,4[sp]
                        1318 --282: 	rot_center_p->X     = R_DRW2D_2X(my_L_X) - tmp.X;
                        1319 --line282
                        1320 ..lin.7bbb3f5b..3df66d93.0_93::
                        1321 .LDWlin93:
000003ea 210600000000*  1322 	mov	_my_L_X,r1
000003f0 210f0100       1323 	ld.w	0[r1],r1
000003f4 23770100       1324 	ld.w	0[sp],r14
000003f8 d00a           1325 	shl	16,r1
000003fa ae09           1326 	sub	r14,r1
000003fc 7a0f0100       1327 	st.w	r1,0[r26]
                        1328 --283:     rot_center_p->Y     = R_DRW2D_2X(my_L_Y) - tmp.Y;
                        1329 --line283
                        1330 ..lin.7bbb3f5b..3df66d93.0_94::
                        1331 .LDWlin94:
00000400 210600000000*  1332 	mov	_my_L_Y,r1
00000406 210f0100       1333 	ld.w	0[r1],r1
0000040a 23770500       1334 	ld.w	4[sp],r14
0000040e d00a           1335 	shl	16,r1
00000410 ae09           1336 	sub	r14,r1
00000412 7a0f0500       1337 	st.w	r1,4[r26]
                        1338 --284: 	
                        1339 --285: 	tex_rot_center_p->X = R_DRW2D_2X(129);//159);//168.93168-.5);
                        1340 --line285
                        1341 ..lin.7bbb3f5b..3df66d93.0_95::
                        1342 .LDWlin95:

                                                                      Page 26
                                                              C:\Users\MANGESH\AppData\Local\Temp\gh_00004k01.si
00000416 400e8100       1343 	movhi	hi(8454144),zero,r1
0000041a 790f0100       1344 	st.w	r1,0[r25]
                        1345 --286:     tex_rot_center_p->Y = R_DRW2D_2X( 26);//32);// 17);
                        1346 --line286
                        1347 ..lin.7bbb3f5b..3df66d93.0_96::
                        1348 .LDWlin96:
0000041e 400e1a00       1349 	movhi	hi(1703936),zero,r1
00000422 790f0500       1350 	st.w	r1,4[r25]
                        1351 --287: 	
                        1352 --288: }
                        1353 --	    .ef
                        1354 .LDW74:
                        1355 --line288
                        1356 ..lin.7bbb3f5b..3df66d93.0_97::
                        1357 .LDWlin97:
00000426 4406ff70       1358 	dispose	2,{r25,r26,r27,r28,r29,r31},[lp]
                        1359 ..lin.7bbb3f5b..3df66d93.0_98::
                        1360 .LDWlin98:
                        1361 	.type	_Setup_RightNeedleParameters,@function
                        1362 	.size	_Setup_RightNeedleParameters,.-_Setup_RightNeedleParameters
                        1363 	.align	2
                        1364 .LDW84:
                        1365 --_tmp	0[sp]	local
                        1366 
                        1367 --_rot_center_p	r26	param
                        1368 --_tex_rot_center_p	r25	param
                        1369 
                        1370 	.section ".bss","awb"
                        1371 .L1010:
                        1372 	.type	.L1010,@object
                        1373 	.size	.L1010,0
                        1374 	.data
                        1375 	.text
                        1376 
                        1377 
                        1378 --291: void Clear_Needle_Left(float64_t angle, r_drw2d_Point_t rot_center, r_drw2d_Point_t tex_rot_center,
                        1379 	.assert 0x0 + (.L1097 - .L1082) +0 == 0
                        1380 	.align	2
                        1381 	.align	2
                        1382 	.align	2
                        1383 ..gh.f.a.2.e.13:
                        1384 	.type	..gh.f.a.2.e.13,@object
                        1385 	.size	..gh.f.a.2.e.13,0
                        1386 	.global	_Clear_Needle_Left
                        1387 _Clear_Needle_Left:
0000042a 031ed0ff       1388 	addi	-48,sp,sp
0000042e 63472900       1389 	st.w	r8,40[sp]
00000432 634f2d00       1390 	st.w	r9,44[sp]
00000436 63ff1d00       1391 	st.w	lp,28[sp]
0000043a 23773d00       1392 	ld.w	60[sp],r14
0000043e 230f3900       1393 	ld.w	56[sp],r1
00000442 63ef1100       1394 	st.w	r29,16[sp]
00000446 63df1500       1395 	st.w	r27,20[sp]
0000044a 63d71900       1396 	st.w	r26,24[sp]
0000044e 3d0600000000*  1397 	mov	.L1082,r29
00000454 07d8           1398 	mov	r7,r27
00000456 06d0           1399 	mov	r6,r26
                        1400 --	    .bf
                        1401 .LDW94:
                        1402 --292:                   MultiBufferSprite_t *MBSprite, uint32_t is_left) {
                        1403 --293:     r_drw2d_Framebuffer_t *draw_fb;

                                                                      Page 27
                                                              C:\Users\MANGESH\AppData\Local\Temp\gh_00004k01.si
                        1404 --294:     static r_drw2d_Texture_t *needle = &gauge_needle2_texture;
                        1405 --295:     
                        1406 --296:     draw_fb = MbSpriteNewDrawBufGet(MBSprite);
                        1407 --line296
                        1408 ..lin.7bbb3f5b..94bd8741.0_99::
                        1409 .LDWlin99:
00000458 0130           1410 	mov	r1,r6
                        1411 	jarl	_MbSpriteNewDrawBufGet,lp
                        1411 <EXPANSION BEGIN>
                        1411 jarl22 _MbSpriteNewDrawBufGet , lp 
0000045a 80ff0000*      1411 <EXPANSION END>
0000045e 0a38           1412 	mov	r10,r7
                        1413 --297:     R_DRW2D_FramebufferSet(g_Drw2dDev, draw_fb);
                        1414 --line297
                        1415 ..lin.7bbb3f5b..94bd8741.0_100::
                        1416 .LDWlin100:
00000460 260600000000*  1417 	mov	_g_Drw2dDev,r6
00000466 26370100       1418 	ld.w	0[r6],r6
                        1419 	jarl	_R_DRW2D_FramebufferSet,lp
                        1419 <EXPANSION BEGIN>
                        1419 jarl22 _R_DRW2D_FramebufferSet , lp 
0000046a 80ff0000*      1419 <EXPANSION END>
                        1420 --298:     
                        1421 --299:    
                        1422 --300:     Clear_RotationObject(angle, rot_center, tex_rot_center, 
                        1423 --line300
                        1424 ..lin.7bbb3f5b..94bd8741.0_101::
                        1425 .LDWlin101:
0000046e a30709630000   1426 	ld.dw	48[sp],r12
00000474 a30789420000   1427 	ld.dw	40[sp],r8
0000047a 1a30           1428 	mov	r26,r6
0000047c 1b38           1429 	mov	r27,r7
0000047e a3070f600000   1430 	st.dw	r12,0[sp]
00000484 3d0f0100       1431 	ld.w	0[r29],r1
00000488 630f0900       1432 	st.w	r1,8[sp]
0000048c 040a           1433 	mov	4,r1
0000048e 630f0d00       1434 	st.w	r1,12[sp]
                        1435 	jarl	_Clear_RotationObject,lp
                        1435 <EXPANSION BEGIN>
                        1435 jarl22 _Clear_RotationObject , lp 
00000492 80ff0000*      1435 <EXPANSION END>
                        1436 --301:                              needle, 4);
                        1437 --302: }
                        1438 --	    .ef
                        1439 .LDW05:
                        1440 --line302
                        1441 ..lin.7bbb3f5b..94bd8741.0_102::
                        1442 .LDWlin102:
00000496 23ff1d00       1443 	ld.w	28[sp],lp
0000049a 23ef1100       1444 	ld.w	16[sp],r29
0000049e 23df1500       1445 	ld.w	20[sp],r27
000004a2 23d71900       1446 	ld.w	24[sp],r26
000004a6 031e3000       1447 	addi	48,sp,sp
                        1448 	.jumptype return
000004aa 7f00           1449 	jmp	[lp]
                        1450 ..lin.7bbb3f5b..94bd8741.0_103::
                        1451 .LDWlin103:
                        1452 	.type	_Clear_Needle_Left,@function
                        1453 	.size	_Clear_Needle_Left,.-_Clear_Needle_Left
                        1454 	.align	2
                        1455 .LDW15:

                                                                      Page 28
                                                              C:\Users\MANGESH\AppData\Local\Temp\gh_00004k01.si
                        1456 --_needle	.L1097	static
                        1457 --_draw_fb	r7	local
                        1458 
                        1459 --_angle	r26	param
                        1460 --_rot_center	40[sp]	param
                        1461 --_tex_rot_center	48[sp]	param
                        1462 --_MBSprite	r1	param
                        1463 --_is_left	r14	param
                        1464 
                        1465 	.data
                        1466 .L1082:
                        1467 	.type	.L1082,@object
                        1468 	.size	.L1082,0
                        1469 .L1097:
                        1470 	.global	_needle.Clear_Needle_Left.G.3A.5Cvlib_v1.2E8_svn.5Capp.5Cgfx_apps.5Cd1m1_flashdash_demo.5Ctarget.5Cd1m2_mango_ghs.5Cobj.5Cmain_scene..2
                        1471 _needle.Clear_Needle_Left.G.3A.5Cvlib_v1.2E8_svn.5Capp.5Cgfx_apps.5Cd1m1_flashdash_demo.5Ctarget.5Cd1m2_mango_ghs.5Cobj.5Cmain_scene..2:
00000008 00000000*      1472 	.word	_gauge_needle2_texture
                        1473 	.type	_needle.Clear_Needle_Left.G.3A.5Cvlib_v1.2E8_svn.5Capp.5Cgfx_apps.5Cd1m1_flashdash_demo.5Ctarget.5Cd1m2_mango_ghs.5Cobj.5Cmain_scene..2,@object
                        1474 	.size	_needle.Clear_Needle_Left.G.3A.5Cvlib_v1.2E8_svn.5Capp.5Cgfx_apps.5Cd1m1_flashdash_demo.5Ctarget.5Cd1m2_mango_ghs.5Cobj.5Cmain_scene..2,4
                        1475 	.type	.L1097,@object
                        1476 	.size	.L1097,4
                        1477 	.text
                        1478 
                        1479 
                        1480 --304: void Clear_Needle_Right(float64_t angle, r_drw2d_Point_t rot_center, r_drw2d_Point_t tex_rot_center,
                        1481 	.assert 0x0 + (.L1161 - .L1146) +0 == 0
                        1482 	.align	2
                        1483 	.align	2
                        1484 	.align	2
                        1485 ..gh.f.a.2.e.14:
                        1486 	.type	..gh.f.a.2.e.14,@object
                        1487 	.size	..gh.f.a.2.e.14,0
                        1488 	.global	_Clear_Needle_Right
                        1489 _Clear_Needle_Right:
000004ac 031ed0ff       1490 	addi	-48,sp,sp
000004b0 63472900       1491 	st.w	r8,40[sp]
000004b4 634f2d00       1492 	st.w	r9,44[sp]
000004b8 63ff1d00       1493 	st.w	lp,28[sp]
000004bc 23773d00       1494 	ld.w	60[sp],r14
000004c0 230f3900       1495 	ld.w	56[sp],r1
000004c4 63ef1100       1496 	st.w	r29,16[sp]
000004c8 63df1500       1497 	st.w	r27,20[sp]
000004cc 63d71900       1498 	st.w	r26,24[sp]
000004d0 3d0600000000*  1499 	mov	.L1146,r29
000004d6 07d8           1500 	mov	r7,r27
000004d8 06d0           1501 	mov	r6,r26
                        1502 --	    .bf
                        1503 .LDW25:
                        1504 --305:                   MultiBufferSprite_t *MBSprite, uint32_t is_left) {
                        1505 --306:     r_drw2d_Framebuffer_t *draw_fb;
                        1506 --307:     static r_drw2d_Texture_t *needle = &gauge_needle1_texture;
                        1507 --308:     
                        1508 --309:     draw_fb = MbSpriteNewDrawBufGet(MBSprite);
                        1509 --line309
                        1510 ..lin.7bbb3f5b..2cdd3714.0_104::
                        1511 .LDWlin104:
000004da 0130           1512 	mov	r1,r6
                        1513 	jarl	_MbSpriteNewDrawBufGet,lp
                        1513 <EXPANSION BEGIN>
                        1513 jarl22 _MbSpriteNewDrawBufGet , lp 
000004dc 80ff0000*      1513 <EXPANSION END>

                                                                      Page 29
                                                              C:\Users\MANGESH\AppData\Local\Temp\gh_00004k01.si
000004e0 0a38           1514 	mov	r10,r7
                        1515 --310:     R_DRW2D_FramebufferSet(g_Drw2dDev, draw_fb);
                        1516 --line310
                        1517 ..lin.7bbb3f5b..2cdd3714.0_105::
                        1518 .LDWlin105:
000004e2 260600000000*  1519 	mov	_g_Drw2dDev,r6
000004e8 26370100       1520 	ld.w	0[r6],r6
                        1521 	jarl	_R_DRW2D_FramebufferSet,lp
                        1521 <EXPANSION BEGIN>
                        1521 jarl22 _R_DRW2D_FramebufferSet , lp 
000004ec 80ff0000*      1521 <EXPANSION END>
                        1522 --311:     
                        1523 --312:     Clear_RotationObject(angle, rot_center, tex_rot_center, 
                        1524 --line312
                        1525 ..lin.7bbb3f5b..2cdd3714.0_106::
                        1526 .LDWlin106:
000004f0 a30709630000   1527 	ld.dw	48[sp],r12
000004f6 a30789420000   1528 	ld.dw	40[sp],r8
000004fc 1a30           1529 	mov	r26,r6
000004fe 1b38           1530 	mov	r27,r7
00000500 a3070f600000   1531 	st.dw	r12,0[sp]
00000506 3d0f0100       1532 	ld.w	0[r29],r1
0000050a 630f0900       1533 	st.w	r1,8[sp]
0000050e 040a           1534 	mov	4,r1
00000510 630f0d00       1535 	st.w	r1,12[sp]
                        1536 	jarl	_Clear_RotationObject,lp
                        1536 <EXPANSION BEGIN>
                        1536 jarl22 _Clear_RotationObject , lp 
00000514 80ff0000*      1536 <EXPANSION END>
                        1537 --313:                              needle, 4);
                        1538 --314: }
                        1539 --	    .ef
                        1540 .LDW35:
                        1541 --line314
                        1542 ..lin.7bbb3f5b..2cdd3714.0_107::
                        1543 .LDWlin107:
00000518 23ff1d00       1544 	ld.w	28[sp],lp
0000051c 23ef1100       1545 	ld.w	16[sp],r29
00000520 23df1500       1546 	ld.w	20[sp],r27
00000524 23d71900       1547 	ld.w	24[sp],r26
00000528 031e3000       1548 	addi	48,sp,sp
                        1549 	.jumptype return
0000052c 7f00           1550 	jmp	[lp]
                        1551 ..lin.7bbb3f5b..2cdd3714.0_108::
                        1552 .LDWlin108:
                        1553 	.type	_Clear_Needle_Right,@function
                        1554 	.size	_Clear_Needle_Right,.-_Clear_Needle_Right
                        1555 	.align	2
                        1556 .LDW45:
                        1557 --_needle	.L1161	static
                        1558 --_draw_fb	r7	local
                        1559 
                        1560 --_angle	r26	param
                        1561 --_rot_center	40[sp]	param
                        1562 --_tex_rot_center	48[sp]	param
                        1563 --_MBSprite	r1	param
                        1564 --_is_left	r14	param
                        1565 
                        1566 	.data
                        1567 .L1146:
                        1568 	.type	.L1146,@object

                                                                      Page 30
                                                              C:\Users\MANGESH\AppData\Local\Temp\gh_00004k01.si
                        1569 	.size	.L1146,0
                        1570 .L1161:
                        1571 	.global	_needle.Clear_Needle_Right.G.3A.5Cvlib_v1.2E8_svn.5Capp.5Cgfx_apps.5Cd1m1_flashdash_demo.5Ctarget.5Cd1m2_mango_ghs.5Cobj.5Cmain_scene..3
                        1572 _needle.Clear_Needle_Right.G.3A.5Cvlib_v1.2E8_svn.5Capp.5Cgfx_apps.5Cd1m1_flashdash_demo.5Ctarget.5Cd1m2_mango_ghs.5Cobj.5Cmain_scene..3:
0000000c 00000000*      1573 	.word	_gauge_needle1_texture
                        1574 	.type	_needle.Clear_Needle_Right.G.3A.5Cvlib_v1.2E8_svn.5Capp.5Cgfx_apps.5Cd1m1_flashdash_demo.5Ctarget.5Cd1m2_mango_ghs.5Cobj.5Cmain_scene..3,@object
                        1575 	.size	_needle.Clear_Needle_Right.G.3A.5Cvlib_v1.2E8_svn.5Capp.5Cgfx_apps.5Cd1m1_flashdash_demo.5Ctarget.5Cd1m2_mango_ghs.5Cobj.5Cmain_scene..3,4
                        1576 	.type	.L1161,@object
                        1577 	.size	.L1161,4
                        1578 	.text
                        1579 
                        1580 
                        1581 --316: r_drw2d_IntRect_t Calc_Rect_Left(float64_t angle,
                        1582 	.align	2
                        1583 	.align	2
                        1584 	.align	2
                        1585 ..gh.f.a.2.e.15:
                        1586 	.type	..gh.f.a.2.e.15,@object
                        1587 	.size	..gh.f.a.2.e.15,0
                        1588 	.global	_Calc_Rect_Left
                        1589 _Calc_Rect_Left:
0000052e a2076130       1590 	prepare	{r26,r27,r29,r31},17
00000532 06e8           1591 	mov	r6,r29
00000534 08d0           1592 	mov	r8,r26
00000536 230f6500       1593 	ld.w	100[sp],r1
0000053a 09d8           1594 	mov	r9,r27
0000053c 8076048d       1595 	ori	36100,zero,r14
                        1596 --	    .bf
                        1597 .LDW55:
                        1598 --317:                     r_drw2d_Point_t rot_center, 
                        1599 --318:                     r_drw2d_Point_t tex_rot_center,
                        1600 --319:                MultiBufferSprite_t *MBSprite) {
                        1601 --320:     r_drw2d_Framebuffer_t *draw_fb;
                        1602 --321:     r_drw2d_Point_t shadow_rot_center;
                        1603 --322:     r_drw2d_Point_t shadow_tex_rot_center;
                        1604 --323:     r_drw2d_IntRect_t rect_light, rect_shadow, rect_needle, rect_max;
                        1605 --324:     static r_drw2d_Texture_t *needle = &gauge_needle2_texture;
                        1606 --325:     const uint32_t max_pixels = 190 * 190;
                        1607 --327:     draw_fb = MbSpriteNewDrawBufGet(MBSprite);
00000540 0130           1608 	mov	r1,r6
                        1609 	jarl	_MbSpriteNewDrawBufGet,lp
                        1609 <EXPANSION BEGIN>
                        1609 jarl22 _MbSpriteNewDrawBufGet , lp 
00000542 80ff0000*      1609 <EXPANSION END>
00000546 0a38           1610 	mov	r10,r7
                        1611 --328:     R_DRW2D_FramebufferSet(g_Drw2dDev, draw_fb);
                        1612 --line328
                        1613 ..lin.7bbb3f5b..defd8aee.0_109::
                        1614 .LDWlin109:
00000548 260600000000*  1615 	mov	_g_Drw2dDev,r6
0000054e 26370100       1616 	ld.w	0[r6],r6
                        1617 	jarl	_R_DRW2D_FramebufferSet,lp
                        1617 <EXPANSION BEGIN>
                        1617 jarl22 _R_DRW2D_FramebufferSet , lp 
00000552 80ff0000*      1617 <EXPANSION END>
                        1618 --330: /*     static r_drw2d_Texture_t *needle = &gauge_needle_texture; */
                        1619 --331:     shadow_rot_center.X = rot_center.X - R_DRW2D_2X(4);
                        1620 --line331
                        1621 ..lin.7bbb3f5b..defd8aee.0_110::
                        1622 .LDWlin110:
00000556 230f5500       1623 	ld.w	84[sp],r1

                                                                      Page 31
                                                              C:\Users\MANGESH\AppData\Local\Temp\gh_00004k01.si
0000055a 40760400       1624 	movhi	hi(262144),zero,r14
0000055e ae09           1625 	sub	r14,r1
00000560 630f3d00       1626 	st.w	r1,60[sp]
                        1627 --332:     shadow_rot_center.Y = rot_center.Y + R_DRW2D_2X(4);
                        1628 --line332
                        1629 ..lin.7bbb3f5b..defd8aee.0_111::
                        1630 .LDWlin111:
00000564 230f5900       1631 	ld.w	88[sp],r1
00000568 410e0400       1632 	movhi	4,r1,r1
0000056c 630f4100       1633 	st.w	r1,64[sp]
                        1634 --333:     shadow_tex_rot_center.X = tex_rot_center.X + R_DRW2D_2X(1);
                        1635 --line333
                        1636 ..lin.7bbb3f5b..defd8aee.0_112::
                        1637 .LDWlin112:
00000570 230f5d00       1638 	ld.w	92[sp],r1
00000574 410e0100       1639 	movhi	1,r1,r1
00000578 630f3500       1640 	st.w	r1,52[sp]
                        1641 --334:     shadow_tex_rot_center.Y = tex_rot_center.Y + R_DRW2D_2X(3);
                        1642 --line334
                        1643 ..lin.7bbb3f5b..defd8aee.0_113::
                        1644 .LDWlin113:
0000057c 230f6100       1645 	ld.w	96[sp],r1
00000580 410e0300       1646 	movhi	3,r1,r1
00000584 630f3900       1647 	st.w	r1,56[sp]
                        1648 --335:     
                        1649 --336:     //rect_light  = CalcRect_Light(angle);
                        1650 --337:     //rect_shadow = CalcRect_RotationObject(angle, shadow_rot_center, shadow_tex_rot_center,    &gauge_shadow_texture);
                        1651 --338:     rect_needle = CalcRect_RotationObject(angle,
                        1652 --line338
                        1653 ..lin.7bbb3f5b..defd8aee.0_114::
                        1654 .LDWlin114:
00000588 a30749650000   1655 	ld.dw	84[sp],r12
0000058e 210600000000*  1656 	mov	.L1285,r1
00000594 1a40           1657 	mov	r26,r8
00000596 1b48           1658 	mov	r27,r9
00000598 23362400       1659 	movea	36,sp,r6
0000059c a3070f600000   1660 	st.dw	r12,0[sp]
000005a2 a307c9650000   1661 	ld.dw	92[sp],r12
000005a8 a3078f600000   1662 	st.dw	r12,8[sp]
000005ae 210f0100       1663 	ld.w	0[r1],r1
000005b2 630f1100       1664 	st.w	r1,16[sp]
                        1665 	jarl	_CalcRect_RotationObject,lp
                        1665 <EXPANSION BEGIN>
                        1665 jarl22 _CalcRect_RotationObject , lp 
000005b6 80ff0000*      1665 <EXPANSION END>
                        1666 --339:                                           rot_center, tex_rot_center,
                        1667 --340:                                           needle);
                        1668 --341: 		
                        1669 --342: 	rect_max = MaximizeBoundingBox( &rect_needle, &rect_needle);
                        1670 --line342
                        1671 ..lin.7bbb3f5b..defd8aee.0_115::
                        1672 .LDWlin115:
000005ba 233e2400       1673 	movea	36,sp,r7
000005be 23361400       1674 	movea	20,sp,r6
000005c2 0740           1675 	mov	r7,r8
                        1676 	jarl	_MaximizeBoundingBox,lp
                        1676 <EXPANSION BEGIN>
                        1676 jarl22 _MaximizeBoundingBox , lp 
000005c4 80ff0000*      1676 <EXPANSION END>
                        1677 --343:     //rect_max = MaximizeBoundingBox( &rect_needle, &rect_shadow);
                        1678 --344:     //rect_max = MaximizeBoundingBox( &rect_max   , &rect_light);

                                                                      Page 32
                                                              C:\Users\MANGESH\AppData\Local\Temp\gh_00004k01.si
                        1679 --346: 	/*     rect_max.Pos.X -= WindowGears.PosX; */
                        1680 --347: /*     rect_max.Pos.Y -= WindowGears.PosY; */
                        1681 --348:     if(rect_max.Pos.X & 1) { /* Odd sprite positions are not allowed. */
                        1682 --line348
                        1683 ..lin.7bbb3f5b..defd8aee.0_116::
                        1684 .LDWlin116:
000005c8 230f1500       1685 	ld.w	20[sp],r1
000005cc 810a           1686 	shr	1,r1
000005ce b90d*          1687 	bnl	.L1170
                        1688 --349:         rect_max.Pos.X--; /* Shift left by 1 */
                        1689 --line349
                        1690 ..lin.7bbb3f5b..defd8aee.0_117::
                        1691 .LDWlin117:
000005d0 230f1500       1692 	ld.w	20[sp],r1
000005d4 5f0a           1693 	add	-1,r1
000005d6 630f1500       1694 	st.w	r1,20[sp]
                        1695 --350:         rect_max.Size.Width++; /* Increase width by 1 */
000005da 230f1d00       1696 	ld.w	28[sp],r1
000005de 410a           1697 	add	1,r1
000005e0 630f1d00       1698 	st.w	r1,28[sp]
                        1699 .L1170:
                        1700 --351:     }
                        1701 --352:     if(rect_max.Size.Width & 1) { /* Odd width is not allowed. */
000005e4 230f1d00       1702 	ld.w	28[sp],r1
000005e8 810a           1703 	shr	1,r1
000005ea e905*          1704 	bnl	.L1172
                        1705 --353:         rect_max.Size.Width++;
                        1706 --line353
                        1707 ..lin.7bbb3f5b..defd8aee.0_118::
                        1708 .LDWlin118:
000005ec 230f1d00       1709 	ld.w	28[sp],r1
000005f0 410a           1710 	add	1,r1
000005f2 630f1d00       1711 	st.w	r1,28[sp]
                        1712 .L1172:
                        1713 --354:     }
                        1714 --356:     //R_GFXUTILS_ASSERT((rect_max.Size.Width * rect_max.Size.Height) <= max_pixels);
                        1715 --357:     
                        1716 --358:     return rect_max;
000005f6 a30749610000   1717 	ld.dw	20[sp],r12
000005fc a307c9510000   1718 	ld.dw	28[sp],r10
00000602 bd070f600000   1719 	st.dw	r12,0[r29]
00000608 bd078f500000   1720 	st.dw	r10,8[r29]
                        1721 --	    .ef
                        1722 .LDW65:
                        1723 --line359
                        1724 ..lin.7bbb3f5b..defd8aee.0_119::
                        1725 .LDWlin119:
0000060e 62067f30       1726 	dispose	17,{r26,r27,r29,r31},[lp]
                        1727 ..lin.7bbb3f5b..defd8aee.0_120::
                        1728 .LDWlin120:
                        1729 	.type	_Calc_Rect_Left,@function
                        1730 	.size	_Calc_Rect_Left,.-_Calc_Rect_Left
                        1731 	.align	2
                        1732 .LDW75:
                        1733 --_needle	.L1285	static
                        1734 --_draw_fb	r7	local
                        1735 --_shadow_rot_center	60[sp]	local
                        1736 --_shadow_tex_rot_center	52[sp]	local
                        1737 --_rect_needle	36[sp]	local
                        1738 --_rect_max	20[sp]	local
                        1739 --_max_pixels	r14	local

                                                                      Page 33
                                                              C:\Users\MANGESH\AppData\Local\Temp\gh_00004k01.si
                        1740 
                        1741 --LRETURN..	r29	param
                        1742 --_angle	r26	param
                        1743 --_rot_center	84[sp]	param
                        1744 --_tex_rot_center	92[sp]	param
                        1745 --_MBSprite	r1	param
                        1746 
                        1747 	.section ".bss","awb"
                        1748 .L1250:
                        1749 	.type	.L1250,@object
                        1750 	.size	.L1250,0
                        1751 	.data
                        1752 .L1285:
                        1753 	.global	_needle.Calc_Rect_Left.G.3A.5Cvlib_v1.2E8_svn.5Capp.5Cgfx_apps.5Cd1m1_flashdash_demo.5Ctarget.5Cd1m2_mango_ghs.5Cobj.5Cmain_scene..4
                        1754 _needle.Calc_Rect_Left.G.3A.5Cvlib_v1.2E8_svn.5Capp.5Cgfx_apps.5Cd1m1_flashdash_demo.5Ctarget.5Cd1m2_mango_ghs.5Cobj.5Cmain_scene..4:
00000010 00000000*      1755 	.word	_gauge_needle2_texture
                        1756 	.type	_needle.Calc_Rect_Left.G.3A.5Cvlib_v1.2E8_svn.5Capp.5Cgfx_apps.5Cd1m1_flashdash_demo.5Ctarget.5Cd1m2_mango_ghs.5Cobj.5Cmain_scene..4,@object
                        1757 	.size	_needle.Calc_Rect_Left.G.3A.5Cvlib_v1.2E8_svn.5Capp.5Cgfx_apps.5Cd1m1_flashdash_demo.5Ctarget.5Cd1m2_mango_ghs.5Cobj.5Cmain_scene..4,4
                        1758 	.type	.L1285,@object
                        1759 	.size	.L1285,4
                        1760 	.text
                        1761 
                        1762 --359: }
                        1763 
                        1764 --361: r_drw2d_IntRect_t Calc_Rect_Right(float64_t angle,
                        1765 	.align	2
                        1766 	.align	2
                        1767 	.align	2
                        1768 ..gh.f.a.2.e.16:
                        1769 	.type	..gh.f.a.2.e.16,@object
                        1770 	.size	..gh.f.a.2.e.16,0
                        1771 	.global	_Calc_Rect_Right
                        1772 _Calc_Rect_Right:
00000612 a2076130       1773 	prepare	{r26,r27,r29,r31},17
00000616 06e8           1774 	mov	r6,r29
00000618 08d0           1775 	mov	r8,r26
0000061a 230f6500       1776 	ld.w	100[sp],r1
0000061e 09d8           1777 	mov	r9,r27
00000620 8076048d       1778 	ori	36100,zero,r14
                        1779 --	    .bf
                        1780 .LDW85:
                        1781 --362:                     r_drw2d_Point_t rot_center, 
                        1782 --363:                     r_drw2d_Point_t tex_rot_center,
                        1783 --364:                MultiBufferSprite_t *MBSprite) {
                        1784 --365:     r_drw2d_Framebuffer_t *draw_fb;
                        1785 --366:     r_drw2d_Point_t shadow_rot_center;
                        1786 --367:     r_drw2d_Point_t shadow_tex_rot_center;
                        1787 --368:     r_drw2d_IntRect_t rect_light, rect_shadow, rect_needle, rect_max;
                        1788 --369:     static r_drw2d_Texture_t *needle = &gauge_needle1_texture;
                        1789 --370:     const uint32_t max_pixels = 190 * 190;
                        1790 --372:     draw_fb = MbSpriteNewDrawBufGet(MBSprite);
00000624 0130           1791 	mov	r1,r6
                        1792 	jarl	_MbSpriteNewDrawBufGet,lp
                        1792 <EXPANSION BEGIN>
                        1792 jarl22 _MbSpriteNewDrawBufGet , lp 
00000626 80ff0000*      1792 <EXPANSION END>
0000062a 0a38           1793 	mov	r10,r7
                        1794 --373:     R_DRW2D_FramebufferSet(g_Drw2dDev, draw_fb);
                        1795 --line373
                        1796 ..lin.7bbb3f5b..bf1db061.0_121::
                        1797 .LDWlin121:

                                                                      Page 34
                                                              C:\Users\MANGESH\AppData\Local\Temp\gh_00004k01.si
0000062c 260600000000*  1798 	mov	_g_Drw2dDev,r6
00000632 26370100       1799 	ld.w	0[r6],r6
                        1800 	jarl	_R_DRW2D_FramebufferSet,lp
                        1800 <EXPANSION BEGIN>
                        1800 jarl22 _R_DRW2D_FramebufferSet , lp 
00000636 80ff0000*      1800 <EXPANSION END>
                        1801 --375: /*     static r_drw2d_Texture_t *needle = &gauge_needle_texture; */
                        1802 --376:     shadow_rot_center.X = rot_center.X - R_DRW2D_2X(4);
                        1803 --line376
                        1804 ..lin.7bbb3f5b..bf1db061.0_122::
                        1805 .LDWlin122:
0000063a 230f5500       1806 	ld.w	84[sp],r1
0000063e 40760400       1807 	movhi	hi(262144),zero,r14
00000642 ae09           1808 	sub	r14,r1
00000644 630f3d00       1809 	st.w	r1,60[sp]
                        1810 --377:     shadow_rot_center.Y = rot_center.Y + R_DRW2D_2X(4);
                        1811 --line377
                        1812 ..lin.7bbb3f5b..bf1db061.0_123::
                        1813 .LDWlin123:
00000648 230f5900       1814 	ld.w	88[sp],r1
0000064c 410e0400       1815 	movhi	4,r1,r1
00000650 630f4100       1816 	st.w	r1,64[sp]
                        1817 --378:     shadow_tex_rot_center.X = tex_rot_center.X + R_DRW2D_2X(1);
                        1818 --line378
                        1819 ..lin.7bbb3f5b..bf1db061.0_124::
                        1820 .LDWlin124:
00000654 230f5d00       1821 	ld.w	92[sp],r1
00000658 410e0100       1822 	movhi	1,r1,r1
0000065c 630f3500       1823 	st.w	r1,52[sp]
                        1824 --379:     shadow_tex_rot_center.Y = tex_rot_center.Y + R_DRW2D_2X(3);
                        1825 --line379
                        1826 ..lin.7bbb3f5b..bf1db061.0_125::
                        1827 .LDWlin125:
00000660 230f6100       1828 	ld.w	96[sp],r1
00000664 410e0300       1829 	movhi	3,r1,r1
00000668 630f3900       1830 	st.w	r1,56[sp]
                        1831 --380:     
                        1832 --381:     //rect_light  = CalcRect_Light(angle);
                        1833 --382:     //rect_shadow = CalcRect_RotationObject(angle, shadow_rot_center, shadow_tex_rot_center,    &gauge_shadow_texture);
                        1834 --383:     rect_needle = CalcRect_RotationObject(angle,
                        1835 --line383
                        1836 ..lin.7bbb3f5b..bf1db061.0_126::
                        1837 .LDWlin126:
0000066c a30749650000   1838 	ld.dw	84[sp],r12
00000672 210600000000*  1839 	mov	.L1413,r1
00000678 1a40           1840 	mov	r26,r8
0000067a 1b48           1841 	mov	r27,r9
0000067c 23362400       1842 	movea	36,sp,r6
00000680 a3070f600000   1843 	st.dw	r12,0[sp]
00000686 a307c9650000   1844 	ld.dw	92[sp],r12
0000068c a3078f600000   1845 	st.dw	r12,8[sp]
00000692 210f0100       1846 	ld.w	0[r1],r1
00000696 630f1100       1847 	st.w	r1,16[sp]
                        1848 	jarl	_CalcRect_RotationObject,lp
                        1848 <EXPANSION BEGIN>
                        1848 jarl22 _CalcRect_RotationObject , lp 
0000069a 80ff0000*      1848 <EXPANSION END>
                        1849 --384:                                           rot_center, tex_rot_center,
                        1850 --385:                                           needle);
                        1851 --386: 		
                        1852 --387: 	rect_max = MaximizeBoundingBox( &rect_needle, &rect_needle);

                                                                      Page 35
                                                              C:\Users\MANGESH\AppData\Local\Temp\gh_00004k01.si
                        1853 --line387
                        1854 ..lin.7bbb3f5b..bf1db061.0_127::
                        1855 .LDWlin127:
0000069e 233e2400       1856 	movea	36,sp,r7
000006a2 23361400       1857 	movea	20,sp,r6
000006a6 0740           1858 	mov	r7,r8
                        1859 	jarl	_MaximizeBoundingBox,lp
                        1859 <EXPANSION BEGIN>
                        1859 jarl22 _MaximizeBoundingBox , lp 
000006a8 80ff0000*      1859 <EXPANSION END>
                        1860 --388:     //rect_max = MaximizeBoundingBox( &rect_needle, &rect_shadow);
                        1861 --389:     //rect_max = MaximizeBoundingBox( &rect_max   , &rect_light);
                        1862 --391: 	/*     rect_max.Pos.X -= WindowGears.PosX; */
                        1863 --392: /*     rect_max.Pos.Y -= WindowGears.PosY; */
                        1864 --393:     if(rect_max.Pos.X & 1) { /* Odd sprite positions are not allowed. */
                        1865 --line393
                        1866 ..lin.7bbb3f5b..bf1db061.0_128::
                        1867 .LDWlin128:
000006ac 230f1500       1868 	ld.w	20[sp],r1
000006b0 810a           1869 	shr	1,r1
000006b2 b90d*          1870 	bnl	.L1304
                        1871 --394:         rect_max.Pos.X--; /* Shift left by 1 */
                        1872 --line394
                        1873 ..lin.7bbb3f5b..bf1db061.0_129::
                        1874 .LDWlin129:
000006b4 230f1500       1875 	ld.w	20[sp],r1
000006b8 5f0a           1876 	add	-1,r1
000006ba 630f1500       1877 	st.w	r1,20[sp]
                        1878 --395:         rect_max.Size.Width++; /* Increase width by 1 */
000006be 230f1d00       1879 	ld.w	28[sp],r1
000006c2 410a           1880 	add	1,r1
000006c4 630f1d00       1881 	st.w	r1,28[sp]
                        1882 .L1304:
                        1883 --396:     }
                        1884 --397:     if(rect_max.Size.Width & 1) { /* Odd width is not allowed. */
000006c8 230f1d00       1885 	ld.w	28[sp],r1
000006cc 810a           1886 	shr	1,r1
000006ce e905*          1887 	bnl	.L1306
                        1888 --398:         rect_max.Size.Width++;
                        1889 --line398
                        1890 ..lin.7bbb3f5b..bf1db061.0_130::
                        1891 .LDWlin130:
000006d0 230f1d00       1892 	ld.w	28[sp],r1
000006d4 410a           1893 	add	1,r1
000006d6 630f1d00       1894 	st.w	r1,28[sp]
                        1895 .L1306:
                        1896 --399:     }
                        1897 --401:     //R_GFXUTILS_ASSERT((rect_max.Size.Width * rect_max.Size.Height) <= max_pixels);
                        1898 --402:     
                        1899 --403:     return rect_max;
000006da a30749610000   1900 	ld.dw	20[sp],r12
000006e0 a307c9510000   1901 	ld.dw	28[sp],r10
000006e6 bd070f600000   1902 	st.dw	r12,0[r29]
000006ec bd078f500000   1903 	st.dw	r10,8[r29]
                        1904 --	    .ef
                        1905 .LDW95:
                        1906 --line404
                        1907 ..lin.7bbb3f5b..bf1db061.0_131::
                        1908 .LDWlin131:
000006f2 62067f30       1909 	dispose	17,{r26,r27,r29,r31},[lp]
                        1910 ..lin.7bbb3f5b..bf1db061.0_132::

                                                                      Page 36
                                                              C:\Users\MANGESH\AppData\Local\Temp\gh_00004k01.si
                        1911 .LDWlin132:
                        1912 	.type	_Calc_Rect_Right,@function
                        1913 	.size	_Calc_Rect_Right,.-_Calc_Rect_Right
                        1914 	.align	2
                        1915 .LDW06:
                        1916 --_needle	.L1413	static
                        1917 --_draw_fb	r7	local
                        1918 --_shadow_rot_center	60[sp]	local
                        1919 --_shadow_tex_rot_center	52[sp]	local
                        1920 --_rect_needle	36[sp]	local
                        1921 --_rect_max	20[sp]	local
                        1922 --_max_pixels	r14	local
                        1923 
                        1924 --LRETURN..	r29	param
                        1925 --_angle	r26	param
                        1926 --_rot_center	84[sp]	param
                        1927 --_tex_rot_center	92[sp]	param
                        1928 --_MBSprite	r1	param
                        1929 
                        1930 	.section ".bss","awb"
                        1931 .L1378:
                        1932 	.type	.L1378,@object
                        1933 	.size	.L1378,0
                        1934 	.data
                        1935 .L1413:
                        1936 	.global	_needle.Calc_Rect_Right.G.3A.5Cvlib_v1.2E8_svn.5Capp.5Cgfx_apps.5Cd1m1_flashdash_demo.5Ctarget.5Cd1m2_mango_ghs.5Cobj.5Cmain_scene..5
                        1937 _needle.Calc_Rect_Right.G.3A.5Cvlib_v1.2E8_svn.5Capp.5Cgfx_apps.5Cd1m1_flashdash_demo.5Ctarget.5Cd1m2_mango_ghs.5Cobj.5Cmain_scene..5:
00000014 00000000*      1938 	.word	_gauge_needle1_texture
                        1939 	.type	_needle.Calc_Rect_Right.G.3A.5Cvlib_v1.2E8_svn.5Capp.5Cgfx_apps.5Cd1m1_flashdash_demo.5Ctarget.5Cd1m2_mango_ghs.5Cobj.5Cmain_scene..5,@object
                        1940 	.size	_needle.Calc_Rect_Right.G.3A.5Cvlib_v1.2E8_svn.5Capp.5Cgfx_apps.5Cd1m1_flashdash_demo.5Ctarget.5Cd1m2_mango_ghs.5Cobj.5Cmain_scene..5,4
                        1941 	.type	.L1413,@object
                        1942 	.size	.L1413,4
                        1943 	.text
                        1944 
                        1945 --404: }
                        1946 
                        1947 --406: void Refresh_Needle_Left(float64_t angle,float64_t old_angle,
                        1948 	.align	2
                        1949 	.align	2
                        1950 	.align	2
                        1951 ..gh.f.a.2.e.17:
                        1952 	.type	..gh.f.a.2.e.17,@object
                        1953 	.size	..gh.f.a.2.e.17,0
                        1954 	.global	_Refresh_Needle_Left
                        1955 _Refresh_Needle_Left:
000006f6 9007e100       1956 	prepare	{r28,r29,r31},8
000006fa 230f3d00       1957 	ld.w	60[sp],r1
000006fe 06e0           1958 	mov	r6,r28
00000700 230f4100       1959 	ld.w	64[sp],r1
00000704 07e8           1960 	mov	r7,r29
00000706 23774500       1961 	ld.w	68[sp],r14
                        1962 --	    .bf
                        1963 .LDW16:
                        1964 --407:                     r_drw2d_Point_t rot_center, 
                        1965 --408:                     r_drw2d_Point_t tex_rot_center,
                        1966 --409:                     r_drw2d_Texture_t *background,
                        1967 --410:                     MultiBufferSprite_t *MBSprite,
                        1968 --411:                     uint32_t is_left) {
                        1969 --412:     r_drw2d_Framebuffer_t *draw_fb;
                        1970 --413:     r_drw2d_Point_t shadow_rot_center;
                        1971 --414:     r_drw2d_Point_t shadow_tex_rot_center;

                                                                      Page 37
                                                              C:\Users\MANGESH\AppData\Local\Temp\gh_00004k01.si
                        1972 --415:     static r_drw2d_Texture_t *needle = &gauge_needle2_texture;
                        1973 --417:     draw_fb = MbSpriteNewDrawBufGet(MBSprite);
0000070a 0130           1974 	mov	r1,r6
                        1975 	jarl	_MbSpriteNewDrawBufGet,lp
                        1975 <EXPANSION BEGIN>
                        1975 jarl22 _MbSpriteNewDrawBufGet , lp 
0000070c 80ff0000*      1975 <EXPANSION END>
00000710 0a38           1976 	mov	r10,r7
                        1977 --418:     R_DRW2D_FramebufferSet(g_Drw2dDev, draw_fb);
                        1978 --line418
                        1979 ..lin.7bbb3f5b..46bde7c9.0_133::
                        1980 .LDWlin133:
00000712 260600000000*  1981 	mov	_g_Drw2dDev,r6
00000718 26370100       1982 	ld.w	0[r6],r6
                        1983 	jarl	_R_DRW2D_FramebufferSet,lp
                        1983 <EXPANSION BEGIN>
                        1983 jarl22 _R_DRW2D_FramebufferSet , lp 
0000071c 80ff0000*      1983 <EXPANSION END>
                        1984 --420: /*     static r_drw2d_Texture_t *needle = &gauge_needle_texture; */
                        1985 --421:     shadow_rot_center.X = rot_center.X - R_DRW2D_2X(4);
                        1986 --line421
                        1987 ..lin.7bbb3f5b..46bde7c9.0_134::
                        1988 .LDWlin134:
00000720 230f2d00       1989 	ld.w	44[sp],r1
00000724 40760400       1990 	movhi	hi(262144),zero,r14
00000728 ae09           1991 	sub	r14,r1
0000072a 630f1900       1992 	st.w	r1,24[sp]
                        1993 --422:     shadow_rot_center.Y = rot_center.Y + R_DRW2D_2X(4);
                        1994 --line422
                        1995 ..lin.7bbb3f5b..46bde7c9.0_135::
                        1996 .LDWlin135:
0000072e 230f3100       1997 	ld.w	48[sp],r1
00000732 410e0400       1998 	movhi	4,r1,r1
00000736 630f1d00       1999 	st.w	r1,28[sp]
                        2000 --423:     shadow_tex_rot_center.X = tex_rot_center.X + R_DRW2D_2X(1);
                        2001 --line423
                        2002 ..lin.7bbb3f5b..46bde7c9.0_136::
                        2003 .LDWlin136:
0000073a 230f3500       2004 	ld.w	52[sp],r1
0000073e 410e0100       2005 	movhi	1,r1,r1
00000742 630f1100       2006 	st.w	r1,16[sp]
                        2007 --424:     shadow_tex_rot_center.Y = tex_rot_center.Y + R_DRW2D_2X(3);
                        2008 --line424
                        2009 ..lin.7bbb3f5b..46bde7c9.0_137::
                        2010 .LDWlin137:
00000746 230f3900       2011 	ld.w	56[sp],r1
0000074a 410e0300       2012 	movhi	3,r1,r1
0000074e 630f1500       2013 	st.w	r1,20[sp]
                        2014 --425:     
                        2015 --426:     //Refresh_Light(angle, background, is_left);
                        2016 --427:     //Refresh_RotationObject(angle, shadow_rot_center, shadow_tex_rot_center,      &gauge_shadow_texture, 0);
                        2017 --428:     Refresh_RotationObject(angle,
                        2018 --line428
                        2019 ..lin.7bbb3f5b..46bde7c9.0_138::
                        2020 .LDWlin138:
00000752 a30749630000   2021 	ld.dw	52[sp],r12
00000758 210600000000*  2022 	mov	.L1505,r1
0000075e a307c9420000   2023 	ld.dw	44[sp],r8
00000764 1c30           2024 	mov	r28,r6
00000766 1d38           2025 	mov	r29,r7
00000768 a3070f600000   2026 	st.dw	r12,0[sp]

                                                                      Page 38
                                                              C:\Users\MANGESH\AppData\Local\Temp\gh_00004k01.si
0000076e 210f0100       2027 	ld.w	0[r1],r1
00000772 63070d00       2028 	st.w	zero,12[sp]
00000776 630f0900       2029 	st.w	r1,8[sp]
                        2030 	jarl	_Refresh_RotationObject,lp
                        2030 <EXPANSION BEGIN>
                        2030 jarl22 _Refresh_RotationObject , lp 
0000077a 80ff0000*      2030 <EXPANSION END>
                        2031 --429:                            rot_center, tex_rot_center,
                        2032 --430:                            needle, 0);
                        2033 --432: }
                        2034 --	    .ef
                        2035 .LDW26:
                        2036 --line432
                        2037 ..lin.7bbb3f5b..46bde7c9.0_139::
                        2038 .LDWlin139:
0000077e 5006ff00       2039 	dispose	8,{r28,r29,r31},[lp]
                        2040 ..lin.7bbb3f5b..46bde7c9.0_140::
                        2041 .LDWlin140:
                        2042 	.type	_Refresh_Needle_Left,@function
                        2043 	.size	_Refresh_Needle_Left,.-_Refresh_Needle_Left
                        2044 	.align	2
                        2045 .LDW36:
                        2046 --_needle	.L1505	static
                        2047 --_draw_fb	r7	local
                        2048 --_shadow_rot_center	24[sp]	local
                        2049 --_shadow_tex_rot_center	16[sp]	local
                        2050 
                        2051 --_angle	r28	param
                        2052 --_old_angle	r8	param
                        2053 --_rot_center	44[sp]	param
                        2054 --_tex_rot_center	52[sp]	param
                        2055 --_background	r1	param
                        2056 --_MBSprite	r1	param
                        2057 --_is_left	r14	param
                        2058 
                        2059 	.section ".bss","awb"
                        2060 .L1482:
                        2061 	.type	.L1482,@object
                        2062 	.size	.L1482,0
                        2063 	.data
                        2064 .L1505:
                        2065 	.global	_needle.Refresh_Needle_Left.G.3A.5Cvlib_v1.2E8_svn.5Capp.5Cgfx_apps.5Cd1m1_flashdash_demo.5Ctarget.5Cd1m2_mango_ghs.5Cobj.5Cmain_scene..6
                        2066 _needle.Refresh_Needle_Left.G.3A.5Cvlib_v1.2E8_svn.5Capp.5Cgfx_apps.5Cd1m1_flashdash_demo.5Ctarget.5Cd1m2_mango_ghs.5Cobj.5Cmain_scene..6:
00000018 00000000*      2067 	.word	_gauge_needle2_texture
                        2068 	.type	_needle.Refresh_Needle_Left.G.3A.5Cvlib_v1.2E8_svn.5Capp.5Cgfx_apps.5Cd1m1_flashdash_demo.5Ctarget.5Cd1m2_mango_ghs.5Cobj.5Cmain_scene..6,@object
                        2069 	.size	_needle.Refresh_Needle_Left.G.3A.5Cvlib_v1.2E8_svn.5Capp.5Cgfx_apps.5Cd1m1_flashdash_demo.5Ctarget.5Cd1m2_mango_ghs.5Cobj.5Cmain_scene..6,4
                        2070 	.type	.L1505,@object
                        2071 	.size	.L1505,4
                        2072 	.text
                        2073 
                        2074 
                        2075 --433: uint8_t myspeedString[32];
                        2076 --434: #define MY_FONT_BG_COLOR             0x00000000
                        2077 --435: void Refresh_Speed_Text(MultiBufferSprite_t *MBSprite, unsigned char change_color)
                        2078 	.align	2
                        2079 	.align	2
                        2080 	.align	2
                        2081 ..gh.f.a.2.e.18:
                        2082 	.type	..gh.f.a.2.e.18,@object
                        2083 	.size	..gh.f.a.2.e.18,0
                        2084 	.global	_Refresh_Speed_Text

                                                                      Page 39
                                                              C:\Users\MANGESH\AppData\Local\Temp\gh_00004k01.si
                        2085 _Refresh_Speed_Text:
00000782 8207e100       2086 	prepare	{r28,r29,r31},1
00000786 07e0           2087 	mov	r7,r28
00000788 9c00           2088 	zxb	r28
0000078a 3d0600000000*  2089 	mov	_g_Drw2dDev,r29
                        2090 --	    .bf
                        2091 .LDW46:
                        2092 --436: {
                        2093 --437: 	r_drw2d_Framebuffer_t *draw_fb;
                        2094 --438: 	draw_fb = MbSpriteNewDrawBufGet(MBSprite);
                        2095 --line438
                        2096 ..lin.7bbb3f5b..cdb04ac7.0_141::
                        2097 .LDWlin141:
                        2098 	jarl	_MbSpriteNewDrawBufGet,lp
                        2098 <EXPANSION BEGIN>
                        2098 jarl22 _MbSpriteNewDrawBufGet , lp 
00000790 80ff0000*      2098 <EXPANSION END>
00000794 0a38           2099 	mov	r10,r7
                        2100 --439:     R_DRW2D_FramebufferSet(g_Drw2dDev, draw_fb);
                        2101 --line439
                        2102 ..lin.7bbb3f5b..cdb04ac7.0_142::
                        2103 .LDWlin142:
00000796 3d370100       2104 	ld.w	0[r29],r6
                        2105 	jarl	_R_DRW2D_FramebufferSet,lp
                        2105 <EXPANSION BEGIN>
                        2105 jarl22 _R_DRW2D_FramebufferSet , lp 
0000079a 80ff0000*      2105 <EXPANSION END>
                        2106 --440: 	
                        2107 --441: 	R_DRW2D_CtxBgColor(g_Drw2dDev, MY_FONT_BG_COLOR);            
                        2108 --line441
                        2109 ..lin.7bbb3f5b..cdb04ac7.0_143::
                        2110 .LDWlin143:
0000079e 3d370100       2111 	ld.w	0[r29],r6
000007a2 003a           2112 	mov	0,r7
                        2113 	jarl	_R_DRW2D_CtxBgColor,lp
                        2113 <EXPANSION BEGIN>
                        2113 jarl22 _R_DRW2D_CtxBgColor , lp 
000007a4 80ff0000*      2113 <EXPANSION END>
                        2114 --442:     
                        2115 --443:     R_DRW2D_CtxTransformMode(g_Drw2dDev, R_DRW2D_TRANSFORM_2D);
                        2116 --line443
                        2117 ..lin.7bbb3f5b..cdb04ac7.0_144::
                        2118 .LDWlin144:
000007a8 3d370100       2119 	ld.w	0[r29],r6
000007ac 013a           2120 	mov	1,r7
                        2121 	jarl	_R_DRW2D_CtxTransformMode,lp
                        2121 <EXPANSION BEGIN>
                        2121 jarl22 _R_DRW2D_CtxTransformMode , lp 
000007ae 80ff0000*      2121 <EXPANSION END>
                        2122 --444:     R_DRW2D_CtxIdentity(g_Drw2dDev);
                        2123 --line444
                        2124 ..lin.7bbb3f5b..cdb04ac7.0_145::
                        2125 .LDWlin145:
000007b2 3d370100       2126 	ld.w	0[r29],r6
                        2127 	jarl	_R_DRW2D_CtxIdentity,lp
                        2127 <EXPANSION BEGIN>
                        2127 jarl22 _R_DRW2D_CtxIdentity , lp 
000007b6 80ff0000*      2127 <EXPANSION END>
                        2128 --445:    // R_DRW2D_CtxFillMode(g_Drw2dDev, R_DRW2D_FILLMODE_TEXTURE);	 
                        2129 --446: 	 
                        2130 --447:     R_DRW2D_CtxBlendMode(g_Drw2dDev, R_DRW2D_BLENDMODE_SRC);

                                                                      Page 40
                                                              C:\Users\MANGESH\AppData\Local\Temp\gh_00004k01.si
                        2131 --line447
                        2132 ..lin.7bbb3f5b..cdb04ac7.0_146::
                        2133 .LDWlin146:
000007ba 3d370100       2134 	ld.w	0[r29],r6
000007be 013a           2135 	mov	1,r7
                        2136 	jarl	_R_DRW2D_CtxBlendMode,lp
                        2136 <EXPANSION BEGIN>
                        2136 jarl22 _R_DRW2D_CtxBlendMode , lp 
000007c0 80ff0000*      2136 <EXPANSION END>
                        2137 --448: 	
                        2138 --449: 	R_DRW2D_FramebufferClear(g_Drw2dDev);
                        2139 --line449
                        2140 ..lin.7bbb3f5b..cdb04ac7.0_147::
                        2141 .LDWlin147:
000007c4 3d370100       2142 	ld.w	0[r29],r6
                        2143 	jarl	_R_DRW2D_FramebufferClear,lp
                        2143 <EXPANSION BEGIN>
                        2143 jarl22 _R_DRW2D_FramebufferClear , lp 
000007c8 80ff0000*      2143 <EXPANSION END>
                        2144 --450: 	FlashDash_WriteString_Speed(0, 0, (char*)myspeedString, change_color, 0);
                        2145 --line450
                        2146 ..lin.7bbb3f5b..cdb04ac7.0_148::
                        2147 .LDWlin148:
000007cc 280600000000*  2148 	mov	_myspeedString,r8
000007d2 63070100       2149 	st.w	zero,0[sp]
000007d6 1c48           2150 	mov	r28,r9
000007d8 0032           2151 	mov	0,r6
000007da 003a           2152 	mov	0,r7
                        2153 	jarl	_FlashDash_WriteString_Speed,lp
                        2153 <EXPANSION BEGIN>
                        2153 jarl22 _FlashDash_WriteString_Speed , lp 
000007dc 80ff0000*      2153 <EXPANSION END>
                        2154 --451: 			
                        2155 --453: }
                        2156 --	    .ef
                        2157 .LDW56:
                        2158 --line453
                        2159 ..lin.7bbb3f5b..cdb04ac7.0_149::
                        2160 .LDWlin149:
000007e0 4206ff00       2161 	dispose	1,{r28,r29,r31},[lp]
                        2162 ..lin.7bbb3f5b..cdb04ac7.0_150::
                        2163 .LDWlin150:
                        2164 	.type	_Refresh_Speed_Text,@function
                        2165 	.size	_Refresh_Speed_Text,.-_Refresh_Speed_Text
                        2166 	.align	2
                        2167 .LDW66:
                        2168 --_draw_fb	r7	local
                        2169 
                        2170 --_MBSprite	r6	param
                        2171 --_change_color	r28	param
                        2172 
                        2173 	.section ".bss","awb"
                        2174 .L1566:
                        2175 	.type	.L1566,@object
                        2176 	.size	.L1566,0
                        2177 	.data
                        2178 	.text
                        2179 
                        2180 
                        2181 --456: float64_t CalculateDistance(float32_t kph){
                        2182 	.align	2

                                                                      Page 41
                                                              C:\Users\MANGESH\AppData\Local\Temp\gh_00004k01.si
                        2183 	.align	2
                        2184 	.align	2
                        2185 ..gh.f.a.2.e.19:
                        2186 	.type	..gh.f.a.2.e.19,@object
                        2187 	.size	..gh.f.a.2.e.19,0
                        2188 	.global	_CalculateDistance
                        2189 _CalculateDistance:
000007e4 2d06066be33e   2190 	mov	1055091462,r13
000007ea 2c0621740be7   2191 	mov	-418679775,r12
000007f0 3e0600000000*  2192 	mov	.L1651,ep
                        2193 --	    .bf
                        2194 .LDW76:
                        2195 --457: /*     const float64_t factor = 1 / 60.0 / 3600.0;w */
                        2196 --458:     const float64_t factor = 1 / 30.0 / 3600.0;
                        2197 --459:     static float64_t distance = 21543.5;
                        2198 --460:     float64_t delta;
                        2199 --461:     delta = factor * kph * KPH_FACTOR * 2;
                        2200 --line461
                        2201 ..lin.7bbb3f5b..3be8bc1d.0_151::
                        2202 .LDWlin151:
000007f6 e2375264       2203 	cvtf.sd	r6,r12
000007fa 2b06066be33e   2204 	mov	1055091462,r11
00000800 2a0621740be7   2205 	mov	-418679775,r10
00000806 ec577464       2206 	mulf.d	r12,r10,r12
0000080a 2b063333fb3f   2207 	mov	1073427251,r11
00000810 2a0633333333   2208 	mov	858993459,r10
00000816 ea677464       2209 	mulf.d	r10,r12,r12
0000081a 405e0040       2210 	movhi	16384,zero,r11
0000081e 0052           2211 	mov	0,r10
00000820 ea677454       2212 	mulf.d	r10,r12,r10
                        2213 --462:     distance += delta;
                        2214 --line462
                        2215 ..lin.7bbb3f5b..3be8bc1d.0_152::
                        2216 .LDWlin152:
00000824 be0709600000   2217 	ld.dw	0[ep],r12
0000082a ea677064       2218 	addf.d	r10,r12,r12
0000082e be070f600000   2219 	st.dw	r12,0[ep]
                        2220 --463:     return distance;
                        2221 --line463
                        2222 ..lin.7bbb3f5b..3be8bc1d.0_153::
                        2223 .LDWlin153:
00000834 be0709500000   2224 	ld.dw	0[ep],r10
                        2225 --	    .ef
                        2226 .LDW86:
                        2227 --line464
                        2228 ..lin.7bbb3f5b..3be8bc1d.0_154::
                        2229 .LDWlin154:
                        2230 	.jumptype return
0000083a 7f00           2231 	jmp	[lp]
                        2232 ..lin.7bbb3f5b..3be8bc1d.0_155::
                        2233 .LDWlin155:
                        2234 	.type	_CalculateDistance,@function
                        2235 	.size	_CalculateDistance,.-_CalculateDistance
                        2236 	.align	2
                        2237 .LDW96:
                        2238 --_distance	.L1651	static
                        2239 --_factor	r12	local
                        2240 --_delta	r10	local
                        2241 
                        2242 --_kph	r6	param
                        2243 

                                                                      Page 42
                                                              C:\Users\MANGESH\AppData\Local\Temp\gh_00004k01.si
                        2244 	.section ".bss","awb"
                        2245 .L1638:
                        2246 	.type	.L1638,@object
                        2247 	.size	.L1638,0
                        2248 	.data
0000001c 00000000       2249 	.space	4
                        2250 	.align	8
                        2251 .L1651:
                        2252 	.global	_distance.CalculateDistance.G.3A.5Cvlib_v1.2E8_svn.5Capp.5Cgfx_apps.5Cd1m1_flashdash_demo.5Ctarget.5Cd1m2_mango_ghs.5Cobj.5Cmain_scene..7
                        2253 _distance.CalculateDistance.G.3A.5Cvlib_v1.2E8_svn.5Capp.5Cgfx_apps.5Cd1m1_flashdash_demo.5Ctarget.5Cd1m2_mango_ghs.5Cobj.5Cmain_scene..7:
00000020 00000000       2254 	.byte	0,0,0,0
00000024 e009d540       2255 	.byte	224,9,213,64
                        2256 	.type	_distance.CalculateDistance.G.3A.5Cvlib_v1.2E8_svn.5Capp.5Cgfx_apps.5Cd1m1_flashdash_demo.5Ctarget.5Cd1m2_mango_ghs.5Cobj.5Cmain_scene..7,@object
                        2257 	.size	_distance.CalculateDistance.G.3A.5Cvlib_v1.2E8_svn.5Capp.5Cgfx_apps.5Cd1m1_flashdash_demo.5Ctarget.5Cd1m2_mango_ghs.5Cobj.5Cmain_scene..7,8
                        2258 	.type	.L1651,@object
                        2259 	.size	.L1651,8
                        2260 	.text
                        2261 
                        2262 --464: }
                        2263 
                        2264 --467: uint8_t myodoString[10]="2254380";
                        2265 --468: uint8_t mytripString[10] = "1892 ";
                        2266 --470: float64_t distance;
                        2267 --471: void Refresh_Odo_Text(MultiBufferSprite_t *MBSprite, r_drw2d_Texture_t *background)
                        2268 	.align	2
                        2269 	.align	2
                        2270 	.align	2
                        2271 ..gh.f.a.2.e.20:
                        2272 	.type	..gh.f.a.2.e.20,@object
                        2273 	.size	..gh.f.a.2.e.20,0
                        2274 	.global	_Refresh_Odo_Text
                        2275 _Refresh_Odo_Text:
                        2276 	.need	___gh_float_printf
0000083c 8207e170       2277 	prepare	{r25,r26,r27,r28,r29,r31},1
00000840 3d0600000000*  2278 	mov	_g_Drw2dDev,r29
00000846 3c0600000000*  2279 	mov	_myodoString,r28
0000084c 3b0600000000*  2280 	mov	_odo_string,r27
00000852 3a0600000000*  2281 	mov	_mytripString,r26
00000858 390600000000*  2282 	mov	_distance,r25
                        2283 --	    .bf
                        2284 .LDW07:
                        2285 --472: {
                        2286 --473: 	r_drw2d_Rect_t draw_clear_rect;
                        2287 --474: 	
                        2288 --475: 	
                        2289 --476: 	r_drw2d_Framebuffer_t *draw_fb;
                        2290 --477: 	draw_fb = MbSpriteNewDrawBufGet(MBSprite);
                        2291 --line477
                        2292 ..lin.7bbb3f5b..5939f6f8.0_156::
                        2293 .LDWlin156:
                        2294 	jarl	_MbSpriteNewDrawBufGet,lp
                        2294 <EXPANSION BEGIN>
                        2294 jarl22 _MbSpriteNewDrawBufGet , lp 
0000085e 80ff0000*      2294 <EXPANSION END>
00000862 0a38           2295 	mov	r10,r7
                        2296 --478:     R_DRW2D_FramebufferSet(g_Drw2dDev, draw_fb);
                        2297 --line478
                        2298 ..lin.7bbb3f5b..5939f6f8.0_157::
                        2299 .LDWlin157:
00000864 3d370100       2300 	ld.w	0[r29],r6
                        2301 	jarl	_R_DRW2D_FramebufferSet,lp

                                                                      Page 43
                                                              C:\Users\MANGESH\AppData\Local\Temp\gh_00004k01.si
                        2301 <EXPANSION BEGIN>
                        2301 jarl22 _R_DRW2D_FramebufferSet , lp 
00000868 80ff0000*      2301 <EXPANSION END>
                        2302 --479: 	
                        2303 --480: 	R_DRW2D_CtxBgColor(g_Drw2dDev, MY_FONT_BG_COLOR);   
                        2304 --line480
                        2305 ..lin.7bbb3f5b..5939f6f8.0_158::
                        2306 .LDWlin158:
0000086c 3d370100       2307 	ld.w	0[r29],r6
00000870 003a           2308 	mov	0,r7
                        2309 	jarl	_R_DRW2D_CtxBgColor,lp
                        2309 <EXPANSION BEGIN>
                        2309 jarl22 _R_DRW2D_CtxBgColor , lp 
00000872 80ff0000*      2309 <EXPANSION END>
                        2310 --481: 		
                        2311 --482: 	R_DRW2D_CtxTextureTransformMode(g_Drw2dDev, R_DRW2D_TEX_TRANSFORM_2D);
                        2312 --line482
                        2313 ..lin.7bbb3f5b..5939f6f8.0_159::
                        2314 .LDWlin159:
00000876 3d370100       2315 	ld.w	0[r29],r6
0000087a 023a           2316 	mov	2,r7
                        2317 	jarl	_R_DRW2D_CtxTextureTransformMode,lp
                        2317 <EXPANSION BEGIN>
                        2317 jarl22 _R_DRW2D_CtxTextureTransformMode , lp 
0000087c 80ff0000*      2317 <EXPANSION END>
                        2318 --483:     R_DRW2D_CtxTextureIdentity(g_Drw2dDev);   
                        2319 --line483
                        2320 ..lin.7bbb3f5b..5939f6f8.0_160::
                        2321 .LDWlin160:
00000880 3d370100       2322 	ld.w	0[r29],r6
                        2323 	jarl	_R_DRW2D_CtxTextureIdentity,lp
                        2323 <EXPANSION BEGIN>
                        2323 jarl22 _R_DRW2D_CtxTextureIdentity , lp 
00000884 80ff0000*      2323 <EXPANSION END>
                        2324 --484: 	
                        2325 --485: 	R_DRW2D_FramebufferClear(g_Drw2dDev);
                        2326 --line485
                        2327 ..lin.7bbb3f5b..5939f6f8.0_161::
                        2328 .LDWlin161:
00000888 3d370100       2329 	ld.w	0[r29],r6
                        2330 	jarl	_R_DRW2D_FramebufferClear,lp
                        2330 <EXPANSION BEGIN>
                        2330 jarl22 _R_DRW2D_FramebufferClear , lp 
0000088c 80ff0000*      2330 <EXPANSION END>
                        2331 --486: 	
                        2332 --487: 	
                        2333 --488: 	distance = CalculateDistance(kph);
                        2334 --line488
                        2335 ..lin.7bbb3f5b..5939f6f8.0_162::
                        2336 .LDWlin162:
00000890 260600000000*  2337 	mov	_kph,r6
00000896 26370100       2338 	ld.w	0[r6],r6
                        2339 	jarl	_CalculateDistance,lp
                        2339 <EXPANSION BEGIN>
                        2339 jarl22 _CalculateDistance , lp 
0000089a bfff4aff*      2339 <EXPANSION END>
0000089e b9070f500000   2340 	st.dw	r10,0[r25]
                        2341 --489: 	
                        2342 --490: 	sprintf((char*)myodoString,"%0.1f",distance);
                        2343 --line490
                        2344 ..lin.7bbb3f5b..5939f6f8.0_163::

                                                                      Page 44
                                                              C:\Users\MANGESH\AppData\Local\Temp\gh_00004k01.si
                        2345 .LDWlin163:
000008a4 b90709400000   2346 	ld.dw	0[r25],r8
000008aa 1c30           2347 	mov	r28,r6
000008ac 270600000000*  2348 	mov	.L1778,r7
                        2349 	jarl	_sprintf,lp
                        2349 <EXPANSION BEGIN>
                        2349 jarl22 _sprintf , lp 
000008b2 80ff0000*      2349 <EXPANSION END>
                        2350 --491: 	myodoString[7] = 0x20;		// space
                        2351 --line491
                        2352 ..lin.7bbb3f5b..5939f6f8.0_164::
                        2353 .LDWlin164:
000008b6 200e2000       2354 	movea	32,zero,r1
000008ba 5c0f0700       2355 	st.b	r1,7[r28]
                        2356 --492: 	myodoString[8] = 0x3D;		// KM symbol
000008be 200e3d00       2357 	movea	61,zero,r1
000008c2 5c0f0800       2358 	st.b	r1,8[r28]
                        2359 --493: 	
                        2360 --494: 	
                        2361 --495: 	mytripString[5] = 0x3D;		// KM symbol
000008c6 200e3d00       2362 	movea	61,zero,r1
000008ca 5a0f0500       2363 	st.b	r1,5[r26]
                        2364 --496: 	
                        2365 --497: 	
                        2366 --498: 	//odo_string = 0;
                        2367 --499: 	//FlashDash_WriteString_Speed(0, 0, (char*)my_time_string, 0, 1);
                        2368 --500: 	
                        2369 --501: 	odo_string = 0;
000008ce 5b070000       2370 	st.b	zero,0[r27]
                        2371 --502: 	FlashDash_WriteString_Speed(0, 20, (char*)mytripString, 0, 1);
000008d2 010a           2372 	mov	1,r1
000008d4 1a40           2373 	mov	r26,r8
000008d6 630f0100       2374 	st.w	r1,0[sp]
000008da 0032           2375 	mov	0,r6
000008dc 203e1400       2376 	movea	20,zero,r7
000008e0 004a           2377 	mov	0,r9
                        2378 	jarl	_FlashDash_WriteString_Speed,lp
                        2378 <EXPANSION BEGIN>
                        2378 jarl22 _FlashDash_WriteString_Speed , lp 
000008e2 80ff0000*      2378 <EXPANSION END>
                        2379 --503: 	
                        2380 --504: 	odo_string = 1;
                        2381 --line504
                        2382 ..lin.7bbb3f5b..5939f6f8.0_165::
                        2383 .LDWlin165:
000008e6 010a           2384 	mov	1,r1
000008e8 5b0f0000       2385 	st.b	r1,0[r27]
                        2386 --505: 	FlashDash_WriteString_Speed(0, 80, (char*)myodoString, 0, 1);			
000008ec 010a           2387 	mov	1,r1
000008ee 1c40           2388 	mov	r28,r8
000008f0 630f0100       2389 	st.w	r1,0[sp]
000008f4 0032           2390 	mov	0,r6
000008f6 203e5000       2391 	movea	80,zero,r7
000008fa 004a           2392 	mov	0,r9
                        2393 	jarl	_FlashDash_WriteString_Speed,lp
                        2393 <EXPANSION BEGIN>
                        2393 jarl22 _FlashDash_WriteString_Speed , lp 
000008fc 80ff0000*      2393 <EXPANSION END>
                        2394 --507: }
                        2395 --	    .ef
                        2396 .LDW17:

                                                                      Page 45
                                                              C:\Users\MANGESH\AppData\Local\Temp\gh_00004k01.si
                        2397 --line507
                        2398 ..lin.7bbb3f5b..5939f6f8.0_166::
                        2399 .LDWlin166:
00000900 4206ff70       2400 	dispose	1,{r25,r26,r27,r28,r29,r31},[lp]
                        2401 ..lin.7bbb3f5b..5939f6f8.0_167::
                        2402 .LDWlin167:
                        2403 	.type	_Refresh_Odo_Text,@function
                        2404 	.size	_Refresh_Odo_Text,.-_Refresh_Odo_Text
                        2405 	.align	2
                        2406 .LDW27:
                        2407 --_draw_fb	r7	local
                        2408 --.L1739	.L1778	static
                        2409 
                        2410 --_MBSprite	r6	param
                        2411 --_background	r7	param
                        2412 
                        2413 	.section ".bss","awb"
                        2414 .L1738:
                        2415 	.type	.L1738,@object
                        2416 	.size	.L1738,0
                        2417 	.section ".rodata","a"
                        2418 .L1778:--	"%0.1f"
00000000 25302e31       2419 	.byte	37,48,46,49
00000004 6600           2420 	.byte	102,0
                        2421 	.type	.L1778,@object
                        2422 	.size	.L1778,6
                        2423 	.data
                        2424 	.text
                        2425 
                        2426 
                        2427 --509: uint8_t my_time_string[10]="12:30 ";
                        2428 --510: uint8_t my_sec_count = 0;
                        2429 --511: uint8_t my_min_cnt = 0x30;
                        2430 --512: uint8_t my_hour_cnt = 0x12;
                        2431 --515: void Refresh_Time_Text(MultiBufferSprite_t *MBSprite)
                        2432 	.assert 0x0 + (.L2040 - .L1966) +0 == 4
                        2433 	.assert 0x0 + (.L2039 - .L1966) +0 == 0
                        2434 	.align	2
                        2435 	.align	2
                        2436 	.align	2
                        2437 ..gh.f.a.2.e.21:
                        2438 	.type	..gh.f.a.2.e.21,@object
                        2439 	.size	..gh.f.a.2.e.21,0
                        2440 	.global	_Refresh_Time_Text
                        2441 _Refresh_Time_Text:
00000904 8407e170       2442 	prepare	{r25,r26,r27,r28,r29,r31},2
00000908 3d0600000000*  2443 	mov	.L1966,r29
0000090e 3c0600000000*  2444 	mov	_my_time_string,r28
00000914 3b0600000000*  2445 	mov	_g_Drw2dDev,r27
0000091a 3dce0400       2446 	movea	4,r29,r25
0000091e 3a0600000000*  2447 	mov	_my_sec_count,r26
                        2448 --	    .bf
                        2449 .LDW37:
                        2450 --516: {
                        2451 --517: 	r_drw2d_Rect_t draw_clear_rect;
                        2452 --518: 	static uint32_t my_last_time = 0;
                        2453 --519: 	static uint8_t my_cnt = 0;
                        2454 --520: 	
                        2455 --521: 	r_drw2d_Framebuffer_t *draw_fb;
                        2456 --522: 	draw_fb = MbSpriteNewDrawBufGet(MBSprite);
                        2457 --line522

                                                                      Page 46
                                                              C:\Users\MANGESH\AppData\Local\Temp\gh_00004k01.si
                        2458 ..lin.7bbb3f5b..d8f818e5.0_168::
                        2459 .LDWlin168:
                        2460 	jarl	_MbSpriteNewDrawBufGet,lp
                        2460 <EXPANSION BEGIN>
                        2460 jarl22 _MbSpriteNewDrawBufGet , lp 
00000924 80ff0000*      2460 <EXPANSION END>
00000928 0a38           2461 	mov	r10,r7
                        2462 --523:     R_DRW2D_FramebufferSet(g_Drw2dDev, draw_fb);
                        2463 --line523
                        2464 ..lin.7bbb3f5b..d8f818e5.0_169::
                        2465 .LDWlin169:
0000092a 3b370100       2466 	ld.w	0[r27],r6
                        2467 	jarl	_R_DRW2D_FramebufferSet,lp
                        2467 <EXPANSION BEGIN>
                        2467 jarl22 _R_DRW2D_FramebufferSet , lp 
0000092e 80ff0000*      2467 <EXPANSION END>
                        2468 --524: 	
                        2469 --525: 	R_DRW2D_CtxBgColor(g_Drw2dDev, MY_FONT_BG_COLOR);   
                        2470 --line525
                        2471 ..lin.7bbb3f5b..d8f818e5.0_170::
                        2472 .LDWlin170:
00000932 3b370100       2473 	ld.w	0[r27],r6
00000936 003a           2474 	mov	0,r7
                        2475 	jarl	_R_DRW2D_CtxBgColor,lp
                        2475 <EXPANSION BEGIN>
                        2475 jarl22 _R_DRW2D_CtxBgColor , lp 
00000938 80ff0000*      2475 <EXPANSION END>
                        2476 --526: 		
                        2477 --527: 	R_DRW2D_CtxTextureTransformMode(g_Drw2dDev, R_DRW2D_TEX_TRANSFORM_2D);
                        2478 --line527
                        2479 ..lin.7bbb3f5b..d8f818e5.0_171::
                        2480 .LDWlin171:
0000093c 3b370100       2481 	ld.w	0[r27],r6
00000940 023a           2482 	mov	2,r7
                        2483 	jarl	_R_DRW2D_CtxTextureTransformMode,lp
                        2483 <EXPANSION BEGIN>
                        2483 jarl22 _R_DRW2D_CtxTextureTransformMode , lp 
00000942 80ff0000*      2483 <EXPANSION END>
                        2484 --528:     R_DRW2D_CtxTextureIdentity(g_Drw2dDev);   
                        2485 --line528
                        2486 ..lin.7bbb3f5b..d8f818e5.0_172::
                        2487 .LDWlin172:
00000946 3b370100       2488 	ld.w	0[r27],r6
                        2489 	jarl	_R_DRW2D_CtxTextureIdentity,lp
                        2489 <EXPANSION BEGIN>
                        2489 jarl22 _R_DRW2D_CtxTextureIdentity , lp 
0000094a 80ff0000*      2489 <EXPANSION END>
                        2490 --529: 	
                        2491 --530: 	R_DRW2D_FramebufferClear(g_Drw2dDev);
                        2492 --line530
                        2493 ..lin.7bbb3f5b..d8f818e5.0_173::
                        2494 .LDWlin173:
0000094e 3b370100       2495 	ld.w	0[r27],r6
                        2496 	jarl	_R_DRW2D_FramebufferClear,lp
                        2496 <EXPANSION BEGIN>
                        2496 jarl22 _R_DRW2D_FramebufferClear , lp 
00000952 80ff0000*      2496 <EXPANSION END>
                        2497 --531: 	
                        2498 --532: 	if ((R_TICK_GetTimeMS(0) - my_last_time) > 500)
                        2499 --line532
                        2500 ..lin.7bbb3f5b..d8f818e5.0_174::

                                                                      Page 47
                                                              C:\Users\MANGESH\AppData\Local\Temp\gh_00004k01.si
                        2501 .LDWlin174:
00000956 0032           2502 	mov	0,r6
                        2503 	jarl	_R_TICK_GetTimeMS,lp
                        2503 <EXPANSION BEGIN>
                        2503 jarl22 _R_TICK_GetTimeMS , lp 
00000958 80ff0000*      2503 <EXPANSION END>
0000095c 3d0f0100       2504 	ld.w	0[r29],r1
00000960 8a09           2505 	subr	r10,r1
00000962 01060bfe       2506 	addi	-501,r1,zero
00000966 b965*          2507 	bnl	.L1799
                        2508 --533: 	{
                        2509 --534: 		my_sec_count++;
                        2510 --line534
                        2511 ..lin.7bbb3f5b..d8f818e5.0_175::
                        2512 .LDWlin175:
00000968 9a0f0100       2513 	ld.bu	0[r26],r1
0000096c 410a           2514 	add	1,r1
0000096e 5a0f0000       2515 	st.b	r1,0[r26]
                        2516 --535: 		
                        2517 --536: 		if(my_sec_count >= 120)
00000972 9a0f0100       2518 	ld.bu	0[r26],r1
00000976 010688ff       2519 	addi	-120,r1,zero
0000097a 8945*          2520 	bnl	.L1801
                        2521 --537: 		{
                        2522 --538: 			my_sec_count = 0;
                        2523 --line538
                        2524 ..lin.7bbb3f5b..d8f818e5.0_176::
                        2525 .LDWlin176:
0000097c 5a070000       2526 	st.b	zero,0[r26]
                        2527 --539: 			my_time_string[4]++;
00000980 9c0f0500       2528 	ld.bu	4[r28],r1
00000984 410a           2529 	add	1,r1
00000986 5c0f0400       2530 	st.b	r1,4[r28]
                        2531 --540: 			if(my_time_string[4] > '9')
0000098a 9c0f0500       2532 	ld.bu	4[r28],r1
0000098e 0106c6ff       2533 	addi	-58,r1,zero
00000992 c935*          2534 	bnl	.L1801
                        2535 --541: 			{
                        2536 --542: 				my_time_string[4] = '0';
                        2537 --line542
                        2538 ..lin.7bbb3f5b..d8f818e5.0_177::
                        2539 .LDWlin177:
00000994 200e3000       2540 	movea	48,zero,r1
00000998 5c0f0400       2541 	st.b	r1,4[r28]
                        2542 --543: 				my_time_string[3]++;
0000099c bc0f0300       2543 	ld.bu	3[r28],r1
000009a0 410a           2544 	add	1,r1
000009a2 5c0f0300       2545 	st.b	r1,3[r28]
                        2546 --544: 				if(my_time_string[3] > '5')
000009a6 bc0f0300       2547 	ld.bu	3[r28],r1
000009aa 0106caff       2548 	addi	-54,r1,zero
000009ae e925*          2549 	bnl	.L1801
                        2550 --545: 				{
                        2551 --546: 					my_time_string[3] = '0';
                        2552 --line546
                        2553 ..lin.7bbb3f5b..d8f818e5.0_178::
                        2554 .LDWlin178:
000009b0 200e3000       2555 	movea	48,zero,r1
000009b4 5c0f0300       2556 	st.b	r1,3[r28]
                        2557 --547: 					my_time_string[1]++;
000009b8 bc0f0100       2558 	ld.bu	1[r28],r1

                                                                      Page 48
                                                              C:\Users\MANGESH\AppData\Local\Temp\gh_00004k01.si
000009bc 410a           2559 	add	1,r1
000009be 5c0f0100       2560 	st.b	r1,1[r28]
                        2561 --548: 					if(my_time_string[1] > '9')
000009c2 bc0f0100       2562 	ld.bu	1[r28],r1
000009c6 0106c6ff       2563 	addi	-58,r1,zero
000009ca 891d*          2564 	bnl	.L1801
                        2565 --549: 					{
                        2566 --550: 						my_time_string[1] = '0';
                        2567 --line550
                        2568 ..lin.7bbb3f5b..d8f818e5.0_179::
                        2569 .LDWlin179:
000009cc 200e3000       2570 	movea	48,zero,r1
000009d0 5c0f0100       2571 	st.b	r1,1[r28]
                        2572 --551: 						my_time_string[0]++;
000009d4 9c0f0100       2573 	ld.bu	0[r28],r1
000009d8 410a           2574 	add	1,r1
000009da 5c0f0000       2575 	st.b	r1,0[r28]
                        2576 --552: 						if(my_time_string[0] > '1')
000009de 9c0f0100       2577 	ld.bu	0[r28],r1
000009e2 0106ceff       2578 	addi	-50,r1,zero
000009e6 a90d*          2579 	bnl	.L1801
                        2580 --553: 						{
                        2581 --554: 							my_time_string[0] = '0';
                        2582 --line554
                        2583 ..lin.7bbb3f5b..d8f818e5.0_180::
                        2584 .LDWlin180:
000009e8 200e3000       2585 	movea	48,zero,r1
000009ec 5c0f0000       2586 	st.b	r1,0[r28]
                        2587 --555: 							my_time_string[1]++;
000009f0 bc0f0100       2588 	ld.bu	1[r28],r1
000009f4 410a           2589 	add	1,r1
000009f6 5c0f0100       2590 	st.b	r1,1[r28]
                        2591 .L1801:
                        2592 --556: 						
                        2593 --557: 						}
                        2594 --558: 					
                        2595 --559: 					}
                        2596 --560: 				
                        2597 --561: 				}
                        2598 --562: 			
                        2599 --563: 			
                        2600 --564: 			}
                        2601 --565: 			
                        2602 --566: 		
                        2603 --567: 		}
                        2604 --568: 		
                        2605 --569: 		my_last_time = R_TICK_GetTimeMS(0);
000009fa 0032           2606 	mov	0,r6
                        2607 	jarl	_R_TICK_GetTimeMS,lp
                        2607 <EXPANSION BEGIN>
                        2607 jarl22 _R_TICK_GetTimeMS , lp 
000009fc 80ff0000*      2607 <EXPANSION END>
00000a00 7d570100       2608 	st.w	r10,0[r29]
                        2609 --570: 		my_cnt++;
                        2610 --line570
                        2611 ..lin.7bbb3f5b..d8f818e5.0_181::
                        2612 .LDWlin181:
00000a04 9d0f0500       2613 	ld.bu	4[r29],r1
00000a08 410a           2614 	add	1,r1
00000a0a 5d0f0400       2615 	st.b	r1,4[r29]
                        2616 --571: 		if(my_cnt >1)

                                                                      Page 49
                                                              C:\Users\MANGESH\AppData\Local\Temp\gh_00004k01.si
00000a0e 9d0f0500       2617 	ld.bu	4[r29],r1
00000a12 610a           2618 	cmp	1,r1
00000a14 830d*          2619 	bnh	.L1811
                        2620 --572: 		{
                        2621 --573: 			my_time_string[2] = 0x20;	// Space
                        2622 --line573
                        2623 ..lin.7bbb3f5b..d8f818e5.0_182::
                        2624 .LDWlin182:
00000a16 200e2000       2625 	movea	32,zero,r1
00000a1a 5c0f0200       2626 	st.b	r1,2[r28]
                        2627 --574: 			my_cnt = 0;
00000a1e 5d070400       2628 	st.b	zero,4[r29]
00000a22 d505*          2629 	br	.L1799
                        2630 .L1811:
                        2631 --575: 		}
                        2632 --576: 		else
                        2633 --577: 		{
                        2634 --578: 			my_time_string[2] = 0x3A;	// :		
                        2635 --line578
                        2636 ..lin.7bbb3f5b..d8f818e5.0_183::
                        2637 .LDWlin183:
00000a24 200e3a00       2638 	movea	58,zero,r1
00000a28 5c0f0200       2639 	st.b	r1,2[r28]
                        2640 .L1799:
                        2641 --579: 		}
                        2642 --580: 	}	
                        2643 --581: 	
                        2644 --582: 	// my_time_string[0] = my_hour_cnt >> 4;
                        2645 --583: 	// my_time_string[1] = my_hour_cnt && 0x0F;
                        2646 --584: 	
                        2647 --585: 	// my_time_string[3] = my_min_cnt >> 4;
                        2648 --586: 	// my_time_string[4] = my_min_cnt && 0x0F;
                        2649 --587: 	
                        2650 --588: 	
                        2651 --589: 	my_time_string[6] = 0x3F;	// PM symbol
00000a2c 200e3f00       2652 	movea	63,zero,r1
00000a30 5c0f0600       2653 	st.b	r1,6[r28]
                        2654 --590: 	//my_time_string[5] = 0x3E;	// AM symbol
                        2655 --591: 	
                        2656 --592: 	odo_string = 0;
00000a34 2b0600000000*  2657 	mov	_odo_string,r11
00000a3a 4b070000       2658 	st.b	zero,0[r11]
                        2659 --593: 	FlashDash_WriteString_Speed(0, 0, (char*)my_time_string, 0, 1);
                        2660 --line593
                        2661 ..lin.7bbb3f5b..d8f818e5.0_184::
                        2662 .LDWlin184:
00000a3e 010a           2663 	mov	1,r1
00000a40 1c40           2664 	mov	r28,r8
00000a42 630f0100       2665 	st.w	r1,0[sp]
00000a46 0032           2666 	mov	0,r6
00000a48 003a           2667 	mov	0,r7
00000a4a 004a           2668 	mov	0,r9
                        2669 	jarl	_FlashDash_WriteString_Speed,lp
                        2669 <EXPANSION BEGIN>
                        2669 jarl22 _FlashDash_WriteString_Speed , lp 
00000a4c 80ff0000*      2669 <EXPANSION END>
                        2670 --594: 	
                        2671 --596: }
                        2672 --	    .ef
                        2673 .LDW47:
                        2674 --line596

                                                                      Page 50
                                                              C:\Users\MANGESH\AppData\Local\Temp\gh_00004k01.si
                        2675 ..lin.7bbb3f5b..d8f818e5.0_185::
                        2676 .LDWlin185:
00000a50 4406ff70       2677 	dispose	2,{r25,r26,r27,r28,r29,r31},[lp]
                        2678 ..lin.7bbb3f5b..d8f818e5.0_186::
                        2679 .LDWlin186:
                        2680 	.type	_Refresh_Time_Text,@function
                        2681 	.size	_Refresh_Time_Text,.-_Refresh_Time_Text
                        2682 	.align	2
                        2683 .LDW57:
                        2684 --_my_last_time	.L2039	static
                        2685 --_my_cnt	.L2040	static
                        2686 --_draw_fb	r7	local
                        2687 
                        2688 --_MBSprite	r6	param
                        2689 
                        2690 	.data
                        2691 .L1966:
                        2692 	.type	.L1966,@object
                        2693 	.size	.L1966,0
                        2694 .L2039:
                        2695 	.global	_my_last_time.Refresh_Time_Text.G.3A.5Cvlib_v1.2E8_svn.5Capp.5Cgfx_apps.5Cd1m1_flashdash_demo.5Ctarget.5Cd1m2_mango_ghs.5Cobj.5Cmain_scene..8
                        2696 _my_last_time.Refresh_Time_Text.G.3A.5Cvlib_v1.2E8_svn.5Capp.5Cgfx_apps.5Cd1m1_flashdash_demo.5Ctarget.5Cd1m2_mango_ghs.5Cobj.5Cmain_scene..8:
00000028 00000000       2697 	.byte	0,0,0,0
                        2698 	.type	_my_last_time.Refresh_Time_Text.G.3A.5Cvlib_v1.2E8_svn.5Capp.5Cgfx_apps.5Cd1m1_flashdash_demo.5Ctarget.5Cd1m2_mango_ghs.5Cobj.5Cmain_scene..8,@object
                        2699 	.size	_my_last_time.Refresh_Time_Text.G.3A.5Cvlib_v1.2E8_svn.5Capp.5Cgfx_apps.5Cd1m1_flashdash_demo.5Ctarget.5Cd1m2_mango_ghs.5Cobj.5Cmain_scene..8,4
                        2700 	.type	.L2039,@object
                        2701 	.size	.L2039,4
                        2702 .L2040:
                        2703 	.global	_my_cnt.Refresh_Time_Text.G.3A.5Cvlib_v1.2E8_svn.5Capp.5Cgfx_apps.5Cd1m1_flashdash_demo.5Ctarget.5Cd1m2_mango_ghs.5Cobj.5Cmain_scene..9
                        2704 _my_cnt.Refresh_Time_Text.G.3A.5Cvlib_v1.2E8_svn.5Capp.5Cgfx_apps.5Cd1m1_flashdash_demo.5Ctarget.5Cd1m2_mango_ghs.5Cobj.5Cmain_scene..9:
0000002c 00             2705 	.byte	0
                        2706 	.type	_my_cnt.Refresh_Time_Text.G.3A.5Cvlib_v1.2E8_svn.5Capp.5Cgfx_apps.5Cd1m1_flashdash_demo.5Ctarget.5Cd1m2_mango_ghs.5Cobj.5Cmain_scene..9,@object
                        2707 	.size	_my_cnt.Refresh_Time_Text.G.3A.5Cvlib_v1.2E8_svn.5Capp.5Cgfx_apps.5Cd1m1_flashdash_demo.5Ctarget.5Cd1m2_mango_ghs.5Cobj.5Cmain_scene..9,1
                        2708 	.type	.L2040,@object
                        2709 	.size	.L2040,1
                        2710 	.text
                        2711 
                        2712 
                        2713 --597: uint8_t mytempString[10]="25.6  ";
                        2714 --598: void Refresh_Temp_Text(MultiBufferSprite_t *MBSprite)
                        2715 	.align	2
                        2716 	.align	2
                        2717 	.align	2
                        2718 ..gh.f.a.2.e.22:
                        2719 	.type	..gh.f.a.2.e.22,@object
                        2720 	.size	..gh.f.a.2.e.22,0
                        2721 	.global	_Refresh_Temp_Text
                        2722 _Refresh_Temp_Text:
00000a54 8207e100       2723 	prepare	{r28,r29,r31},1
00000a58 3d0600000000*  2724 	mov	_g_Drw2dDev,r29
00000a5e 3c0600000000*  2725 	mov	_mytempString,r28
                        2726 --	    .bf
                        2727 .LDW67:
                        2728 --599: {
                        2729 --600: 	r_drw2d_Rect_t draw_clear_rect;
                        2730 --601: 	
                        2731 --602: 	
                        2732 --603: 	r_drw2d_Framebuffer_t *draw_fb;
                        2733 --604: 	draw_fb = MbSpriteNewDrawBufGet(MBSprite);
                        2734 --line604
                        2735 ..lin.7bbb3f5b..4199844c.0_187::

                                                                      Page 51
                                                              C:\Users\MANGESH\AppData\Local\Temp\gh_00004k01.si
                        2736 .LDWlin187:
                        2737 	jarl	_MbSpriteNewDrawBufGet,lp
                        2737 <EXPANSION BEGIN>
                        2737 jarl22 _MbSpriteNewDrawBufGet , lp 
00000a64 80ff0000*      2737 <EXPANSION END>
00000a68 0a38           2738 	mov	r10,r7
                        2739 --605:     R_DRW2D_FramebufferSet(g_Drw2dDev, draw_fb);
                        2740 --line605
                        2741 ..lin.7bbb3f5b..4199844c.0_188::
                        2742 .LDWlin188:
00000a6a 3d370100       2743 	ld.w	0[r29],r6
                        2744 	jarl	_R_DRW2D_FramebufferSet,lp
                        2744 <EXPANSION BEGIN>
                        2744 jarl22 _R_DRW2D_FramebufferSet , lp 
00000a6e 80ff0000*      2744 <EXPANSION END>
                        2745 --606: 	
                        2746 --607: 	R_DRW2D_CtxBgColor(g_Drw2dDev, MY_FONT_BG_COLOR);   
                        2747 --line607
                        2748 ..lin.7bbb3f5b..4199844c.0_189::
                        2749 .LDWlin189:
00000a72 3d370100       2750 	ld.w	0[r29],r6
00000a76 003a           2751 	mov	0,r7
                        2752 	jarl	_R_DRW2D_CtxBgColor,lp
                        2752 <EXPANSION BEGIN>
                        2752 jarl22 _R_DRW2D_CtxBgColor , lp 
00000a78 80ff0000*      2752 <EXPANSION END>
                        2753 --608: 		
                        2754 --609: 	R_DRW2D_CtxTextureTransformMode(g_Drw2dDev, R_DRW2D_TEX_TRANSFORM_2D);
                        2755 --line609
                        2756 ..lin.7bbb3f5b..4199844c.0_190::
                        2757 .LDWlin190:
00000a7c 3d370100       2758 	ld.w	0[r29],r6
00000a80 023a           2759 	mov	2,r7
                        2760 	jarl	_R_DRW2D_CtxTextureTransformMode,lp
                        2760 <EXPANSION BEGIN>
                        2760 jarl22 _R_DRW2D_CtxTextureTransformMode , lp 
00000a82 80ff0000*      2760 <EXPANSION END>
                        2761 --610:     R_DRW2D_CtxTextureIdentity(g_Drw2dDev);   
                        2762 --line610
                        2763 ..lin.7bbb3f5b..4199844c.0_191::
                        2764 .LDWlin191:
00000a86 3d370100       2765 	ld.w	0[r29],r6
                        2766 	jarl	_R_DRW2D_CtxTextureIdentity,lp
                        2766 <EXPANSION BEGIN>
                        2766 jarl22 _R_DRW2D_CtxTextureIdentity , lp 
00000a8a 80ff0000*      2766 <EXPANSION END>
                        2767 --611: 	
                        2768 --612: 	R_DRW2D_FramebufferClear(g_Drw2dDev);
                        2769 --line612
                        2770 ..lin.7bbb3f5b..4199844c.0_192::
                        2771 .LDWlin192:
00000a8e 3d370100       2772 	ld.w	0[r29],r6
                        2773 	jarl	_R_DRW2D_FramebufferClear,lp
                        2773 <EXPANSION BEGIN>
                        2773 jarl22 _R_DRW2D_FramebufferClear , lp 
00000a92 80ff0000*      2773 <EXPANSION END>
                        2774 --613: 	
                        2775 --614: 	mytempString[4] = 0x3B;		// for degree symbol
                        2776 --line614
                        2777 ..lin.7bbb3f5b..4199844c.0_193::
                        2778 .LDWlin193:

                                                                      Page 52
                                                              C:\Users\MANGESH\AppData\Local\Temp\gh_00004k01.si
00000a96 200e3b00       2779 	movea	59,zero,r1
00000a9a 5c0f0400       2780 	st.b	r1,4[r28]
                        2781 --615: 	mytempString[5] = 0x3C;		// for C symbol
00000a9e 200e3c00       2782 	movea	60,zero,r1
00000aa2 5c0f0500       2783 	st.b	r1,5[r28]
                        2784 --616: 	
                        2785 --617: 	odo_string = 0;
00000aa6 2b0600000000*  2786 	mov	_odo_string,r11
00000aac 4b070000       2787 	st.b	zero,0[r11]
                        2788 --618: 	FlashDash_WriteString_Speed(0, 0, (char*)mytempString, 0, 1);
                        2789 --line618
                        2790 ..lin.7bbb3f5b..4199844c.0_194::
                        2791 .LDWlin194:
00000ab0 010a           2792 	mov	1,r1
00000ab2 1c40           2793 	mov	r28,r8
00000ab4 630f0100       2794 	st.w	r1,0[sp]
00000ab8 0032           2795 	mov	0,r6
00000aba 003a           2796 	mov	0,r7
00000abc 004a           2797 	mov	0,r9
                        2798 	jarl	_FlashDash_WriteString_Speed,lp
                        2798 <EXPANSION BEGIN>
                        2798 jarl22 _FlashDash_WriteString_Speed , lp 
00000abe 80ff0000*      2798 <EXPANSION END>
                        2799 --619: 	
                        2800 --621: }
                        2801 --	    .ef
                        2802 .LDW77:
                        2803 --line621
                        2804 ..lin.7bbb3f5b..4199844c.0_195::
                        2805 .LDWlin195:
00000ac2 4206ff00       2806 	dispose	1,{r28,r29,r31},[lp]
                        2807 ..lin.7bbb3f5b..4199844c.0_196::
                        2808 .LDWlin196:
                        2809 	.type	_Refresh_Temp_Text,@function
                        2810 	.size	_Refresh_Temp_Text,.-_Refresh_Temp_Text
                        2811 	.align	2
                        2812 .LDW87:
                        2813 --_draw_fb	r7	local
                        2814 
                        2815 --_MBSprite	r6	param
                        2816 
                        2817 	.section ".bss","awb"
                        2818 .L2134:
                        2819 	.type	.L2134,@object
                        2820 	.size	.L2134,0
                        2821 	.data
                        2822 	.text
                        2823 
                        2824 
                        2825 --623: uint8_t mymodeString[10]="ECO";
                        2826 --624: //uint8_t mymodeString[10]="123";
                        2827 --626: void Refresh_Mode_Text(MultiBufferSprite_t *MBSprite)
                        2828 	.align	2
                        2829 	.align	2
                        2830 	.align	2
                        2831 ..gh.f.a.2.e.23:
                        2832 	.type	..gh.f.a.2.e.23,@object
                        2833 	.size	..gh.f.a.2.e.23,0
                        2834 	.global	_Refresh_Mode_Text
                        2835 _Refresh_Mode_Text:
00000ac6 82076100       2836 	prepare	{r29,r31},1

                                                                      Page 53
                                                              C:\Users\MANGESH\AppData\Local\Temp\gh_00004k01.si
00000aca 3d0600000000*  2837 	mov	_g_Drw2dDev,r29
                        2838 --	    .bf
                        2839 .LDW97:
                        2840 --627: {
                        2841 --628: 	r_drw2d_Rect_t draw_clear_rect;
                        2842 --629: 	
                        2843 --630: 	
                        2844 --631: 	r_drw2d_Framebuffer_t *draw_fb;
                        2845 --632: 	draw_fb = MbSpriteNewDrawBufGet(MBSprite);
                        2846 --line632
                        2847 ..lin.7bbb3f5b..7e4fdc5b.0_197::
                        2848 .LDWlin197:
                        2849 	jarl	_MbSpriteNewDrawBufGet,lp
                        2849 <EXPANSION BEGIN>
                        2849 jarl22 _MbSpriteNewDrawBufGet , lp 
00000ad0 80ff0000*      2849 <EXPANSION END>
00000ad4 0a38           2850 	mov	r10,r7
                        2851 --633:     R_DRW2D_FramebufferSet(g_Drw2dDev, draw_fb);
                        2852 --line633
                        2853 ..lin.7bbb3f5b..7e4fdc5b.0_198::
                        2854 .LDWlin198:
00000ad6 3d370100       2855 	ld.w	0[r29],r6
                        2856 	jarl	_R_DRW2D_FramebufferSet,lp
                        2856 <EXPANSION BEGIN>
                        2856 jarl22 _R_DRW2D_FramebufferSet , lp 
00000ada 80ff0000*      2856 <EXPANSION END>
                        2857 --634: 	
                        2858 --635: 	R_DRW2D_CtxBgColor(g_Drw2dDev, MY_FONT_BG_COLOR);   
                        2859 --line635
                        2860 ..lin.7bbb3f5b..7e4fdc5b.0_199::
                        2861 .LDWlin199:
00000ade 3d370100       2862 	ld.w	0[r29],r6
00000ae2 003a           2863 	mov	0,r7
                        2864 	jarl	_R_DRW2D_CtxBgColor,lp
                        2864 <EXPANSION BEGIN>
                        2864 jarl22 _R_DRW2D_CtxBgColor , lp 
00000ae4 80ff0000*      2864 <EXPANSION END>
                        2865 --636: 		
                        2866 --637: 	R_DRW2D_CtxTextureTransformMode(g_Drw2dDev, R_DRW2D_TEX_TRANSFORM_2D);
                        2867 --line637
                        2868 ..lin.7bbb3f5b..7e4fdc5b.0_200::
                        2869 .LDWlin200:
00000ae8 3d370100       2870 	ld.w	0[r29],r6
00000aec 023a           2871 	mov	2,r7
                        2872 	jarl	_R_DRW2D_CtxTextureTransformMode,lp
                        2872 <EXPANSION BEGIN>
                        2872 jarl22 _R_DRW2D_CtxTextureTransformMode , lp 
00000aee 80ff0000*      2872 <EXPANSION END>
                        2873 --638:     R_DRW2D_CtxTextureIdentity(g_Drw2dDev);   
                        2874 --line638
                        2875 ..lin.7bbb3f5b..7e4fdc5b.0_201::
                        2876 .LDWlin201:
00000af2 3d370100       2877 	ld.w	0[r29],r6
                        2878 	jarl	_R_DRW2D_CtxTextureIdentity,lp
                        2878 <EXPANSION BEGIN>
                        2878 jarl22 _R_DRW2D_CtxTextureIdentity , lp 
00000af6 80ff0000*      2878 <EXPANSION END>
                        2879 --639: 	
                        2880 --640: 	R_DRW2D_FramebufferClear(g_Drw2dDev);
                        2881 --line640
                        2882 ..lin.7bbb3f5b..7e4fdc5b.0_202::

                                                                      Page 54
                                                              C:\Users\MANGESH\AppData\Local\Temp\gh_00004k01.si
                        2883 .LDWlin202:
00000afa 3d370100       2884 	ld.w	0[r29],r6
                        2885 	jarl	_R_DRW2D_FramebufferClear,lp
                        2885 <EXPANSION BEGIN>
                        2885 jarl22 _R_DRW2D_FramebufferClear , lp 
00000afe 80ff0000*      2885 <EXPANSION END>
                        2886 --641: 	
                        2887 --642: 	odo_string = 0;
                        2888 --line642
                        2889 ..lin.7bbb3f5b..7e4fdc5b.0_203::
                        2890 .LDWlin203:
00000b02 2b0600000000*  2891 	mov	_odo_string,r11
00000b08 4b070000       2892 	st.b	zero,0[r11]
                        2893 --643: 	FlashDash_WriteString_Speed(0, 0, (char*)mymodeString, 0, 1);
                        2894 --line643
                        2895 ..lin.7bbb3f5b..7e4fdc5b.0_204::
                        2896 .LDWlin204:
00000b0c 010a           2897 	mov	1,r1
00000b0e 630f0100       2898 	st.w	r1,0[sp]
00000b12 280600000000*  2899 	mov	_mymodeString,r8
00000b18 0032           2900 	mov	0,r6
00000b1a 003a           2901 	mov	0,r7
00000b1c 004a           2902 	mov	0,r9
                        2903 	jarl	_FlashDash_WriteString_Speed,lp
                        2903 <EXPANSION BEGIN>
                        2903 jarl22 _FlashDash_WriteString_Speed , lp 
00000b1e 80ff0000*      2903 <EXPANSION END>
                        2904 --644: 	
                        2905 --646: }
                        2906 --	    .ef
                        2907 .LDW08:
                        2908 --line646
                        2909 ..lin.7bbb3f5b..7e4fdc5b.0_205::
                        2910 .LDWlin205:
00000b22 42067f00       2911 	dispose	1,{r29,r31},[lp]
                        2912 ..lin.7bbb3f5b..7e4fdc5b.0_206::
                        2913 .LDWlin206:
                        2914 	.type	_Refresh_Mode_Text,@function
                        2915 	.size	_Refresh_Mode_Text,.-_Refresh_Mode_Text
                        2916 	.align	2
                        2917 .LDW18:
                        2918 --_draw_fb	r7	local
                        2919 
                        2920 --_MBSprite	r6	param
                        2921 
                        2922 	.section ".bss","awb"
                        2923 .L2238:
                        2924 	.type	.L2238,@object
                        2925 	.size	.L2238,0
                        2926 	.data
                        2927 	.text
                        2928 
                        2929 
                        2930 --650: void Refresh_Needle_Right(float64_t angle,float64_t old_angle,
                        2931 	.align	2
                        2932 	.align	2
                        2933 	.align	2
                        2934 ..gh.f.a.2.e.24:
                        2935 	.type	..gh.f.a.2.e.24,@object
                        2936 	.size	..gh.f.a.2.e.24,0
                        2937 	.global	_Refresh_Needle_Right

                                                                      Page 55
                                                              C:\Users\MANGESH\AppData\Local\Temp\gh_00004k01.si
                        2938 _Refresh_Needle_Right:
00000b26 9007e100       2939 	prepare	{r28,r29,r31},8
00000b2a 230f3d00       2940 	ld.w	60[sp],r1
00000b2e 06e0           2941 	mov	r6,r28
00000b30 230f4100       2942 	ld.w	64[sp],r1
00000b34 07e8           2943 	mov	r7,r29
00000b36 23774500       2944 	ld.w	68[sp],r14
                        2945 --	    .bf
                        2946 .LDW28:
                        2947 --651:                     r_drw2d_Point_t rot_center, 
                        2948 --652:                     r_drw2d_Point_t tex_rot_center,
                        2949 --653:                     r_drw2d_Texture_t *background,
                        2950 --654:                     MultiBufferSprite_t *MBSprite,
                        2951 --655:                     uint32_t is_left) {
                        2952 --656:     r_drw2d_Framebuffer_t *draw_fb;
                        2953 --657:     r_drw2d_Point_t shadow_rot_center;
                        2954 --658:     r_drw2d_Point_t shadow_tex_rot_center;
                        2955 --659:     static r_drw2d_Texture_t *needle = &gauge_needle1_texture;
                        2956 --661:     draw_fb = MbSpriteNewDrawBufGet(MBSprite);
00000b3a 0130           2957 	mov	r1,r6
                        2958 	jarl	_MbSpriteNewDrawBufGet,lp
                        2958 <EXPANSION BEGIN>
                        2958 jarl22 _MbSpriteNewDrawBufGet , lp 
00000b3c 80ff0000*      2958 <EXPANSION END>
00000b40 0a38           2959 	mov	r10,r7
                        2960 --662:     R_DRW2D_FramebufferSet(g_Drw2dDev, draw_fb);
                        2961 --line662
                        2962 ..lin.7bbb3f5b..1ee9a89c.0_207::
                        2963 .LDWlin207:
00000b42 260600000000*  2964 	mov	_g_Drw2dDev,r6
00000b48 26370100       2965 	ld.w	0[r6],r6
                        2966 	jarl	_R_DRW2D_FramebufferSet,lp
                        2966 <EXPANSION BEGIN>
                        2966 jarl22 _R_DRW2D_FramebufferSet , lp 
00000b4c 80ff0000*      2966 <EXPANSION END>
                        2967 --664: /*     static r_drw2d_Texture_t *needle = &gauge_needle_texture; */
                        2968 --665:     shadow_rot_center.X = rot_center.X - R_DRW2D_2X(4);
                        2969 --line665
                        2970 ..lin.7bbb3f5b..1ee9a89c.0_208::
                        2971 .LDWlin208:
00000b50 230f2d00       2972 	ld.w	44[sp],r1
00000b54 40760400       2973 	movhi	hi(262144),zero,r14
00000b58 ae09           2974 	sub	r14,r1
00000b5a 630f1900       2975 	st.w	r1,24[sp]
                        2976 --666:     shadow_rot_center.Y = rot_center.Y + R_DRW2D_2X(4);
                        2977 --line666
                        2978 ..lin.7bbb3f5b..1ee9a89c.0_209::
                        2979 .LDWlin209:
00000b5e 230f3100       2980 	ld.w	48[sp],r1
00000b62 410e0400       2981 	movhi	4,r1,r1
00000b66 630f1d00       2982 	st.w	r1,28[sp]
                        2983 --667:     shadow_tex_rot_center.X = tex_rot_center.X + R_DRW2D_2X(1);
                        2984 --line667
                        2985 ..lin.7bbb3f5b..1ee9a89c.0_210::
                        2986 .LDWlin210:
00000b6a 230f3500       2987 	ld.w	52[sp],r1
00000b6e 410e0100       2988 	movhi	1,r1,r1
00000b72 630f1100       2989 	st.w	r1,16[sp]
                        2990 --668:     shadow_tex_rot_center.Y = tex_rot_center.Y + R_DRW2D_2X(3);
                        2991 --line668
                        2992 ..lin.7bbb3f5b..1ee9a89c.0_211::

                                                                      Page 56
                                                              C:\Users\MANGESH\AppData\Local\Temp\gh_00004k01.si
                        2993 .LDWlin211:
00000b76 230f3900       2994 	ld.w	56[sp],r1
00000b7a 410e0300       2995 	movhi	3,r1,r1
00000b7e 630f1500       2996 	st.w	r1,20[sp]
                        2997 --669:     
                        2998 --670:     //Refresh_Light(angle, background, is_left);
                        2999 --671:     //Refresh_RotationObject(angle, shadow_rot_center, shadow_tex_rot_center,      &gauge_shadow_texture, 0);
                        3000 --672:     Refresh_RotationObject(angle,
                        3001 --line672
                        3002 ..lin.7bbb3f5b..1ee9a89c.0_212::
                        3003 .LDWlin212:
00000b82 a30749630000   3004 	ld.dw	52[sp],r12
00000b88 210600000000*  3005 	mov	.L2353,r1
00000b8e a307c9420000   3006 	ld.dw	44[sp],r8
00000b94 1c30           3007 	mov	r28,r6
00000b96 1d38           3008 	mov	r29,r7
00000b98 a3070f600000   3009 	st.dw	r12,0[sp]
00000b9e 210f0100       3010 	ld.w	0[r1],r1
00000ba2 63070d00       3011 	st.w	zero,12[sp]
00000ba6 630f0900       3012 	st.w	r1,8[sp]
                        3013 	jarl	_Refresh_RotationObject,lp
                        3013 <EXPANSION BEGIN>
                        3013 jarl22 _Refresh_RotationObject , lp 
00000baa 80ff0000*      3013 <EXPANSION END>
                        3014 --673:                            rot_center, tex_rot_center,
                        3015 --674:                            needle, 0);
                        3016 --676: }
                        3017 --	    .ef
                        3018 .LDW38:
                        3019 --line676
                        3020 ..lin.7bbb3f5b..1ee9a89c.0_213::
                        3021 .LDWlin213:
00000bae 5006ff00       3022 	dispose	8,{r28,r29,r31},[lp]
                        3023 ..lin.7bbb3f5b..1ee9a89c.0_214::
                        3024 .LDWlin214:
                        3025 	.type	_Refresh_Needle_Right,@function
                        3026 	.size	_Refresh_Needle_Right,.-_Refresh_Needle_Right
                        3027 	.align	2
                        3028 .LDW48:
                        3029 --_needle	.L2353	static
                        3030 --_draw_fb	r7	local
                        3031 --_shadow_rot_center	24[sp]	local
                        3032 --_shadow_tex_rot_center	16[sp]	local
                        3033 
                        3034 --_angle	r28	param
                        3035 --_old_angle	r8	param
                        3036 --_rot_center	44[sp]	param
                        3037 --_tex_rot_center	52[sp]	param
                        3038 --_background	r1	param
                        3039 --_MBSprite	r1	param
                        3040 --_is_left	r14	param
                        3041 
                        3042 	.section ".bss","awb"
                        3043 .L2330:
                        3044 	.type	.L2330,@object
                        3045 	.size	.L2330,0
                        3046 	.data
0000002d 000000         3047 	.space	3
                        3048 .L2353:
                        3049 	.global	_needle.Refresh_Needle_Right.G.3A.5Cvlib_v1.2E8_svn.5Capp.5Cgfx_apps.5Cd1m1_flashdash_demo.5Ctarget.5Cd1m2_mango_ghs.5Cobj.5Cmain_scene..10
                        3050 _needle.Refresh_Needle_Right.G.3A.5Cvlib_v1.2E8_svn.5Capp.5Cgfx_apps.5Cd1m1_flashdash_demo.5Ctarget.5Cd1m2_mango_ghs.5Cobj.5Cmain_scene..10:

                                                                      Page 57
                                                              C:\Users\MANGESH\AppData\Local\Temp\gh_00004k01.si
00000030 00000000*      3051 	.word	_gauge_needle1_texture
                        3052 	.type	_needle.Refresh_Needle_Right.G.3A.5Cvlib_v1.2E8_svn.5Capp.5Cgfx_apps.5Cd1m1_flashdash_demo.5Ctarget.5Cd1m2_mango_ghs.5Cobj.5Cmain_scene..10,@object
                        3053 	.size	_needle.Refresh_Needle_Right.G.3A.5Cvlib_v1.2E8_svn.5Capp.5Cgfx_apps.5Cd1m1_flashdash_demo.5Ctarget.5Cd1m2_mango_ghs.5Cobj.5Cmain_scene..10,4
                        3054 	.type	.L2353,@object
                        3055 	.size	.L2353,4
                        3056 	.text
                        3057 
                        3058 
                        3059 --681: void Refresh_LeftNeedle(float32_t kph,
                        3060 	.assert 0x0 + (.L2458 - .L2426) +0 == 12
                        3061 	.assert 0x0 + (.L2457 - .L2426) +0 == 4
                        3062 	.assert 0x0 + (.L2459 - .L2426) +0 == 20
                        3063 	.align	2
                        3064 	.align	2
                        3065 	.align	2
                        3066 ..gh.f.a.2.e.25:
                        3067 	.type	..gh.f.a.2.e.25,@object
                        3068 	.size	..gh.f.a.2.e.25,0
                        3069 	.global	_Refresh_LeftNeedle
                        3070 _Refresh_LeftNeedle:
00000bb2 a007e170       3071 	prepare	{r25,r26,r27,r28,r29,r31},16
00000bb6 3d0600000000*  3072 	mov	.L2426,r29
00000bbc 633f1d00       3073 	st.w	r7,28[sp]
00000bc0 3dd60c00       3074 	movea	12,r29,r26
00000bc4 3c0600000000*  3075 	mov	_LeftNeedle,r28
00000bca 3dce0400       3076 	movea	4,r29,r25
00000bce 3dde1400       3077 	movea	20,r29,r27
                        3078 --	    .bf
                        3079 .LDW58:
                        3080 --682:                         r_drw2d_Texture_t *background){
                        3081 --683:     r_drw2d_Point_t rot_center, tex_rot_center;
                        3082 --684:     volatile static float64_t angle = -32.44470326;
                        3083 --685:     static float64_t old_angle[2] = { -90, -90};
                        3084 --686:     static uint32_t  old_angle_index=0;
                        3085 --687:     r_drw2d_IntRect_t rect;
                        3086 --688: #if 1
                        3087 --689:     //angle = CalculateAngleLeft(kph);
                        3088 --690: 	angle = CalculateAngleRight(kph);
                        3089 --line690
                        3090 ..lin.7bbb3f5b..ec1d3dca.0_215::
                        3091 .LDWlin215:
                        3092 	jarl	_CalculateAngleRight,lp
                        3092 <EXPANSION BEGIN>
                        3092 jarl22 _CalculateAngleRight , lp 
00000bd2 bfff8cf6*      3092 <EXPANSION END>
00000bd6 bd074f500000   3093 	st.dw	r10,4[r29]
                        3094 --691: #else
                        3095 --692:     angle += .5;
                        3096 --693:     if(angle == 180.0 && angle <= 180.0001){
                        3097 --694:         angle = angle;
                        3098 --695:     }
                        3099 --696: /*     if(angle >= 240) angle = 120; */
                        3100 --697:     if(angle >= 360) angle -= 360;
                        3101 --698: #endif
                        3102 --699:     Setup_LeftNeedleParameters(&rot_center, &tex_rot_center);
                        3103 --line699
                        3104 ..lin.7bbb3f5b..ec1d3dca.0_216::
                        3105 .LDWlin216:
00000bdc 23363800       3106 	movea	56,sp,r6
00000be0 233e3000       3107 	movea	48,sp,r7
                        3108 	jarl	_Setup_LeftNeedleParameters,lp

                                                                      Page 58
                                                              C:\Users\MANGESH\AppData\Local\Temp\gh_00004k01.si
                        3108 <EXPANSION BEGIN>
                        3108 jarl22 _Setup_LeftNeedleParameters , lp 
00000be4 bfffd6f6*      3108 <EXPANSION END>
                        3109 --700:     Clear_Needle_Left(old_angle[old_angle_index], rot_center, tex_rot_center, &LeftNeedle, 1);
                        3110 --line700
                        3111 ..lin.7bbb3f5b..ec1d3dca.0_217::
                        3112 .LDWlin217:
00000be8 3d0f0d00       3113 	ld.w	12[r29],r1
00000bec a30709630000   3114 	ld.dw	48[sp],r12
00000bf2 a30789430000   3115 	ld.dw	56[sp],r8
00000bf8 c30a           3116 	shl	3,r1
00000bfa db09           3117 	add	r27,r1
00000bfc a10709300000   3118 	ld.dw	0[r1],r6
00000c02 a3070f600000   3119 	st.dw	r12,0[sp]
00000c08 63e70900       3120 	st.w	r28,8[sp]
00000c0c 010a           3121 	mov	1,r1
00000c0e 630f0d00       3122 	st.w	r1,12[sp]
                        3123 	jarl	_Clear_Needle_Left,lp
                        3123 <EXPANSION BEGIN>
                        3123 jarl22 _Clear_Needle_Left , lp 
00000c12 bfff18f8*      3123 <EXPANSION END>
                        3124 --701:     MbSpriteDrawPosSet(&LeftNeedle, 0, 0);
                        3125 --line701
                        3126 ..lin.7bbb3f5b..ec1d3dca.0_218::
                        3127 .LDWlin218:
00000c16 1c30           3128 	mov	r28,r6
00000c18 003a           3129 	mov	0,r7
00000c1a 0042           3130 	mov	0,r8
                        3131 	jarl	_MbSpriteDrawPosSet,lp
                        3131 <EXPANSION BEGIN>
                        3131 jarl22 _MbSpriteDrawPosSet , lp 
00000c1c 80ff0000*      3131 <EXPANSION END>
                        3132 --702:     Setup_LeftNeedleParameters(&rot_center, &tex_rot_center);
                        3133 --line702
                        3134 ..lin.7bbb3f5b..ec1d3dca.0_219::
                        3135 .LDWlin219:
00000c20 23363800       3136 	movea	56,sp,r6
00000c24 233e3000       3137 	movea	48,sp,r7
                        3138 	jarl	_Setup_LeftNeedleParameters,lp
                        3138 <EXPANSION BEGIN>
                        3138 jarl22 _Setup_LeftNeedleParameters , lp 
00000c28 bfff92f6*      3138 <EXPANSION END>
                        3139 --703:     rect = Calc_Rect_Left(angle, rot_center, tex_rot_center, &LeftNeedle);
                        3140 --line703
                        3141 ..lin.7bbb3f5b..ec1d3dca.0_220::
                        3142 .LDWlin220:
00000c2c a30789630000   3143 	ld.dw	56[sp],r12
00000c32 bd0749400000   3144 	ld.dw	4[r29],r8
00000c38 23362000       3145 	movea	32,sp,r6
00000c3c a3070f600000   3146 	st.dw	r12,0[sp]
00000c42 a30709630000   3147 	ld.dw	48[sp],r12
00000c48 a3078f600000   3148 	st.dw	r12,8[sp]
00000c4e 63e71100       3149 	st.w	r28,16[sp]
                        3150 	jarl	_Calc_Rect_Left,lp
                        3150 <EXPANSION BEGIN>
                        3150 jarl22 _Calc_Rect_Left , lp 
00000c52 bfffdcf8*      3150 <EXPANSION END>
                        3151 --704:     MbSpriteDrawGeometrySet(&LeftNeedle, rect);    
                        3152 --line704
                        3153 ..lin.7bbb3f5b..ec1d3dca.0_221::
                        3154 .LDWlin221:

                                                                      Page 59
                                                              C:\Users\MANGESH\AppData\Local\Temp\gh_00004k01.si
00000c56 230f2d00       3155 	ld.w	44[sp],r1
00000c5a 23f62000       3156 	movea	32,sp,ep
00000c5e 003d           3157 	sld.w	0[ep],r7
00000c60 1c30           3158 	mov	r28,r6
00000c62 a30749420000   3159 	ld.dw	36[sp],r8
00000c68 630f0100       3160 	st.w	r1,0[sp]
                        3161 	jarl	_MbSpriteDrawGeometrySet,lp
                        3161 <EXPANSION BEGIN>
                        3161 jarl22 _MbSpriteDrawGeometrySet , lp 
00000c6c 80ff0000*      3161 <EXPANSION END>
                        3162 --705:     Setup_LeftNeedleParameters(&rot_center, &tex_rot_center);
                        3163 --line705
                        3164 ..lin.7bbb3f5b..ec1d3dca.0_222::
                        3165 .LDWlin222:
00000c70 23363800       3166 	movea	56,sp,r6
00000c74 233e3000       3167 	movea	48,sp,r7
                        3168 	jarl	_Setup_LeftNeedleParameters,lp
                        3168 <EXPANSION BEGIN>
                        3168 jarl22 _Setup_LeftNeedleParameters , lp 
00000c78 bfff42f6*      3168 <EXPANSION END>
                        3169 --706:     Refresh_Needle_Left(angle, old_angle[old_angle_index], rot_center, tex_rot_center, background, 
                        3170 --line706
                        3171 ..lin.7bbb3f5b..ec1d3dca.0_223::
                        3172 .LDWlin223:
00000c7c 3d0f0d00       3173 	ld.w	12[r29],r1
00000c80 a30789630000   3174 	ld.dw	56[sp],r12
00000c86 bd0749300000   3175 	ld.dw	4[r29],r6
00000c8c c30a           3176 	shl	3,r1
00000c8e db09           3177 	add	r27,r1
00000c90 a10709400000   3178 	ld.dw	0[r1],r8
00000c96 a3070f600000   3179 	st.dw	r12,0[sp]
00000c9c a30709630000   3180 	ld.dw	48[sp],r12
00000ca2 010a           3181 	mov	1,r1
00000ca4 a3078f600000   3182 	st.dw	r12,8[sp]
00000caa 235f1d00       3183 	ld.w	28[sp],r11
00000cae 63e71500       3184 	st.w	r28,20[sp]
00000cb2 630f1900       3185 	st.w	r1,24[sp]
00000cb6 635f1100       3186 	st.w	r11,16[sp]
                        3187 	jarl	_Refresh_Needle_Left,lp
                        3187 <EXPANSION BEGIN>
                        3187 jarl22 _Refresh_Needle_Left , lp 
00000cba bfff3cfa*      3187 <EXPANSION END>
                        3188 --707:                    &LeftNeedle, 1);
                        3189 --708:     old_angle[old_angle_index] = angle;
                        3190 --line708
                        3191 ..lin.7bbb3f5b..ec1d3dca.0_224::
                        3192 .LDWlin224:
00000cbe 3d0f0d00       3193 	ld.w	12[r29],r1
00000cc2 bd0749600000   3194 	ld.dw	4[r29],r12
00000cc8 c30a           3195 	shl	3,r1
00000cca db09           3196 	add	r27,r1
00000ccc a1070f600000   3197 	st.dw	r12,0[r1]
                        3198 --709:     old_angle_index = IncIndex(old_angle_index);
                        3199 --line709
                        3200 ..lin.7bbb3f5b..ec1d3dca.0_225::
                        3201 .LDWlin225:
00000cd2 3d370d00       3202 	ld.w	12[r29],r6
                        3203 	jarl	_IncIndex,lp
                        3203 <EXPANSION BEGIN>
                        3203 jarl22 _IncIndex , lp 
00000cd6 bfffd8f5*      3203 <EXPANSION END>

                                                                      Page 60
                                                              C:\Users\MANGESH\AppData\Local\Temp\gh_00004k01.si
00000cda 7d570d00       3204 	st.w	r10,12[r29]
                        3205 --710: }
                        3206 --	    .ef
                        3207 .LDW68:
                        3208 --line710
                        3209 ..lin.7bbb3f5b..ec1d3dca.0_226::
                        3210 .LDWlin226:
00000cde 6006ff70       3211 	dispose	16,{r25,r26,r27,r28,r29,r31},[lp]
                        3212 ..lin.7bbb3f5b..ec1d3dca.0_227::
                        3213 .LDWlin227:
                        3214 	.type	_Refresh_LeftNeedle,@function
                        3215 	.size	_Refresh_LeftNeedle,.-_Refresh_LeftNeedle
                        3216 	.align	2
                        3217 .LDW78:
                        3218 --_angle	.L2457	static
                        3219 --_old_angle	.L2459	static
                        3220 --_old_angle_index	.L2458	static
                        3221 --_rot_center	56[sp]	local
                        3222 --_tex_rot_center	48[sp]	local
                        3223 --_rect	32[sp]	local
                        3224 
                        3225 --_kph	r6	param
                        3226 --_background	28[sp]	param
                        3227 
                        3228 	.data
                        3229 .L2426:
                        3230 	.type	.L2426,@object
                        3231 	.size	.L2426,0
00000034 00000000       3232 	.space	4
                        3233 .L2457:
                        3234 	.global	_angle.Refresh_LeftNeedle.G.3A.5Cvlib_v1.2E8_svn.5Capp.5Cgfx_apps.5Cd1m1_flashdash_demo.5Ctarget.5Cd1m2_mango_ghs.5Cobj.5Cmain_scene..11
                        3235 _angle.Refresh_LeftNeedle.G.3A.5Cvlib_v1.2E8_svn.5Capp.5Cgfx_apps.5Cd1m1_flashdash_demo.5Ctarget.5Cd1m2_mango_ghs.5Cobj.5Cmain_scene..11:
00000038 f20f5309       3236 	.byte	242,15,83,9
0000003c ec3840c0       3237 	.byte	236,56,64,192
                        3238 	.type	_angle.Refresh_LeftNeedle.G.3A.5Cvlib_v1.2E8_svn.5Capp.5Cgfx_apps.5Cd1m1_flashdash_demo.5Ctarget.5Cd1m2_mango_ghs.5Cobj.5Cmain_scene..11,@object
                        3239 	.size	_angle.Refresh_LeftNeedle.G.3A.5Cvlib_v1.2E8_svn.5Capp.5Cgfx_apps.5Cd1m1_flashdash_demo.5Ctarget.5Cd1m2_mango_ghs.5Cobj.5Cmain_scene..11,8
                        3240 	.type	.L2457,@object
                        3241 	.size	.L2457,8
                        3242 .L2458:
                        3243 	.global	_old_angle_index.Refresh_LeftNeedle.G.3A.5Cvlib_v1.2E8_svn.5Capp.5Cgfx_apps.5Cd1m1_flashdash_demo.5Ctarget.5Cd1m2_mango_ghs.5Cobj.5Cmain_scene..13
                        3244 _old_angle_index.Refresh_LeftNeedle.G.3A.5Cvlib_v1.2E8_svn.5Capp.5Cgfx_apps.5Cd1m1_flashdash_demo.5Ctarget.5Cd1m2_mango_ghs.5Cobj.5Cmain_scene..13:
00000040 00000000       3245 	.byte	0,0,0,0
                        3246 	.type	_old_angle_index.Refresh_LeftNeedle.G.3A.5Cvlib_v1.2E8_svn.5Capp.5Cgfx_apps.5Cd1m1_flashdash_demo.5Ctarget.5Cd1m2_mango_ghs.5Cobj.5Cmain_scene..13,@object
                        3247 	.size	_old_angle_index.Refresh_LeftNeedle.G.3A.5Cvlib_v1.2E8_svn.5Capp.5Cgfx_apps.5Cd1m1_flashdash_demo.5Ctarget.5Cd1m2_mango_ghs.5Cobj.5Cmain_scene..13,4
                        3248 	.type	.L2458,@object
                        3249 	.size	.L2458,4
00000044 00000000       3250 	.space	4
                        3251 .L2459:
                        3252 	.global	_old_angle.Refresh_LeftNeedle.G.3A.5Cvlib_v1.2E8_svn.5Capp.5Cgfx_apps.5Cd1m1_flashdash_demo.5Ctarget.5Cd1m2_mango_ghs.5Cobj.5Cmain_scene..12
                        3253 _old_angle.Refresh_LeftNeedle.G.3A.5Cvlib_v1.2E8_svn.5Capp.5Cgfx_apps.5Cd1m1_flashdash_demo.5Ctarget.5Cd1m2_mango_ghs.5Cobj.5Cmain_scene..12:
00000048 00000000       3254 	.byte	0,0,0,0
0000004c 008056c0       3255 	.byte	0,128,86,192
00000050 00000000       3256 	.byte	0,0,0,0
00000054 008056c0       3257 	.byte	0,128,86,192
                        3258 	.type	_old_angle.Refresh_LeftNeedle.G.3A.5Cvlib_v1.2E8_svn.5Capp.5Cgfx_apps.5Cd1m1_flashdash_demo.5Ctarget.5Cd1m2_mango_ghs.5Cobj.5Cmain_scene..12,@object
                        3259 	.size	_old_angle.Refresh_LeftNeedle.G.3A.5Cvlib_v1.2E8_svn.5Capp.5Cgfx_apps.5Cd1m1_flashdash_demo.5Ctarget.5Cd1m2_mango_ghs.5Cobj.5Cmain_scene..12,16
                        3260 	.type	.L2459,@object
                        3261 	.size	.L2459,16
                        3262 	.text
                        3263 
                        3264 

                                                                      Page 61
                                                              C:\Users\MANGESH\AppData\Local\Temp\gh_00004k01.si
                        3265 --712: void Refresh_RightNeedle(float32_t rpm,
                        3266 	.assert 0x0 + (.L2570 - .L2538) +0 == 8
                        3267 	.assert 0x0 + (.L2569 - .L2538) +0 == 0
                        3268 	.assert 0x0 + (.L2571 - .L2538) +0 == 16
                        3269 	.align	2
                        3270 	.align	2
                        3271 	.align	2
                        3272 ..gh.f.a.2.e.26:
                        3273 	.type	..gh.f.a.2.e.26,@object
                        3274 	.size	..gh.f.a.2.e.26,0
                        3275 	.global	_Refresh_RightNeedle
                        3276 _Refresh_RightNeedle:
00000ce2 a007e170       3277 	prepare	{r25,r26,r27,r28,r29,r31},16
00000ce6 3d0600000000*  3278 	mov	.L2538,r29
00000cec 633f1d00       3279 	st.w	r7,28[sp]
00000cf0 3dd60800       3280 	movea	8,r29,r26
00000cf4 3c0600000000*  3281 	mov	_RightNeedle,r28
00000cfa 3dce0000       3282 	movea	0,r29,r25
00000cfe 3dde1000       3283 	movea	16,r29,r27
                        3284 --	    .bf
                        3285 .LDW88:
                        3286 --713:                         r_drw2d_Texture_t *background){
                        3287 --714:     r_drw2d_Point_t rot_center, tex_rot_center;
                        3288 --715:     volatile static float64_t angle = -32.44470326;
                        3289 --716:     static float64_t old_angle[2] = { -90, -90};
                        3290 --717:     static uint32_t  old_angle_index=0;
                        3291 --718:     r_drw2d_IntRect_t rect;
                        3292 --719: #if 1
                        3293 --720:     angle = CalculateAngleRight(rpm);
                        3294 --line720
                        3295 ..lin.7bbb3f5b..3900bb5d.0_228::
                        3296 .LDWlin228:
                        3297 	jarl	_CalculateAngleRight,lp
                        3297 <EXPANSION BEGIN>
                        3297 jarl22 _CalculateAngleRight , lp 
00000d02 bfff5cf5*      3297 <EXPANSION END>
00000d06 bd070f500000   3298 	st.dw	r10,0[r29]
                        3299 --721: #else
                        3300 --722:     angle += .5;
                        3301 --723:     if(angle == 180.0 && angle <= 180.0001){
                        3302 --724:         angle = angle;
                        3303 --725:     }
                        3304 --726: /*     if(angle >= 240) angle = 120; */
                        3305 --727:     if(angle >= 360) angle -= 360;
                        3306 --728: #endif
                        3307 --729:     Setup_RightNeedleParameters(&rot_center, &tex_rot_center);
                        3308 --line729
                        3309 ..lin.7bbb3f5b..3900bb5d.0_229::
                        3310 .LDWlin229:
00000d0c 23363800       3311 	movea	56,sp,r6
00000d10 233e3000       3312 	movea	48,sp,r7
                        3313 	jarl	_Setup_RightNeedleParameters,lp
                        3313 <EXPANSION BEGIN>
                        3313 jarl22 _Setup_RightNeedleParameters , lp 
00000d14 bfff5ef6*      3313 <EXPANSION END>
                        3314 --730:     Clear_Needle_Right(old_angle[old_angle_index], rot_center, tex_rot_center, &RightNeedle, 1);
                        3315 --line730
                        3316 ..lin.7bbb3f5b..3900bb5d.0_230::
                        3317 .LDWlin230:
00000d18 3d0f0900       3318 	ld.w	8[r29],r1
00000d1c a30709630000   3319 	ld.dw	48[sp],r12

                                                                      Page 62
                                                              C:\Users\MANGESH\AppData\Local\Temp\gh_00004k01.si
00000d22 a30789430000   3320 	ld.dw	56[sp],r8
00000d28 c30a           3321 	shl	3,r1
00000d2a db09           3322 	add	r27,r1
00000d2c a10709300000   3323 	ld.dw	0[r1],r6
00000d32 a3070f600000   3324 	st.dw	r12,0[sp]
00000d38 63e70900       3325 	st.w	r28,8[sp]
00000d3c 010a           3326 	mov	1,r1
00000d3e 630f0d00       3327 	st.w	r1,12[sp]
                        3328 	jarl	_Clear_Needle_Right,lp
                        3328 <EXPANSION BEGIN>
                        3328 jarl22 _Clear_Needle_Right , lp 
00000d42 bfff6af7*      3328 <EXPANSION END>
                        3329 --731:     MbSpriteDrawPosSet(&RightNeedle, 0, 0);
                        3330 --line731
                        3331 ..lin.7bbb3f5b..3900bb5d.0_231::
                        3332 .LDWlin231:
00000d46 1c30           3333 	mov	r28,r6
00000d48 003a           3334 	mov	0,r7
00000d4a 0042           3335 	mov	0,r8
                        3336 	jarl	_MbSpriteDrawPosSet,lp
                        3336 <EXPANSION BEGIN>
                        3336 jarl22 _MbSpriteDrawPosSet , lp 
00000d4c 80ff0000*      3336 <EXPANSION END>
                        3337 --732:     Setup_RightNeedleParameters(&rot_center, &tex_rot_center);
                        3338 --line732
                        3339 ..lin.7bbb3f5b..3900bb5d.0_232::
                        3340 .LDWlin232:
00000d50 23363800       3341 	movea	56,sp,r6
00000d54 233e3000       3342 	movea	48,sp,r7
                        3343 	jarl	_Setup_RightNeedleParameters,lp
                        3343 <EXPANSION BEGIN>
                        3343 jarl22 _Setup_RightNeedleParameters , lp 
00000d58 bfff1af6*      3343 <EXPANSION END>
                        3344 --733:     rect = Calc_Rect_Right(angle, rot_center, tex_rot_center, &RightNeedle);
                        3345 --line733
                        3346 ..lin.7bbb3f5b..3900bb5d.0_233::
                        3347 .LDWlin233:
00000d5c a30789630000   3348 	ld.dw	56[sp],r12
00000d62 bd0709400000   3349 	ld.dw	0[r29],r8
00000d68 23362000       3350 	movea	32,sp,r6
00000d6c a3070f600000   3351 	st.dw	r12,0[sp]
00000d72 a30709630000   3352 	ld.dw	48[sp],r12
00000d78 a3078f600000   3353 	st.dw	r12,8[sp]
00000d7e 63e71100       3354 	st.w	r28,16[sp]
                        3355 	jarl	_Calc_Rect_Right,lp
                        3355 <EXPANSION BEGIN>
                        3355 jarl22 _Calc_Rect_Right , lp 
00000d82 bfff90f8*      3355 <EXPANSION END>
                        3356 --734:     MbSpriteDrawGeometrySet(&RightNeedle, rect);    
                        3357 --line734
                        3358 ..lin.7bbb3f5b..3900bb5d.0_234::
                        3359 .LDWlin234:
00000d86 230f2d00       3360 	ld.w	44[sp],r1
00000d8a 23f62000       3361 	movea	32,sp,ep
00000d8e 003d           3362 	sld.w	0[ep],r7
00000d90 1c30           3363 	mov	r28,r6
00000d92 a30749420000   3364 	ld.dw	36[sp],r8
00000d98 630f0100       3365 	st.w	r1,0[sp]
                        3366 	jarl	_MbSpriteDrawGeometrySet,lp
                        3366 <EXPANSION BEGIN>
                        3366 jarl22 _MbSpriteDrawGeometrySet , lp 

                                                                      Page 63
                                                              C:\Users\MANGESH\AppData\Local\Temp\gh_00004k01.si
00000d9c 80ff0000*      3366 <EXPANSION END>
                        3367 --735:     Setup_RightNeedleParameters(&rot_center, &tex_rot_center);
                        3368 --line735
                        3369 ..lin.7bbb3f5b..3900bb5d.0_235::
                        3370 .LDWlin235:
00000da0 23363800       3371 	movea	56,sp,r6
00000da4 233e3000       3372 	movea	48,sp,r7
                        3373 	jarl	_Setup_RightNeedleParameters,lp
                        3373 <EXPANSION BEGIN>
                        3373 jarl22 _Setup_RightNeedleParameters , lp 
00000da8 bfffcaf5*      3373 <EXPANSION END>
                        3374 --736:     Refresh_Needle_Right(angle, old_angle[old_angle_index], rot_center, tex_rot_center, background, 
                        3375 --line736
                        3376 ..lin.7bbb3f5b..3900bb5d.0_236::
                        3377 .LDWlin236:
00000dac 3d0f0900       3378 	ld.w	8[r29],r1
00000db0 a30789630000   3379 	ld.dw	56[sp],r12
00000db6 bd0709300000   3380 	ld.dw	0[r29],r6
00000dbc c30a           3381 	shl	3,r1
00000dbe db09           3382 	add	r27,r1
00000dc0 a10709400000   3383 	ld.dw	0[r1],r8
00000dc6 a3070f600000   3384 	st.dw	r12,0[sp]
00000dcc a30709630000   3385 	ld.dw	48[sp],r12
00000dd2 010a           3386 	mov	1,r1
00000dd4 a3078f600000   3387 	st.dw	r12,8[sp]
00000dda 235f1d00       3388 	ld.w	28[sp],r11
00000dde 63e71500       3389 	st.w	r28,20[sp]
00000de2 630f1900       3390 	st.w	r1,24[sp]
00000de6 635f1100       3391 	st.w	r11,16[sp]
                        3392 	jarl	_Refresh_Needle_Right,lp
                        3392 <EXPANSION BEGIN>
                        3392 jarl22 _Refresh_Needle_Right , lp 
00000dea bfff3cfd*      3392 <EXPANSION END>
                        3393 --737:                    &RightNeedle, 1);
                        3394 --738:     old_angle[old_angle_index] = angle;
                        3395 --line738
                        3396 ..lin.7bbb3f5b..3900bb5d.0_237::
                        3397 .LDWlin237:
00000dee 3d0f0900       3398 	ld.w	8[r29],r1
00000df2 bd0709600000   3399 	ld.dw	0[r29],r12
00000df8 c30a           3400 	shl	3,r1
00000dfa db09           3401 	add	r27,r1
00000dfc a1070f600000   3402 	st.dw	r12,0[r1]
                        3403 --739:     old_angle_index = IncIndex(old_angle_index);
                        3404 --line739
                        3405 ..lin.7bbb3f5b..3900bb5d.0_238::
                        3406 .LDWlin238:
00000e02 3d370900       3407 	ld.w	8[r29],r6
                        3408 	jarl	_IncIndex,lp
                        3408 <EXPANSION BEGIN>
                        3408 jarl22 _IncIndex , lp 
00000e06 bfffa8f4*      3408 <EXPANSION END>
00000e0a 7d570900       3409 	st.w	r10,8[r29]
                        3410 --740: }
                        3411 --	    .ef
                        3412 .LDW98:
                        3413 --line740
                        3414 ..lin.7bbb3f5b..3900bb5d.0_239::
                        3415 .LDWlin239:
00000e0e 6006ff70       3416 	dispose	16,{r25,r26,r27,r28,r29,r31},[lp]
                        3417 ..lin.7bbb3f5b..3900bb5d.0_240::

                                                                      Page 64
                                                              C:\Users\MANGESH\AppData\Local\Temp\gh_00004k01.si
                        3418 .LDWlin240:
                        3419 	.type	_Refresh_RightNeedle,@function
                        3420 	.size	_Refresh_RightNeedle,.-_Refresh_RightNeedle
                        3421 	.align	2
                        3422 .LDW09:
                        3423 --_angle	.L2569	static
                        3424 --_old_angle	.L2571	static
                        3425 --_old_angle_index	.L2570	static
                        3426 --_rot_center	56[sp]	local
                        3427 --_tex_rot_center	48[sp]	local
                        3428 --_rect	32[sp]	local
                        3429 
                        3430 --_rpm	r6	param
                        3431 --_background	28[sp]	param
                        3432 
                        3433 	.data
                        3434 .L2538:
                        3435 	.type	.L2538,@object
                        3436 	.size	.L2538,0
                        3437 .L2569:
                        3438 	.global	_angle.Refresh_RightNeedle.G.3A.5Cvlib_v1.2E8_svn.5Capp.5Cgfx_apps.5Cd1m1_flashdash_demo.5Ctarget.5Cd1m2_mango_ghs.5Cobj.5Cmain_scene..14
                        3439 _angle.Refresh_RightNeedle.G.3A.5Cvlib_v1.2E8_svn.5Capp.5Cgfx_apps.5Cd1m1_flashdash_demo.5Ctarget.5Cd1m2_mango_ghs.5Cobj.5Cmain_scene..14:
00000058 f20f5309       3440 	.byte	242,15,83,9
0000005c ec3840c0       3441 	.byte	236,56,64,192
                        3442 	.type	_angle.Refresh_RightNeedle.G.3A.5Cvlib_v1.2E8_svn.5Capp.5Cgfx_apps.5Cd1m1_flashdash_demo.5Ctarget.5Cd1m2_mango_ghs.5Cobj.5Cmain_scene..14,@object
                        3443 	.size	_angle.Refresh_RightNeedle.G.3A.5Cvlib_v1.2E8_svn.5Capp.5Cgfx_apps.5Cd1m1_flashdash_demo.5Ctarget.5Cd1m2_mango_ghs.5Cobj.5Cmain_scene..14,8
                        3444 	.type	.L2569,@object
                        3445 	.size	.L2569,8
                        3446 .L2570:
                        3447 	.global	_old_angle_index.Refresh_RightNeedle.G.3A.5Cvlib_v1.2E8_svn.5Capp.5Cgfx_apps.5Cd1m1_flashdash_demo.5Ctarget.5Cd1m2_mango_ghs.5Cobj.5Cmain_scene..16
                        3448 _old_angle_index.Refresh_RightNeedle.G.3A.5Cvlib_v1.2E8_svn.5Capp.5Cgfx_apps.5Cd1m1_flashdash_demo.5Ctarget.5Cd1m2_mango_ghs.5Cobj.5Cmain_scene..16:
00000060 00000000       3449 	.byte	0,0,0,0
                        3450 	.type	_old_angle_index.Refresh_RightNeedle.G.3A.5Cvlib_v1.2E8_svn.5Capp.5Cgfx_apps.5Cd1m1_flashdash_demo.5Ctarget.5Cd1m2_mango_ghs.5Cobj.5Cmain_scene..16,@object
                        3451 	.size	_old_angle_index.Refresh_RightNeedle.G.3A.5Cvlib_v1.2E8_svn.5Capp.5Cgfx_apps.5Cd1m1_flashdash_demo.5Ctarget.5Cd1m2_mango_ghs.5Cobj.5Cmain_scene..16,4
                        3452 	.type	.L2570,@object
                        3453 	.size	.L2570,4
00000064 00000000       3454 	.space	4
                        3455 .L2571:
                        3456 	.global	_old_angle.Refresh_RightNeedle.G.3A.5Cvlib_v1.2E8_svn.5Capp.5Cgfx_apps.5Cd1m1_flashdash_demo.5Ctarget.5Cd1m2_mango_ghs.5Cobj.5Cmain_scene..15
                        3457 _old_angle.Refresh_RightNeedle.G.3A.5Cvlib_v1.2E8_svn.5Capp.5Cgfx_apps.5Cd1m1_flashdash_demo.5Ctarget.5Cd1m2_mango_ghs.5Cobj.5Cmain_scene..15:
00000068 00000000       3458 	.byte	0,0,0,0
0000006c 008056c0       3459 	.byte	0,128,86,192
00000070 00000000       3460 	.byte	0,0,0,0
00000074 008056c0       3461 	.byte	0,128,86,192
                        3462 	.type	_old_angle.Refresh_RightNeedle.G.3A.5Cvlib_v1.2E8_svn.5Capp.5Cgfx_apps.5Cd1m1_flashdash_demo.5Ctarget.5Cd1m2_mango_ghs.5Cobj.5Cmain_scene..15,@object
                        3463 	.size	_old_angle.Refresh_RightNeedle.G.3A.5Cvlib_v1.2E8_svn.5Capp.5Cgfx_apps.5Cd1m1_flashdash_demo.5Ctarget.5Cd1m2_mango_ghs.5Cobj.5Cmain_scene..15,16
                        3464 	.type	.L2571,@object
                        3465 	.size	.L2571,16
                        3466 	.text
                        3467 
                        3468 
                        3469 --744: static uint32_t volatile  frame_count=0;
                        3470 --746: uint32_t even_frame(void){
                        3471 	.align	2
                        3472 	.align	2
                        3473 	.align	2
                        3474 ..gh.f.a.2.e.27:
                        3475 	.type	..gh.f.a.2.e.27,@object
                        3476 	.size	..gh.f.a.2.e.27,0
                        3477 	.global	_even_frame
                        3478 _even_frame:

                                                                      Page 65
                                                              C:\Users\MANGESH\AppData\Local\Temp\gh_00004k01.si
00000e12 210600000000*  3479 	mov	_frame_count,r1
                        3480 --	    .bf
                        3481 .LDW19:
                        3482 --747:     return (0 == frame_count%2);
                        3483 --line747
                        3484 ..lin.7bbb3f5b..e0e7809c.0_241::
                        3485 .LDWlin241:
00000e18 210600000000*  3486 	mov	_frame_count,r1
00000e1e 210f0100       3487 	ld.w	0[r1],r1
00000e22 810a           3488 	shr	1,r1
00000e24 e9570000       3489 	setfnl	r10
                        3490 --	    .ef
                        3491 .LDW29:
                        3492 --line748
                        3493 ..lin.7bbb3f5b..e0e7809c.0_242::
                        3494 .LDWlin242:
                        3495 	.jumptype return
00000e28 7f00           3496 	jmp	[lp]
                        3497 ..lin.7bbb3f5b..e0e7809c.0_243::
                        3498 .LDWlin243:
                        3499 	.type	_even_frame,@function
                        3500 	.size	_even_frame,.-_even_frame
                        3501 	.align	2
                        3502 .LDW39:
                        3503 
                        3504 	.data
                        3505 	.text
                        3506 
                        3507 --748: }
                        3508 
                        3509 --750: uint32_t odd_frame(void){
                        3510 	.align	2
                        3511 	.align	2
                        3512 	.align	2
                        3513 ..gh.f.a.2.e.28:
                        3514 	.type	..gh.f.a.2.e.28,@object
                        3515 	.size	..gh.f.a.2.e.28,0
                        3516 	.global	_odd_frame
                        3517 _odd_frame:
00000e2a 210600000000*  3518 	mov	_frame_count,r1
                        3519 --	    .bf
                        3520 .LDW49:
                        3521 --751:     return (1 == frame_count%2);
                        3522 --line751
                        3523 ..lin.7bbb3f5b..7815a2a5.0_244::
                        3524 .LDWlin244:
00000e30 210600000000*  3525 	mov	_frame_count,r1
00000e36 210f0100       3526 	ld.w	0[r1],r1
00000e3a c10e0100       3527 	andi	1,r1,r1
00000e3e 0150           3528 	mov	r1,r10
                        3529 --	    .ef
                        3530 .LDW59:
                        3531 --line752
                        3532 ..lin.7bbb3f5b..7815a2a5.0_245::
                        3533 .LDWlin245:
                        3534 	.jumptype return
00000e40 7f00           3535 	jmp	[lp]
                        3536 ..lin.7bbb3f5b..7815a2a5.0_246::
                        3537 .LDWlin246:
                        3538 	.type	_odd_frame,@function
                        3539 	.size	_odd_frame,.-_odd_frame

                                                                      Page 66
                                                              C:\Users\MANGESH\AppData\Local\Temp\gh_00004k01.si
                        3540 	.align	2
                        3541 .LDW69:
                        3542 
                        3543 	.data
                        3544 	.text
                        3545 
                        3546 --752: }
                        3547 
                        3548 --754: void break_frame_debug(void){
                        3549 	.assert 0x0 + (_frame_count - _frame_count) +0 == 0
                        3550 	.align	2
                        3551 	.align	2
                        3552 	.align	2
                        3553 ..gh.f.a.2.e.29:
                        3554 	.type	..gh.f.a.2.e.29,@object
                        3555 	.size	..gh.f.a.2.e.29,0
                        3556 	.global	_break_frame_debug
                        3557 _break_frame_debug:
00000e42 210600000000*  3558 	mov	_frame_count,r1
00000e48 0170           3559 	mov	r1,r14
                        3560 --	    .bf
                        3561 .LDW79:
                        3562 --755:     if(frame_count%20 == 0){
                        3563 --line755
                        3564 ..lin.7bbb3f5b..83f022d9.0_247::
                        3565 .LDWlin247:
00000e4a 216f0100       3566 	ld.w	0[r1],r13
00000e4e 20661400       3567 	movea	20,zero,r12
00000e52 ec6ffe6a       3568 	divqu	r12,r13,r13
00000e56 e069           3569 	cmp	zero,r13
00000e58 da05*          3570 	bne	.L2649
                        3571 --756:         frame_count = frame_count;
                        3572 --line756
                        3573 ..lin.7bbb3f5b..83f022d9.0_248::
                        3574 .LDWlin248:
00000e5a 216f0100       3575 	ld.w	0[r1],r13
00000e5e 616f0100       3576 	st.w	r13,0[r1]
                        3577 .L2649:
                        3578 --757:     }
                        3579 --758: }
                        3580 --	    .ef
                        3581 .LDW89:
                        3582 	.jumptype return
00000e62 7f00           3583 	jmp	[lp]
                        3584 ..lin.7bbb3f5b..83f022d9.0_249::
                        3585 .LDWlin249:
                        3586 	.type	_break_frame_debug,@function
                        3587 	.size	_break_frame_debug,.-_break_frame_debug
                        3588 	.align	2
                        3589 .LDW99:
                        3590 
                        3591 	.data
                        3592 	.text
                        3593 
                        3594 
                        3595 --762: r_drw2d_Rect_t GetDrawRect(r_drw2d_IntRect_t int_rect){
                        3596 	.align	2
                        3597 	.align	2
                        3598 	.align	2
                        3599 ..gh.f.a.2.e.30:
                        3600 	.type	..gh.f.a.2.e.30,@object

                                                                      Page 67
                                                              C:\Users\MANGESH\AppData\Local\Temp\gh_00004k01.si
                        3601 	.size	..gh.f.a.2.e.30,0
                        3602 	.global	_GetDrawRect
                        3603 _GetDrawRect:
00000e64 031ee0ff       3604 	addi	-32,sp,sp
00000e68 06f0           3605 	mov	r6,ep
00000e6a 634f1d00       3606 	st.w	r9,28[sp]
00000e6e 63471900       3607 	st.w	r8,24[sp]
00000e72 633f1500       3608 	st.w	r7,20[sp]
                        3609 --	    .bf
                        3610 .LDW001:
                        3611 --763:     r_drw2d_Rect_t tmp;
                        3612 --764:     tmp.Pos.X       = R_DRW2D_2X(int_rect.Pos.X);
00000e76 230f1500       3613 	ld.w	20[sp],r1
00000e7a d00a           3614 	shl	16,r1
00000e7c 630f0100       3615 	st.w	r1,0[sp]
                        3616 --765:     tmp.Pos.Y       = R_DRW2D_2X(int_rect.Pos.Y);
00000e80 230f1900       3617 	ld.w	24[sp],r1
00000e84 d00a           3618 	shl	16,r1
00000e86 630f0500       3619 	st.w	r1,4[sp]
                        3620 --766:     tmp.Size.Width  = R_DRW2D_2X(int_rect.Size.Width);
00000e8a 230f1d00       3621 	ld.w	28[sp],r1
00000e8e d00a           3622 	shl	16,r1
00000e90 630f0900       3623 	st.w	r1,8[sp]
                        3624 --767:     tmp.Size.Height = R_DRW2D_2X(int_rect.Size.Height);
00000e94 230f2100       3625 	ld.w	32[sp],r1
00000e98 d00a           3626 	shl	16,r1
00000e9a 630f0d00       3627 	st.w	r1,12[sp]
                        3628 --768:     return tmp;
00000e9e a30709600000   3629 	ld.dw	0[sp],r12
00000ea4 a30789500000   3630 	ld.dw	8[sp],r10
00000eaa be070f600000   3631 	st.dw	r12,0[ep]
00000eb0 be078f500000   3632 	st.dw	r10,8[ep]
                        3633 --	    .ef
                        3634 .LDW101:
                        3635 --line769
                        3636 ..lin.7bbb3f5b..d3ff3ba0.0_250::
                        3637 .LDWlin250:
00000eb6 031e2000       3638 	addi	32,sp,sp
                        3639 	.jumptype return
00000eba 7f00           3640 	jmp	[lp]
                        3641 ..lin.7bbb3f5b..d3ff3ba0.0_251::
                        3642 .LDWlin251:
                        3643 	.type	_GetDrawRect,@function
                        3644 	.size	_GetDrawRect,.-_GetDrawRect
                        3645 	.align	2
                        3646 .LDW201:
                        3647 --_tmp	0[sp]	local
                        3648 
                        3649 --LRETURN..	ep	param
                        3650 --_int_rect	20[sp]	param
                        3651 
                        3652 	.section ".bss","awb"
                        3653 .L2734:
                        3654 	.type	.L2734,@object
                        3655 	.size	.L2734,0
                        3656 	.data
                        3657 	.text
                        3658 
                        3659 --769: }
                        3660 
                        3661 --773: unsigned int my_x = 280;

                                                                      Page 68
                                                              C:\Users\MANGESH\AppData\Local\Temp\gh_00004k01.si
                        3662 --774: unsigned int my_y = 0;
                        3663 --775: unsigned int my_z = 0;
                        3664 --776: unsigned int my_x_fuel = 320;
                        3665 --778: extern r_drw2d_Texture_t background_texture;
                        3666 --779: extern unsigned char my_menu_cmd;
                        3667 --780: void Refresh_MainScene(void) 
                        3668 	.assert 0x0 + (_frame_count - _movie_count) +0 == 4
                        3669 	.assert 0x0 + (_movie_count - _movie_count) +0 == 0
                        3670 	.assert 0x0 + (.L3102 - _movie_count) +0 == 121
                        3671 	.assert 0x0 + (.L3101 - _movie_count) +0 == 120
                        3672 	.align	2
                        3673 	.align	2
                        3674 	.align	2
                        3675 ..gh.f.a.2.e.31:
                        3676 	.type	..gh.f.a.2.e.31,@object
                        3677 	.size	..gh.f.a.2.e.31,0
                        3678 	.global	_Refresh_MainScene
                        3679 _Refresh_MainScene:
00000ebc 8407e170       3680 	prepare	{r25,r26,r27,r28,r29,r31},2
00000ec0 3d0600000000*  3681 	mov	_movie_count,r29
00000ec6 3c0600000000*  3682 	mov	_Time_Sprite,r28
00000ecc 3b0600000000*  3683 	mov	_Odo_Sprite,r27
00000ed2 3a0600000000*  3684 	mov	_move_done,r26
00000ed8 390600000000*  3685 	mov	_my_move,r25
                        3686 --	    .bf
                        3687 .LDW301:
                        3688 --781: {
                        3689 --782: 	
                        3690 --783: 	static unsigned char my_text = 0;
                        3691 --784: 	static unsigned long my_odo_text = 0;
                        3692 --785:     static unsigned char change_color = 0;
                        3693 --786: /*	
                        3694 --787: 	static uint32_t swap_done=1;   
                        3695 --789: 	if(swap_done) {
                        3696 --790:         drw2d_fb.Buffer.Data = R_WM_WindowNewDrawBufGet(FLASHDASH_WM_UNIT, &g_Window);
                        3697 --791:         R_DRW2D_FramebufferSet(g_Drw2dDev, &drw2d_fb);
                        3698 --793:         swap_done = 0;
                        3699 --794:     }
                        3700 --795: */	
                        3701 --796:     bench_start(BENCH_CPU_60);
                        3702 --line796
                        3703 ..lin.7bbb3f5b..27c6e7c5.0_252::
                        3704 .LDWlin252:
00000ede 0132           3705 	mov	1,r6
                        3706 	jarl	_bench_start,lp
                        3706 <EXPANSION BEGIN>
                        3706 jarl22 _bench_start , lp 
00000ee0 80ff0000*      3706 <EXPANSION END>
                        3707 --797:     bench_start(BENCH_DRW2D_60);
                        3708 --line797
                        3709 ..lin.7bbb3f5b..27c6e7c5.0_253::
                        3710 .LDWlin253:
00000ee4 0032           3711 	mov	0,r6
                        3712 	jarl	_bench_start,lp
                        3712 <EXPANSION BEGIN>
                        3712 jarl22 _bench_start , lp 
00000ee6 80ff0000*      3712 <EXPANSION END>
                        3713 --798:     
                        3714 --799: 	CarModelGetData(&kph, &rpm);		// simulate speed & RPM
                        3715 --line799
                        3716 ..lin.7bbb3f5b..27c6e7c5.0_254::

                                                                      Page 69
                                                              C:\Users\MANGESH\AppData\Local\Temp\gh_00004k01.si
                        3717 .LDWlin254:
00000eea 260600000000*  3718 	mov	_kph,r6
00000ef0 270600000000*  3719 	mov	_rpm,r7
                        3720 	jarl	_CarModelGetData,lp
                        3720 <EXPANSION BEGIN>
                        3720 jarl22 _CarModelGetData , lp 
00000ef6 80ff0000*      3720 <EXPANSION END>
                        3721 --800: 	
                        3722 --801: 	//---------- get real speed & rpm value -------------------
                        3723 --802: 	//kph = my_speed_val;
                        3724 --803: 	//rpm = my_rpm_val;
                        3725 --804: 	
                        3726 --805:     Refresh_LeftNeedle(rpm, &my_speed_texture);//&background_texture);
                        3727 --line805
                        3728 ..lin.7bbb3f5b..27c6e7c5.0_255::
                        3729 .LDWlin255:
00000efa 260600000000*  3730 	mov	_rpm,r6
00000f00 26370100       3731 	ld.w	0[r6],r6
00000f04 270600000000*  3732 	mov	_my_speed_texture,r7
                        3733 	jarl	_Refresh_LeftNeedle,lp
                        3733 <EXPANSION BEGIN>
                        3733 jarl22 _Refresh_LeftNeedle , lp 
00000f0a bfffa8fc*      3733 <EXPANSION END>
                        3734 --806: 	
                        3735 --807: 	//--------------------------- Speed text related --------------------	
                        3736 --808: 	my_text++;
                        3737 --line808
                        3738 ..lin.7bbb3f5b..27c6e7c5.0_256::
                        3739 .LDWlin256:
00000f0e 9d0f7900       3740 	ld.bu	120[r29],r1
00000f12 410a           3741 	add	1,r1
00000f14 5d0f7800       3742 	st.b	r1,120[r29]
                        3743 --809: 	if(my_text >= 200)
00000f18 9d0f7900       3744 	ld.bu	120[r29],r1
00000f1c 010638ff       3745 	addi	-200,r1,zero
00000f20 b905*          3746 	bnl	.L2760
                        3747 --810: 		my_text = 0;
                        3748 --line810
                        3749 ..lin.7bbb3f5b..27c6e7c5.0_257::
                        3750 .LDWlin257:
00000f22 5d077800       3751 	st.b	zero,120[r29]
                        3752 .L2760:
                        3753 --811: 	
                        3754 --812: 	my_text = (unsigned char) kph;
00000f26 210600000000*  3755 	mov	_kph,r1
00000f2c 210f0100       3756 	ld.w	0[r1],r1
00000f30 f10f400c       3757 	trncf.suw	r1,r1
00000f34 8100           3758 	zxb	r1
00000f36 5d0f7800       3759 	st.b	r1,120[r29]
                        3760 --813: 	
                        3761 --814: 	if(my_text > 50)
                        3762 --line814
                        3763 ..lin.7bbb3f5b..27c6e7c5.0_258::
                        3764 .LDWlin258:
00000f3a 9d0f7900       3765 	ld.bu	120[r29],r1
00000f3e 0106cdff       3766 	addi	-51,r1,zero
00000f42 d905*          3767 	bnl	.L2762
                        3768 --815: 	{
                        3769 --816: 		change_color = 1;
                        3770 --line816
                        3771 ..lin.7bbb3f5b..27c6e7c5.0_259::

                                                                      Page 70
                                                              C:\Users\MANGESH\AppData\Local\Temp\gh_00004k01.si
                        3772 .LDWlin259:
00000f44 010a           3773 	mov	1,r1
00000f46 5d0f7900       3774 	st.b	r1,121[r29]
00000f4a b505*          3775 	br	.L2764
                        3776 .L2762:
                        3777 --817: 	}
                        3778 --818: 	else
                        3779 --819: 	{
                        3780 --820: 		change_color = 0;
                        3781 --line820
                        3782 ..lin.7bbb3f5b..27c6e7c5.0_260::
                        3783 .LDWlin260:
00000f4c 5d077900       3784 	st.b	zero,121[r29]
                        3785 .L2764:
                        3786 --821: 	}
                        3787 --822: 	sprintf((char*)myspeedString,"%d",my_text);
00000f50 9d477900       3788 	ld.bu	120[r29],r8
00000f54 260600000000*  3789 	mov	_myspeedString,r6
00000f5a 270600000000*  3790 	mov	.L3103,r7
                        3791 	jarl	_sprintf,lp
                        3791 <EXPANSION BEGIN>
                        3791 jarl22 _sprintf , lp 
00000f60 80ff0000*      3791 <EXPANSION END>
                        3792 --823: 	Refresh_Speed_Text(&Speed_Sprite, change_color);
                        3793 --line823
                        3794 ..lin.7bbb3f5b..27c6e7c5.0_261::
                        3795 .LDWlin261:
00000f64 bd3f7900       3796 	ld.bu	121[r29],r7
00000f68 260600000000*  3797 	mov	_Speed_Sprite,r6
                        3798 	jarl	_Refresh_Speed_Text,lp
                        3798 <EXPANSION BEGIN>
                        3798 jarl22 _Refresh_Speed_Text , lp 
00000f6e bfff14f8*      3798 <EXPANSION END>
                        3799 --824: 	//--------------------------- Odo & Trip text related --------------------
                        3800 --825: 	
                        3801 --826: 	Refresh_Odo_Text(&Odo_Sprite, &background_texture);
                        3802 --line826
                        3803 ..lin.7bbb3f5b..27c6e7c5.0_262::
                        3804 .LDWlin262:
00000f72 1b30           3805 	mov	r27,r6
00000f74 270600000000*  3806 	mov	_background_texture,r7
                        3807 	jarl	_Refresh_Odo_Text,lp
                        3807 <EXPANSION BEGIN>
                        3807 jarl22 _Refresh_Odo_Text , lp 
00000f7a bfffc2f8*      3807 <EXPANSION END>
                        3808 --827: 	
                        3809 --828: 	//--------------------------- Time text related --------------------
                        3810 --829: 	Refresh_Temp_Text(&Temp_Sprite);
                        3811 --line829
                        3812 ..lin.7bbb3f5b..27c6e7c5.0_263::
                        3813 .LDWlin263:
00000f7e 260600000000*  3814 	mov	_Temp_Sprite,r6
                        3815 	jarl	_Refresh_Temp_Text,lp
                        3815 <EXPANSION BEGIN>
                        3815 jarl22 _Refresh_Temp_Text , lp 
00000f84 bfffd0fa*      3815 <EXPANSION END>
                        3816 --830: 	
                        3817 --831: 	//--------------------------- Temperature text related --------------------
                        3818 --832: 	Refresh_Time_Text(&Time_Sprite);
                        3819 --line832
                        3820 ..lin.7bbb3f5b..27c6e7c5.0_264::

                                                                      Page 71
                                                              C:\Users\MANGESH\AppData\Local\Temp\gh_00004k01.si
                        3821 .LDWlin264:
00000f88 1c30           3822 	mov	r28,r6
                        3823 	jarl	_Refresh_Time_Text,lp
                        3823 <EXPANSION BEGIN>
                        3823 jarl22 _Refresh_Time_Text , lp 
00000f8a bfff7af9*      3823 <EXPANSION END>
                        3824 --833: 	
                        3825 --834: 	//--------------------------- Mode text related --------------------
                        3826 --835: 	//Refresh_Mode_Text(&Mode_Sprite);
                        3827 --836: 	
                        3828 --837: 	//Refresh_LeftNeedle((my_rpm_val >> 1), &my_speed_texture);
                        3829 --838: 	//Refresh_RightNeedle(rpm, &my_tacho_texture);
                        3830 --839:     //Refresh_LeftGear(kph);
                        3831 --840:     //Refresh_DotMatrixDisplay();
                        3832 --841:     //Refresh_Ecometer(kph, rpm);
                        3833 --842:     bench_stop(BENCH_CPU_60);
                        3834 --line842
                        3835 ..lin.7bbb3f5b..27c6e7c5.0_265::
                        3836 .LDWlin265:
00000f8e 0132           3837 	mov	1,r6
                        3838 	jarl	_bench_stop,lp
                        3838 <EXPANSION BEGIN>
                        3838 jarl22 _bench_stop , lp 
00000f90 80ff0000*      3838 <EXPANSION END>
                        3839 --844:     R_DRW2D_GpuFinish(g_Drw2dDev, R_DRW2D_FINISH_WAIT);
                        3840 --line844
                        3841 ..lin.7bbb3f5b..27c6e7c5.0_266::
                        3842 .LDWlin266:
00000f94 260600000000*  3843 	mov	_g_Drw2dDev,r6
00000f9a 26370100       3844 	ld.w	0[r6],r6
00000f9e 013a           3845 	mov	1,r7
                        3846 	jarl	_R_DRW2D_GpuFinish,lp
                        3846 <EXPANSION BEGIN>
                        3846 jarl22 _R_DRW2D_GpuFinish , lp 
00000fa0 80ff0000*      3846 <EXPANSION END>
                        3847 --845:     bench_stop(BENCH_DRW2D_60);
                        3848 --line845
                        3849 ..lin.7bbb3f5b..27c6e7c5.0_267::
                        3850 .LDWlin267:
00000fa4 0032           3851 	mov	0,r6
                        3852 	jarl	_bench_stop,lp
                        3852 <EXPANSION BEGIN>
                        3852 jarl22 _bench_stop , lp 
00000fa6 80ff0000*      3852 <EXPANSION END>
                        3853 --847:     MbSpriteSwap(&LeftNeedle);
                        3854 --line847
                        3855 ..lin.7bbb3f5b..27c6e7c5.0_268::
                        3856 .LDWlin268:
00000faa 260600000000*  3857 	mov	_LeftNeedle,r6
                        3858 	jarl	_MbSpriteSwap,lp
                        3858 <EXPANSION BEGIN>
                        3858 jarl22 _MbSpriteSwap , lp 
00000fb0 80ff0000*      3858 <EXPANSION END>
                        3859 --848: 	MbSpriteSwap(&Speed_Sprite);
                        3860 --line848
                        3861 ..lin.7bbb3f5b..27c6e7c5.0_269::
                        3862 .LDWlin269:
00000fb4 260600000000*  3863 	mov	_Speed_Sprite,r6
                        3864 	jarl	_MbSpriteSwap,lp
                        3864 <EXPANSION BEGIN>
                        3864 jarl22 _MbSpriteSwap , lp 

                                                                      Page 72
                                                              C:\Users\MANGESH\AppData\Local\Temp\gh_00004k01.si
00000fba 80ff0000*      3864 <EXPANSION END>
                        3865 --849: 	MbSpriteSwap(&Odo_Sprite);
                        3866 --line849
                        3867 ..lin.7bbb3f5b..27c6e7c5.0_270::
                        3868 .LDWlin270:
00000fbe 1b30           3869 	mov	r27,r6
                        3870 	jarl	_MbSpriteSwap,lp
                        3870 <EXPANSION BEGIN>
                        3870 jarl22 _MbSpriteSwap , lp 
00000fc0 80ff0000*      3870 <EXPANSION END>
                        3871 --850: 	MbSpriteSwap(&Temp_Sprite);
                        3872 --line850
                        3873 ..lin.7bbb3f5b..27c6e7c5.0_271::
                        3874 .LDWlin271:
00000fc4 260600000000*  3875 	mov	_Temp_Sprite,r6
                        3876 	jarl	_MbSpriteSwap,lp
                        3876 <EXPANSION BEGIN>
                        3876 jarl22 _MbSpriteSwap , lp 
00000fca 80ff0000*      3876 <EXPANSION END>
                        3877 --851: 	MbSpriteSwap(&Time_Sprite);
                        3878 --line851
                        3879 ..lin.7bbb3f5b..27c6e7c5.0_272::
                        3880 .LDWlin272:
00000fce 1c30           3881 	mov	r28,r6
                        3882 	jarl	_MbSpriteSwap,lp
                        3882 <EXPANSION BEGIN>
                        3882 jarl22 _MbSpriteSwap , lp 
00000fd0 80ff0000*      3882 <EXPANSION END>
                        3883 --852: 	
                        3884 --853: 	//MbSpriteSwap(&Mode_Sprite);
                        3885 --854:     //MbSpriteSwap(&LeftGear);
                        3886 --855:     //MbSpriteSwap(&Ecometer);
                        3887 --856:     if(even_frame()) {
                        3888 --line856
                        3889 ..lin.7bbb3f5b..27c6e7c5.0_273::
                        3890 .LDWlin273:
                        3891 	jarl	_even_frame,lp
                        3891 <EXPANSION BEGIN>
                        3891 jarl22 _even_frame , lp 
00000fd4 bfff3efe*      3891 <EXPANSION END>
00000fd8 e051           3892 	cmp	zero,r10
00000fda b215*          3893 	be	.L2769
                        3894 --857:         movie_count++; /* needed for blink sequence of turn indicators */
                        3895 --line857
                        3896 ..lin.7bbb3f5b..27c6e7c5.0_274::
                        3897 .LDWlin274:
00000fdc 3d0f0100       3898 	ld.w	0[r29],r1
00000fe0 410a           3899 	add	1,r1
00000fe2 7d0f0100       3900 	st.w	r1,0[r29]
                        3901 --858:         if(movie_count > 1266) movie_count = 0;
00000fe6 3d0f0100       3902 	ld.w	0[r29],r1
00000fea 01060efb       3903 	addi	-1266,r1,zero
00000fee b705*          3904 	ble	.L2767
00000ff0 7d070100       3905 	st.w	zero,0[r29]
                        3906 .L2767:
                        3907 --859:         bench_start(BENCH_CPU_30);
                        3908 --line859
                        3909 ..lin.7bbb3f5b..27c6e7c5.0_275::
                        3910 .LDWlin275:
00000ff4 0332           3911 	mov	3,r6
                        3912 	jarl	_bench_start,lp

                                                                      Page 73
                                                              C:\Users\MANGESH\AppData\Local\Temp\gh_00004k01.si
                        3912 <EXPANSION BEGIN>
                        3912 jarl22 _bench_start , lp 
00000ff6 80ff0000*      3912 <EXPANSION END>
                        3913 --860: #if DO_BENCH
                        3914 --861:         bench_start(BENCH_DRW2D_30);
                        3915 --862: #endif
                        3916 --863:         //Refresh_Indicators();
                        3917 --864:         //Refresh_Odometer(kph);
                        3918 --865:         bench_stop(BENCH_CPU_30);
                        3919 --line865
                        3920 ..lin.7bbb3f5b..27c6e7c5.0_276::
                        3921 .LDWlin276:
00000ffa 0332           3922 	mov	3,r6
                        3923 	jarl	_bench_stop,lp
                        3923 <EXPANSION BEGIN>
                        3923 jarl22 _bench_stop , lp 
00000ffc 80ff0000*      3923 <EXPANSION END>
                        3924 .L2769:
                        3925 --866: #if DO_BENCH
                        3926 --867:         R_DRW2D_GpuFinish(g_Drw2dDev, R_DRW2D_FINISH_WAIT);
                        3927 --868:         bench_stop(BENCH_DRW2D_30);
                        3928 --869: #endif
                        3929 --870:     } else {
                        3930 --871:         //MbSpriteSwap(&Odometer);
                        3931 --872:     }    
                        3932 --874: 	
                        3933 --875: 	if(my_menu_cmd == 1)
                        3934 --line875
                        3935 ..lin.7bbb3f5b..27c6e7c5.0_277::
                        3936 .LDWlin277:
00001000 210600000000*  3937 	mov	_my_menu_cmd,r1
00001006 810f0100       3938 	ld.bu	0[r1],r1
0000100a 610a           3939 	cmp	1,r1
0000100c fa05*          3940 	bne	.L2770
                        3941 --876: 	{
                        3942 --877: 		my_move = 1;
                        3943 --line877
                        3944 ..lin.7bbb3f5b..27c6e7c5.0_278::
                        3945 .LDWlin278:
0000100e 010a           3946 	mov	1,r1
00001010 590f0000       3947 	st.b	r1,0[r25]
                        3948 --878: 		move_done = 0;
00001014 5a070000       3949 	st.b	zero,0[r26]
00001018 d50d*          3950 	br	.L2772
                        3951 .L2770:
                        3952 --879: 	}
                        3953 --880: 	else if(my_menu_cmd == 2)
                        3954 --line880
                        3955 ..lin.7bbb3f5b..27c6e7c5.0_279::
                        3956 .LDWlin279:
0000101a 210600000000*  3957 	mov	_my_menu_cmd,r1
00001020 810f0100       3958 	ld.bu	0[r1],r1
00001024 620a           3959 	cmp	2,r1
00001026 ea05*          3960 	bne	.L2772
                        3961 --881: 	{
                        3962 --882: 		my_move = 0;
                        3963 --line882
                        3964 ..lin.7bbb3f5b..27c6e7c5.0_280::
                        3965 .LDWlin280:
00001028 59070000       3966 	st.b	zero,0[r25]
                        3967 --883: 		move_done = 1;

                                                                      Page 74
                                                              C:\Users\MANGESH\AppData\Local\Temp\gh_00004k01.si
0000102c 010a           3968 	mov	1,r1
0000102e 5a0f0000       3969 	st.b	r1,0[r26]
                        3970 .L2772:
                        3971 --884: 	}
                        3972 --886: 	
                        3973 --888: 	if(my_move)
00001032 990f0100       3974 	ld.bu	0[r25],r1
00001036 e009           3975 	cmp	zero,r1
00001038 b215*          3976 	be	.L2775
                        3977 --889: 	{
                        3978 --890: 	
                        3979 --891: 			my_move = 0;
                        3980 --line891
                        3981 ..lin.7bbb3f5b..27c6e7c5.0_281::
                        3982 .LDWlin281:
0000103a 59070000       3983 	st.b	zero,0[r25]
                        3984 --892: 			R_WM_SpriteDisable(FLASHDASH_WM_UNIT, &Odo_Sprite.Sprite);
0000103e 1b3e2c00       3985 	addi	44,r27,r7
00001042 0032           3986 	mov	0,r6
                        3987 	jarl	_R_WM_SpriteDisable,lp
                        3987 <EXPANSION BEGIN>
                        3987 jarl22 _R_WM_SpriteDisable , lp 
00001044 80ff0000*      3987 <EXPANSION END>
                        3988 --893: 			R_WM_SpriteDisable(FLASHDASH_WM_UNIT, &Time_Sprite.Sprite);
                        3989 --line893
                        3990 ..lin.7bbb3f5b..27c6e7c5.0_282::
                        3991 .LDWlin282:
00001048 1c3e2c00       3992 	addi	44,r28,r7
0000104c 0032           3993 	mov	0,r6
                        3994 	jarl	_R_WM_SpriteDisable,lp
                        3994 <EXPANSION BEGIN>
                        3994 jarl22 _R_WM_SpriteDisable , lp 
0000104e 80ff0000*      3994 <EXPANSION END>
                        3995 --894: 			R_WM_SpriteEnable(FLASHDASH_WM_UNIT, &MenuSprite);
                        3996 --line894
                        3997 ..lin.7bbb3f5b..27c6e7c5.0_283::
                        3998 .LDWlin283:
00001052 0032           3999 	mov	0,r6
00001054 270600000000*  4000 	mov	_MenuSprite,r7
                        4001 	jarl	_R_WM_SpriteEnable,lp
                        4001 <EXPANSION BEGIN>
                        4001 jarl22 _R_WM_SpriteEnable , lp 
0000105a 80ff0000*      4001 <EXPANSION END>
                        4002 .L2775:
                        4003 --895: 			
                        4004 --897: 	}
                        4005 --898: 	if(move_done)
                        4006 --line898
                        4007 ..lin.7bbb3f5b..27c6e7c5.0_284::
                        4008 .LDWlin284:
0000105e 9a0f0100       4009 	ld.bu	0[r26],r1
00001062 e009           4010 	cmp	zero,r1
00001064 b215*          4011 	be	.L2777
                        4012 --899: 	{
                        4013 --900: 			move_done = 0;
                        4014 --line900
                        4015 ..lin.7bbb3f5b..27c6e7c5.0_285::
                        4016 .LDWlin285:
00001066 5a070000       4017 	st.b	zero,0[r26]
                        4018 --901: 			R_WM_SpriteDisable(FLASHDASH_WM_UNIT, &MenuSprite);
0000106a 0032           4019 	mov	0,r6

                                                                      Page 75
                                                              C:\Users\MANGESH\AppData\Local\Temp\gh_00004k01.si
0000106c 270600000000*  4020 	mov	_MenuSprite,r7
                        4021 	jarl	_R_WM_SpriteDisable,lp
                        4021 <EXPANSION BEGIN>
                        4021 jarl22 _R_WM_SpriteDisable , lp 
00001072 80ff0000*      4021 <EXPANSION END>
                        4022 --902: 			R_WM_SpriteEnable(FLASHDASH_WM_UNIT, &Odo_Sprite.Sprite);
                        4023 --line902
                        4024 ..lin.7bbb3f5b..27c6e7c5.0_286::
                        4025 .LDWlin286:
00001076 1b3e2c00       4026 	addi	44,r27,r7
0000107a 0032           4027 	mov	0,r6
                        4028 	jarl	_R_WM_SpriteEnable,lp
                        4028 <EXPANSION BEGIN>
                        4028 jarl22 _R_WM_SpriteEnable , lp 
0000107c 80ff0000*      4028 <EXPANSION END>
                        4029 --903: 			R_WM_SpriteEnable(FLASHDASH_WM_UNIT, &Time_Sprite.Sprite);
                        4030 --line903
                        4031 ..lin.7bbb3f5b..27c6e7c5.0_287::
                        4032 .LDWlin287:
00001080 1c3e2c00       4033 	addi	44,r28,r7
00001084 0032           4034 	mov	0,r6
                        4035 	jarl	_R_WM_SpriteEnable,lp
                        4035 <EXPANSION BEGIN>
                        4035 jarl22 _R_WM_SpriteEnable , lp 
00001086 80ff0000*      4035 <EXPANSION END>
                        4036 .L2777:
                        4037 --904: 			
                        4038 --905: 		
                        4039 --906: 	
                        4040 --907: 	}
                        4041 --909: 	 //FlashDash_DrawPerfomance(&drw2d_fb);
                        4042 --910: 	 
                        4043 --911: 	//my_write_text(0);
                        4044 --912: 	//R_DRW2D_GpuFinish(g_Drw2dDev, R_DRW2D_FINISH_WAIT);
                        4045 --913: 	//R_WM_WindowSwap(FLASHDASH_WM_UNIT, &speed_Window);
                        4046 --915: 	//my_write_text(1);
                        4047 --916: 	//R_DRW2D_GpuFinish(g_Drw2dDev, R_DRW2D_FINISH_WAIT);
                        4048 --917: 	//R_WM_WindowSwap(FLASHDASH_WM_UNIT, &odo_Window);
                        4049 --918: 	
                        4050 --919: 	
                        4051 --920:     R_WM_FrameEndMark(FLASHDASH_WM_UNIT, 0);
                        4052 --line920
                        4053 ..lin.7bbb3f5b..27c6e7c5.0_288::
                        4054 .LDWlin288:
0000108a 0032           4055 	mov	0,r6
0000108c 003a           4056 	mov	0,r7
                        4057 	jarl	_R_WM_FrameEndMark,lp
                        4057 <EXPANSION BEGIN>
                        4057 jarl22 _R_WM_FrameEndMark , lp 
0000108e 80ff0000*      4057 <EXPANSION END>
                        4058 --921:     R_WM_FrameWait(FLASHDASH_WM_UNIT, 0);
                        4059 --line921
                        4060 ..lin.7bbb3f5b..27c6e7c5.0_289::
                        4061 .LDWlin289:
00001092 0032           4062 	mov	0,r6
00001094 003a           4063 	mov	0,r7
                        4064 	jarl	_R_WM_FrameWait,lp
                        4064 <EXPANSION BEGIN>
                        4064 jarl22 _R_WM_FrameWait , lp 
00001096 80ff0000*      4064 <EXPANSION END>
                        4065 --922:     frame_count++;

                                                                      Page 76
                                                              C:\Users\MANGESH\AppData\Local\Temp\gh_00004k01.si
                        4066 --line922
                        4067 ..lin.7bbb3f5b..27c6e7c5.0_290::
                        4068 .LDWlin290:
0000109a 3df60400       4069 	movea	4,r29,ep
0000109e 000d           4070 	sld.w	0[ep],r1
000010a0 410a           4071 	add	1,r1
000010a2 010d           4072 	sst.w	r1,0[ep]
                        4073 --923: }
                        4074 --	    .ef
                        4075 .LDW401:
000010a4 4406ff70       4076 	dispose	2,{r25,r26,r27,r28,r29,r31},[lp]
                        4077 ..lin.7bbb3f5b..27c6e7c5.0_291::
                        4078 .LDWlin291:
                        4079 	.type	_Refresh_MainScene,@function
                        4080 	.size	_Refresh_MainScene,.-_Refresh_MainScene
                        4081 	.align	2
                        4082 .LDW501:
                        4083 --_my_text	.L3101	static
                        4084 --_change_color	.L3102	static
                        4085 --.L2994	.L3103	static
                        4086 
                        4087 	.data
                        4088 .L3101:
                        4089 	.global	_my_text.Refresh_MainScene.G.3A.5Cvlib_v1.2E8_svn.5Capp.5Cgfx_apps.5Cd1m1_flashdash_demo.5Ctarget.5Cd1m2_mango_ghs.5Cobj.5Cmain_scene..17
                        4090 _my_text.Refresh_MainScene.G.3A.5Cvlib_v1.2E8_svn.5Capp.5Cgfx_apps.5Cd1m1_flashdash_demo.5Ctarget.5Cd1m2_mango_ghs.5Cobj.5Cmain_scene..17:
00000078 00             4091 	.byte	0
                        4092 	.type	_my_text.Refresh_MainScene.G.3A.5Cvlib_v1.2E8_svn.5Capp.5Cgfx_apps.5Cd1m1_flashdash_demo.5Ctarget.5Cd1m2_mango_ghs.5Cobj.5Cmain_scene..17,@object
                        4093 	.size	_my_text.Refresh_MainScene.G.3A.5Cvlib_v1.2E8_svn.5Capp.5Cgfx_apps.5Cd1m1_flashdash_demo.5Ctarget.5Cd1m2_mango_ghs.5Cobj.5Cmain_scene..17,1
                        4094 	.type	.L3101,@object
                        4095 	.size	.L3101,1
                        4096 .L3102:
                        4097 	.global	_change_color.Refresh_MainScene.G.3A.5Cvlib_v1.2E8_svn.5Capp.5Cgfx_apps.5Cd1m1_flashdash_demo.5Ctarget.5Cd1m2_mango_ghs.5Cobj.5Cmain_scene..18
                        4098 _change_color.Refresh_MainScene.G.3A.5Cvlib_v1.2E8_svn.5Capp.5Cgfx_apps.5Cd1m1_flashdash_demo.5Ctarget.5Cd1m2_mango_ghs.5Cobj.5Cmain_scene..18:
00000079 00             4099 	.byte	0
                        4100 	.type	_change_color.Refresh_MainScene.G.3A.5Cvlib_v1.2E8_svn.5Capp.5Cgfx_apps.5Cd1m1_flashdash_demo.5Ctarget.5Cd1m2_mango_ghs.5Cobj.5Cmain_scene..18,@object
                        4101 	.size	_change_color.Refresh_MainScene.G.3A.5Cvlib_v1.2E8_svn.5Capp.5Cgfx_apps.5Cd1m1_flashdash_demo.5Ctarget.5Cd1m2_mango_ghs.5Cobj.5Cmain_scene..18,1
                        4102 	.type	.L3102,@object
                        4103 	.size	.L3102,1
                        4104 	.section ".rodata","a"
                        4105 .L3103:--	"%d"
00000006 2564           4106 	.byte	37,100
00000008 00             4107 	.byte	0
                        4108 	.type	.L3103,@object
                        4109 	.size	.L3103,3
                        4110 	.data
                        4111 	.text
                        4112 
                        4113 
                        4114 --926: void Init_Background(void)
                        4115 	.align	2
                        4116 	.align	2
                        4117 	.align	2
                        4118 ..gh.f.a.2.e.32:
                        4119 	.type	..gh.f.a.2.e.32,@object
                        4120 	.size	..gh.f.a.2.e.32,0
                        4121 	.global	_Init_Background
                        4122 _Init_Background:
000010a8 8807e110       4123 	prepare	{r27,r28,r29,r31},4
000010ac 3d0600000000*  4124 	mov	_g_Drw2dDev,r29
000010b2 3c0600000000*  4125 	mov	_drw2d_fb,r28
000010b8 3b0600000000*  4126 	mov	_g_Window,r27

                                                                      Page 77
                                                              C:\Users\MANGESH\AppData\Local\Temp\gh_00004k01.si
                        4127 --	    .bf
                        4128 .LDW601:
                        4129 --927: {   
                        4130 --928:     /* LeftGear, RightGear, CenterMovie; */
                        4131 --929:     r_drw2d_Rect_t rect = { { 0, 0 }, { R_DRW2D_2X(800), R_DRW2D_2X(480) } };    
                        4132 --line929
                        4133 ..lin.7bbb3f5b..34a229d7.0_292::
                        4134 .LDWlin292:
000010be 210600000000*  4135 	mov	.L3306,r1
000010c4 a10709600000   4136 	ld.dw	0[r1],r12
000010ca a10789500000   4137 	ld.dw	8[r1],r10
000010d0 a3070f600000   4138 	st.dw	r12,0[sp]
000010d6 a3078f500000   4139 	st.dw	r10,8[sp]
                        4140 --931: 	R_DRW2D_CtxImgQuality(g_Drw2dDev, R_DRW2D_IMGQUALITY_HIGH);
                        4141 --line931
                        4142 ..lin.7bbb3f5b..34a229d7.0_293::
                        4143 .LDWlin293:
000010dc 3d370100       4144 	ld.w	0[r29],r6
000010e0 023a           4145 	mov	2,r7
                        4146 	jarl	_R_DRW2D_CtxImgQuality,lp
                        4146 <EXPANSION BEGIN>
                        4146 jarl22 _R_DRW2D_CtxImgQuality , lp 
000010e2 80ff0000*      4146 <EXPANSION END>
                        4147 --933:     drw2d_fb.Flags = (r_drw2d_FramebufferFlags_t)0;
                        4148 --line933
                        4149 ..lin.7bbb3f5b..34a229d7.0_294::
                        4150 .LDWlin294:
000010e6 7c071900       4151 	st.w	zero,24[r28]
                        4152 --934:     drw2d_fb.Handle = 0; /* not used currently */
000010ea 7c070100       4153 	st.w	zero,0[r28]
                        4154 --935:     drw2d_fb.Buffer.Pitch = g_Window.Pitch;
000010ee 3b0f1900       4155 	ld.w	24[r27],r1
000010f2 7c0f0900       4156 	st.w	r1,8[r28]
                        4157 --936:     drw2d_fb.Buffer.PixelFormat = R_DRW2D_PIXELFORMAT_ARGB8888;
000010f6 0f0a           4158 	mov	15,r1
000010f8 7c0f1500       4159 	st.w	r1,20[r28]
                        4160 --937:     drw2d_fb.Buffer.Size.Width = g_Window.Width;
000010fc 3b0f1d00       4161 	ld.w	28[r27],r1
00001100 7c0f0d00       4162 	st.w	r1,12[r28]
                        4163 --938:     drw2d_fb.Buffer.Size.Height = g_Window.Height;
00001104 3b0f2100       4164 	ld.w	32[r27],r1
00001108 7c0f1100       4165 	st.w	r1,16[r28]
                        4166 --939:     drw2d_fb.Buffer.Data = R_WM_WindowNewDrawBufGet(FLASHDASH_WM_UNIT, &g_Window);
0000110c 1b38           4167 	mov	r27,r7
0000110e 0032           4168 	mov	0,r6
                        4169 	jarl	_R_WM_WindowNewDrawBufGet,lp
                        4169 <EXPANSION BEGIN>
                        4169 jarl22 _R_WM_WindowNewDrawBufGet , lp 
00001110 80ff0000*      4169 <EXPANSION END>
00001114 7c570500       4170 	st.w	r10,4[r28]
                        4171 --940:     R_DRW2D_FramebufferSet(g_Drw2dDev, &drw2d_fb);
                        4172 --line940
                        4173 ..lin.7bbb3f5b..34a229d7.0_295::
                        4174 .LDWlin295:
00001118 3d370100       4175 	ld.w	0[r29],r6
0000111c 1c38           4176 	mov	r28,r7
                        4177 	jarl	_R_DRW2D_FramebufferSet,lp
                        4177 <EXPANSION BEGIN>
                        4177 jarl22 _R_DRW2D_FramebufferSet , lp 
0000111e 80ff0000*      4177 <EXPANSION END>
                        4178 --941: #ifdef R_USE_FASTSOFTDAVE

                                                                      Page 78
                                                              C:\Users\MANGESH\AppData\Local\Temp\gh_00004k01.si
                        4179 --942:     R_UTIL_DHD_FSDRegBuf(drw2d_fb.Buffer.Data, drw2d_fb.Buffer.Pitch * drw2d_fb.Buffer.Size.Height * 4);
                        4180 --943: #endif
                        4181 --944:     /* draw the bkg */
                        4182 --945:     R_DRW2D_CtxFillMode(g_Drw2dDev, R_DRW2D_FILLMODE_TEXTURE);
                        4183 --line945
                        4184 ..lin.7bbb3f5b..34a229d7.0_296::
                        4185 .LDWlin296:
00001122 3d370100       4186 	ld.w	0[r29],r6
00001126 023a           4187 	mov	2,r7
                        4188 	jarl	_R_DRW2D_CtxFillMode,lp
                        4188 <EXPANSION BEGIN>
                        4188 jarl22 _R_DRW2D_CtxFillMode , lp 
00001128 80ff0000*      4188 <EXPANSION END>
                        4189 --946:     R_DRW2D_CtxTextureTransformMode(g_Drw2dDev, R_DRW2D_TEX_TRANSFORM_NONE);
                        4190 --line946
                        4191 ..lin.7bbb3f5b..34a229d7.0_297::
                        4192 .LDWlin297:
0000112c 3d370100       4193 	ld.w	0[r29],r6
00001130 003a           4194 	mov	0,r7
                        4195 	jarl	_R_DRW2D_CtxTextureTransformMode,lp
                        4195 <EXPANSION BEGIN>
                        4195 jarl22 _R_DRW2D_CtxTextureTransformMode , lp 
00001132 80ff0000*      4195 <EXPANSION END>
                        4196 --947:     R_DRW2D_CtxTextureSet(g_Drw2dDev, 0u, &background_texture);
                        4197 --line947
                        4198 ..lin.7bbb3f5b..34a229d7.0_298::
                        4199 .LDWlin298:
00001136 3d370100       4200 	ld.w	0[r29],r6
0000113a 003a           4201 	mov	0,r7
0000113c 280600000000*  4202 	mov	_background_texture,r8
                        4203 	jarl	_R_DRW2D_CtxTextureSet,lp
                        4203 <EXPANSION BEGIN>
                        4203 jarl22 _R_DRW2D_CtxTextureSet , lp 
00001142 80ff0000*      4203 <EXPANSION END>
                        4204 --948:     R_DRW2D_CtxBlendMode(g_Drw2dDev, R_DRW2D_BLENDMODE_SRC);
                        4205 --line948
                        4206 ..lin.7bbb3f5b..34a229d7.0_299::
                        4207 .LDWlin299:
00001146 3d370100       4208 	ld.w	0[r29],r6
0000114a 013a           4209 	mov	1,r7
                        4210 	jarl	_R_DRW2D_CtxBlendMode,lp
                        4210 <EXPANSION BEGIN>
                        4210 jarl22 _R_DRW2D_CtxBlendMode , lp 
0000114c 80ff0000*      4210 <EXPANSION END>
                        4211 --949:     R_DRW2D_DrawRect(g_Drw2dDev, &rect);    
                        4212 --line949
                        4213 ..lin.7bbb3f5b..34a229d7.0_300::
                        4214 .LDWlin300:
00001150 3d370100       4215 	ld.w	0[r29],r6
00001154 233e0000       4216 	movea	0,sp,r7
                        4217 	jarl	_R_DRW2D_DrawRect,lp
                        4217 <EXPANSION BEGIN>
                        4217 jarl22 _R_DRW2D_DrawRect , lp 
00001158 80ff0000*      4217 <EXPANSION END>
                        4218 --950: 	
                        4219 --951: 	R_DRW2D_GpuFinish(g_Drw2dDev, R_DRW2D_FINISH_WAIT);
                        4220 --line951
                        4221 ..lin.7bbb3f5b..34a229d7.0_301::
                        4222 .LDWlin301:
0000115c 3d370100       4223 	ld.w	0[r29],r6
00001160 013a           4224 	mov	1,r7

                                                                      Page 79
                                                              C:\Users\MANGESH\AppData\Local\Temp\gh_00004k01.si
                        4225 	jarl	_R_DRW2D_GpuFinish,lp
                        4225 <EXPANSION BEGIN>
                        4225 jarl22 _R_DRW2D_GpuFinish , lp 
00001162 80ff0000*      4225 <EXPANSION END>
                        4226 --952: 	
                        4227 --953: 	R_WM_WindowSwap(FLASHDASH_WM_UNIT, &g_Window); 
                        4228 --line953
                        4229 ..lin.7bbb3f5b..34a229d7.0_302::
                        4230 .LDWlin302:
00001166 1b38           4231 	mov	r27,r7
00001168 0032           4232 	mov	0,r6
                        4233 	jarl	_R_WM_WindowSwap,lp
                        4233 <EXPANSION BEGIN>
                        4233 jarl22 _R_WM_WindowSwap , lp 
0000116a 80ff0000*      4233 <EXPANSION END>
                        4234 --954: 	
                        4235 --955: 	R_WM_FrameEndMark(FLASHDASH_WM_UNIT, 0); 
                        4236 --line955
                        4237 ..lin.7bbb3f5b..34a229d7.0_303::
                        4238 .LDWlin303:
0000116e 0032           4239 	mov	0,r6
00001170 003a           4240 	mov	0,r7
                        4241 	jarl	_R_WM_FrameEndMark,lp
                        4241 <EXPANSION BEGIN>
                        4241 jarl22 _R_WM_FrameEndMark , lp 
00001172 80ff0000*      4241 <EXPANSION END>
                        4242 --956:     R_WM_FrameWait(FLASHDASH_WM_UNIT, 0); 
                        4243 --line956
                        4244 ..lin.7bbb3f5b..34a229d7.0_304::
                        4245 .LDWlin304:
00001176 0032           4246 	mov	0,r6
00001178 003a           4247 	mov	0,r7
                        4248 	jarl	_R_WM_FrameWait,lp
                        4248 <EXPANSION BEGIN>
                        4248 jarl22 _R_WM_FrameWait , lp 
0000117a 80ff0000*      4248 <EXPANSION END>
                        4249 --957: 	
                        4250 --958: 	
                        4251 --959: }
                        4252 --	    .ef
                        4253 .LDW701:
                        4254 --line959
                        4255 ..lin.7bbb3f5b..34a229d7.0_305::
                        4256 .LDWlin305:
0000117e 4806ff10       4257 	dispose	4,{r27,r28,r29,r31},[lp]
                        4258 ..lin.7bbb3f5b..34a229d7.0_306::
                        4259 .LDWlin306:
                        4260 	.type	_Init_Background,@function
                        4261 	.size	_Init_Background,.-_Init_Background
                        4262 	.align	2
                        4263 .LDW801:
                        4264 --_rect	0[sp]	local
                        4265 --.L3259	.L3306	static
                        4266 
                        4267 	.section ".bss","awb"
                        4268 .L3258:
                        4269 	.type	.L3258,@object
                        4270 	.size	.L3258,0
                        4271 	.section ".rodata","a"
00000009 000000         4272 	.space	3
                        4273 	.align	4

                                                                      Page 80
                                                              C:\Users\MANGESH\AppData\Local\Temp\gh_00004k01.si
0000000c 00000000       4274 .L3306:	.space	4
00000010 00000000       4275 	.space	4
00000014 00002003       4276 	.byte	0,0,32,3
00000018 0000e001       4277 	.byte	0,0,224,1
                        4278 	.type	.L3306,@object
                        4279 	.size	.L3306,16
                        4280 	.data
                        4281 	.text
                        4282 
                        4283 
                        4284 --962: void FlashDash_OpeningScene(void)
                        4285 	.align	2
                        4286 	.align	2
                        4287 	.align	2
                        4288 ..gh.f.a.2.e.33:
                        4289 	.type	..gh.f.a.2.e.33,@object
                        4290 	.size	..gh.f.a.2.e.33,0
                        4291 	.global	_FlashDash_OpeningScene
                        4292 _FlashDash_OpeningScene:
00001182 8007e110       4293 	prepare	{r27,r28,r29,r31},0
00001186 3d0600000000*  4294 	mov	_drw2d_fb,r29
0000118c 3c0600000000*  4295 	mov	_g_Window,r28
00001192 3b0600000000*  4296 	mov	_g_Drw2dDev,r27
                        4297 --	    .bf
                        4298 .LDW901:
                        4299 --963: {
                        4300 --964: 	 void *fb;
                        4301 --965:     int size;
                        4302 --966:     fb = R_WM_WindowNewDrawBufGet(FLASHDASH_WM_UNIT, &g_Window);
                        4303 --line966
                        4304 ..lin.7bbb3f5b..1b6070af.0_307::
                        4305 .LDWlin307:
00001198 1c38           4306 	mov	r28,r7
0000119a 0032           4307 	mov	0,r6
                        4308 	jarl	_R_WM_WindowNewDrawBufGet,lp
                        4308 <EXPANSION BEGIN>
                        4308 jarl22 _R_WM_WindowNewDrawBufGet , lp 
0000119c 80ff0000*      4308 <EXPANSION END>
000011a0 0a08           4309 	mov	r10,r1
                        4310 --967:     drw2d_fb.Flags = (r_drw2d_FramebufferFlags_t)0;
                        4311 --line967
                        4312 ..lin.7bbb3f5b..1b6070af.0_308::
                        4313 .LDWlin308:
000011a2 7d071900       4314 	st.w	zero,24[r29]
                        4315 --968:     drw2d_fb.Handle = 0; /* not used currently */
000011a6 7d070100       4316 	st.w	zero,0[r29]
                        4317 --969:     drw2d_fb.Buffer.Pitch = g_Window.Pitch;
000011aa 3c771900       4318 	ld.w	24[r28],r14
000011ae 7d770900       4319 	st.w	r14,8[r29]
                        4320 --970:     drw2d_fb.Buffer.PixelFormat = R_DRW2D_PIXELFORMAT_ARGB8888;
000011b2 0f72           4321 	mov	15,r14
000011b4 7d771500       4322 	st.w	r14,20[r29]
                        4323 --971:     drw2d_fb.Buffer.Size.Width = g_Window.Width;
000011b8 3c771d00       4324 	ld.w	28[r28],r14
000011bc 7d770d00       4325 	st.w	r14,12[r29]
                        4326 --972:     drw2d_fb.Buffer.Size.Height = g_Window.Height;
000011c0 3c772100       4327 	ld.w	32[r28],r14
000011c4 7d771100       4328 	st.w	r14,16[r29]
                        4329 --973:     drw2d_fb.Buffer.Data = fb;
000011c8 7d0f0500       4330 	st.w	r1,4[r29]
                        4331 --974:     R_DRW2D_FramebufferSet(g_Drw2dDev, &drw2d_fb);

                                                                      Page 81
                                                              C:\Users\MANGESH\AppData\Local\Temp\gh_00004k01.si
000011cc 3b370100       4332 	ld.w	0[r27],r6
000011d0 1d38           4333 	mov	r29,r7
                        4334 	jarl	_R_DRW2D_FramebufferSet,lp
                        4334 <EXPANSION BEGIN>
                        4334 jarl22 _R_DRW2D_FramebufferSet , lp 
000011d2 80ff0000*      4334 <EXPANSION END>
                        4335 --976:     R_DRW2D_CtxBgColor(g_Drw2dDev, 0xff0000ff);
                        4336 --line976
                        4337 ..lin.7bbb3f5b..1b6070af.0_309::
                        4338 .LDWlin309:
000011d6 3b370100       4339 	ld.w	0[r27],r6
000011da 2706ff0000ff   4340 	mov	-16776961,r7
                        4341 	jarl	_R_DRW2D_CtxBgColor,lp
                        4341 <EXPANSION BEGIN>
                        4341 jarl22 _R_DRW2D_CtxBgColor , lp 
000011e0 80ff0000*      4341 <EXPANSION END>
                        4342 --977:     R_DRW2D_FramebufferClear(g_Drw2dDev);
                        4343 --line977
                        4344 ..lin.7bbb3f5b..1b6070af.0_310::
                        4345 .LDWlin310:
000011e4 3b370100       4346 	ld.w	0[r27],r6
                        4347 	jarl	_R_DRW2D_FramebufferClear,lp
                        4347 <EXPANSION BEGIN>
                        4347 jarl22 _R_DRW2D_FramebufferClear , lp 
000011e8 80ff0000*      4347 <EXPANSION END>
                        4348 --979: 	R_DRW2D_GpuFinish(g_Drw2dDev, R_DRW2D_FINISH_WAIT);
                        4349 --line979
                        4350 ..lin.7bbb3f5b..1b6070af.0_311::
                        4351 .LDWlin311:
000011ec 3b370100       4352 	ld.w	0[r27],r6
000011f0 013a           4353 	mov	1,r7
                        4354 	jarl	_R_DRW2D_GpuFinish,lp
                        4354 <EXPANSION BEGIN>
                        4354 jarl22 _R_DRW2D_GpuFinish , lp 
000011f2 80ff0000*      4354 <EXPANSION END>
                        4355 --980:     R_WM_WindowSwap(FLASHDASH_WM_UNIT, &g_Window);
                        4356 --line980
                        4357 ..lin.7bbb3f5b..1b6070af.0_312::
                        4358 .LDWlin312:
000011f6 1c38           4359 	mov	r28,r7
000011f8 0032           4360 	mov	0,r6
                        4361 	jarl	_R_WM_WindowSwap,lp
                        4361 <EXPANSION BEGIN>
                        4361 jarl22 _R_WM_WindowSwap , lp 
000011fa 80ff0000*      4361 <EXPANSION END>
                        4362 --981:     R_WM_FrameEndMark(FLASHDASH_WM_UNIT, 0);
                        4363 --line981
                        4364 ..lin.7bbb3f5b..1b6070af.0_313::
                        4365 .LDWlin313:
000011fe 0032           4366 	mov	0,r6
00001200 003a           4367 	mov	0,r7
                        4368 	jarl	_R_WM_FrameEndMark,lp
                        4368 <EXPANSION BEGIN>
                        4368 jarl22 _R_WM_FrameEndMark , lp 
00001202 80ff0000*      4368 <EXPANSION END>
                        4369 --982:     R_WM_FrameWait(FLASHDASH_WM_UNIT, 0);
                        4370 --line982
                        4371 ..lin.7bbb3f5b..1b6070af.0_314::
                        4372 .LDWlin314:
00001206 0032           4373 	mov	0,r6
00001208 003a           4374 	mov	0,r7

                                                                      Page 82
                                                              C:\Users\MANGESH\AppData\Local\Temp\gh_00004k01.si
                        4375 	jarl	_R_WM_FrameWait,lp
                        4375 <EXPANSION BEGIN>
                        4375 jarl22 _R_WM_FrameWait , lp 
0000120a 80ff0000*      4375 <EXPANSION END>
                        4376 --985: }
                        4377 --	    .ef
                        4378 .LDW011:
                        4379 --line985
                        4380 ..lin.7bbb3f5b..1b6070af.0_315::
                        4381 .LDWlin315:
0000120e 4006ff10       4382 	dispose	0,{r27,r28,r29,r31},[lp]
                        4383 ..lin.7bbb3f5b..1b6070af.0_316::
                        4384 .LDWlin316:
                        4385 	.type	_FlashDash_OpeningScene,@function
                        4386 	.size	_FlashDash_OpeningScene,.-_FlashDash_OpeningScene
                        4387 	.align	2
                        4388 .LDW111:
                        4389 --_fb	r1	local
                        4390 
                        4391 	.section ".bss","awb"
                        4392 .L3418:
                        4393 	.type	.L3418,@object
                        4394 	.size	.L3418,0
                        4395 	.data
                        4396 	.text
                        4397 
                        4398 	.align	2
                        4399 --_g_Drw2dDev	_g_Drw2dDev	import
                        4400 --_WindowNeedle	_WindowNeedle	import
                        4401 --_LeftNeedle	_LeftNeedle	import
                        4402 --_my_speed_texture	_my_speed_texture	import
                        4403 --_RightNeedle	_RightNeedle	import
                        4404 --_SpeedSprite	_SpeedSprite	import
                        4405 --_TachoSprite	_TachoSprite	import
                        4406 --_MenuSprite	_MenuSprite	import
                        4407 --_background_texture	_background_texture	import
                        4408 --_gauge_needle1_texture	_gauge_needle1_texture	import
                        4409 --_gauge_needle2_texture	_gauge_needle2_texture	import
                        4410 --_movie_count	_movie_count	static
                        4411 --_g_Window	_g_Window	import
                        4412 --_Speed_Sprite	_Speed_Sprite	import
                        4413 --_Odo_Sprite	_Odo_Sprite	import
                        4414 --_Time_Sprite	_Time_Sprite	import
                        4415 --_Temp_Sprite	_Temp_Sprite	import
                        4416 --_Mode_Sprite	_Mode_Sprite	import
                        4417 --_frame_count	_frame_count	static
                        4418 --_my_menu_cmd	_my_menu_cmd	import
                        4419 
                        4420 	.data
0000007a 0000           4421 	.space	2
                        4422 	.global	_my_L_X
0000007c 96000000       4423 _my_L_X:	.byte	150,0,0,0
                        4424 	.type	_my_L_X,@object
                        4425 	.size	_my_L_X,4
                        4426 	.global	_my_L_Y
00000080 f0000000       4427 _my_L_Y:	.byte	240,0,0,0
                        4428 	.type	_my_L_Y,@object
                        4429 	.size	_my_L_Y,4
                        4430 	.global	_my_R_X
00000084 90010000       4431 _my_R_X:	.byte	144,1,0,0
                        4432 	.type	_my_R_X,@object

                                                                      Page 83
                                                              C:\Users\MANGESH\AppData\Local\Temp\gh_00004k01.si
                        4433 	.size	_my_R_X,4
                        4434 	.global	_my_R_Y
00000088 f0000000       4435 _my_R_Y:	.byte	240,0,0,0
                        4436 	.type	_my_R_Y,@object
                        4437 	.size	_my_R_Y,4
                        4438 	.global	_my_x
0000008c 18010000       4439 _my_x:	.byte	24,1,0,0
                        4440 	.type	_my_x,@object
                        4441 	.size	_my_x,4
                        4442 	.global	_my_y
00000090 00000000       4443 _my_y:	.byte	0,0,0,0
                        4444 	.type	_my_y,@object
                        4445 	.size	_my_y,4
                        4446 	.global	_my_z
00000094 00000000       4447 _my_z:	.byte	0,0,0,0
                        4448 	.type	_my_z,@object
                        4449 	.size	_my_z,4
                        4450 	.global	_my_x_fuel
00000098 40010000       4451 _my_x_fuel:	.byte	64,1,0,0
                        4452 	.type	_my_x_fuel,@object
                        4453 	.size	_my_x_fuel,4
                        4454 	.global	_my_move
0000009c 00             4455 _my_move:	.byte	0
                        4456 	.type	_my_move,@object
                        4457 	.size	_my_move,1
                        4458 	.global	_move_done
0000009d 00             4459 _move_done:	.byte	0
                        4460 	.type	_move_done,@object
                        4461 	.size	_move_done,1
                        4462 	.global	_odo_string
0000009e 00             4463 _odo_string:	.byte	0
                        4464 	.type	_odo_string,@object
                        4465 	.size	_odo_string,1
                        4466 	.global	_my_sec_count
0000009f 00             4467 _my_sec_count:	.byte	0
                        4468 	.type	_my_sec_count,@object
                        4469 	.size	_my_sec_count,1
                        4470 	.global	_my_min_cnt
000000a0 30             4471 _my_min_cnt:	.byte	48
                        4472 	.type	_my_min_cnt,@object
                        4473 	.size	_my_min_cnt,1
                        4474 	.global	_my_hour_cnt
000000a1 12             4475 _my_hour_cnt:	.byte	18
                        4476 	.type	_my_hour_cnt,@object
                        4477 	.size	_my_hour_cnt,1
                        4478 	.global	_myodoString
                        4479 _myodoString:--	"2254380"
000000a2 32323534       4480 	.byte	50,50,53,52
000000a6 33383000       4481 	.byte	51,56,48,0
000000aa 0000           4482 	.space	2
                        4483 	.type	_myodoString,@object
                        4484 	.size	_myodoString,10
                        4485 	.global	_mytripString
                        4486 _mytripString:--	"1892 "
000000ac 31383932       4487 	.byte	49,56,57,50
000000b0 2000           4488 	.byte	32,0
000000b2 00000000       4489 	.space	4
                        4490 	.type	_mytripString,@object
                        4491 	.size	_mytripString,10
                        4492 	.global	_my_time_string
                        4493 _my_time_string:--	"12:30 "

                                                                      Page 84
                                                              C:\Users\MANGESH\AppData\Local\Temp\gh_00004k01.si
000000b6 31323a33       4494 	.byte	49,50,58,51
000000ba 3020           4495 	.byte	48,32
000000bc 00             4496 	.byte	0
000000bd 000000         4497 	.space	3
                        4498 	.type	_my_time_string,@object
                        4499 	.size	_my_time_string,10
                        4500 	.global	_mytempString
                        4501 _mytempString:--	"25.6  "
000000c0 32352e36       4502 	.byte	50,53,46,54
000000c4 2020           4503 	.byte	32,32
000000c6 00             4504 	.byte	0
000000c7 000000         4505 	.space	3
                        4506 	.type	_mytempString,@object
                        4507 	.size	_mytempString,10
                        4508 	.global	_mymodeString
                        4509 _mymodeString:--	"ECO"
000000ca 45434f00       4510 	.byte	69,67,79,0
000000ce 000000000000   4511 	.space	6
                        4512 	.type	_mymodeString,@object
                        4513 	.size	_mymodeString,10
                        4514 	.section ".bss","awb"
                        4515 	.global	_myspeedString
00000000 000000000000   4516 _myspeedString:	.space	32
00000006 000000000000 
0000000c 000000000000 
00000012 000000000000 
00000018 000000000000 
0000001e 0000 
                        4517 	.type	_myspeedString,@object
                        4518 	.size	_myspeedString,32
                        4519 	.align	8
                        4520 	.align	8
                        4521 	.global	_distance
00000020 000000000000   4522 _distance:	.space	8
00000026 0000 
                        4523 	.type	_distance,@object
                        4524 	.size	_distance,8
                        4525 	.align	4
                        4526 	.global	_drw2d_fb
00000028 000000000000   4527 _drw2d_fb:	.space	28
0000002e 000000000000 
00000034 000000000000 
0000003a 000000000000 
00000040 00000000 
                        4528 	.type	_drw2d_fb,@object
                        4529 	.size	_drw2d_fb,28
                        4530 	.align	4
                        4531 	.global	_kph
00000044 00000000       4532 _kph:	.space	4
                        4533 	.type	_kph,@object
                        4534 	.size	_kph,4
                        4535 	.align	4
                        4536 	.global	_rpm
00000048 00000000       4537 _rpm:	.space	4
                        4538 	.type	_rpm,@object
                        4539 	.size	_rpm,4
                        4540 	.data
                        4541 	.ghsnote version,19
                        4542 	.ghsnote tools,3
                        4543 	.ghsnote options,656
                        4544 	.text

                                                                      Page 85
                                                              C:\Users\MANGESH\AppData\Local\Temp\gh_00004k01.si
                        4545 	.align	2
                        4546 ..eof.G.3A.5Cvlib_v1.2E8_svn.5Capp.5Cgfx_apps.5Cd1m1_flashdash_demo.5Ctarget.5Cd1m2_mango_ghs.5Cobj.5Cmain_scene...47.3A.5Cvlib_v1.2E8_svn.5Capp.5Cgfx_apps.5Cd1m1_flashdash_demo.5Ctarget.5Cd1m2_mango_ghs..5C39AB0B..0::
                        4547 .rh850_flags DOUBLE,FLOAT,REGMODE22,DATA_ALIGN8,GP_FIX,EP_NONFIX,TP_FIX,REG2_RESERVE,DOUBLE64,G3M,SDA_EXTRA_REGS_0
