                                                                      Page 1
                                                              C:\Users\MANGESH\AppData\Local\Temp\gh_00001h81.si
Command Line: C:\ghs\comp_201715\ease850.exe -w -elf -b0 -I..\..\..\..\..\app\common\dhd -I..\..\..\..\..\app\gfx_apps\d1m1_flashdash_demo\res -I..\..\..\..\..\app\gfx_apps\d1m1_flashdash_demo\src -I..\..\..\..\..\app\gfx_apps\d1m1_flashdash_demo\src\images -I..\..\..\..\..\app\gfx_apps\d1m1_flashdash_demo\target\d1m2_mango_ghs -I..\..\..\..\..\app\gfx_apps\d1m1_flashdash_demo\target\d1m2_mango_ghs\config -I..\..\..\..\..\bsp\board\\config -I..\..\..\..\..\bsp\board\\src\gfx -I..\..\..\..\..\bsp\board\\src\hmi -I..\..\..\..\..\bsp\board\\src\stdio -I..\..\..\..\..\bsp\board\d1mx_mango\config -I..\..\..\..\..\bsp\board\d1mx_mango\src -I..\..\..\..\..\bsp\board\d1mx_mango\src\gfx -I..\..\..\..\..\bsp\board\d1mx_mango\src\hmi -I..\..\..\..\..\bsp\board\d1mx_mango\src\stdio -I..\..\..\..\..\bsp\gfx\lib -I..\..\..\..\..\bsp\gfx\src -I..\..\..\..\..\bsp\hmi\lib -I..\..\..\..\..\bsp\hmi\src -I..\..\..\..\..\bsp\lib -I..\..\..\..\..\bsp\stdio\lib -I..\..\..\..\..\bsp\stdio\src -I..\..\..\..\..\cdi\lib -I..\..\..\..\..\cdi\src -I..\..\..\..\..\compiler\rh850_ghs\inc -I..\..\..\..\..\device\d1mx\lib -I..\..\..\..\..\device\d1mx\macro_cfg -I..\..\..\..\..\device\d1mx\src\dev -I..\..\..\..\..\device\d1mx\src\dhd -I..\..\..\..\..\device\d1mx\src\jcua -I..\..\..\..\..\device\d1mx\src\rh850_ghs -I..\..\..\..\..\device\d1mx\src\vowe -I..\..\..\..\..\device\d1x_common\macro_cfg -I..\..\..\..\..\device\d1x_common\src\csisw -I..\..\..\..\..\device\d1x_common\src\dev -I..\..\..\..\..\device\d1x_common\src\gfxbus -I..\..\..\..\..\device\d1x_common\src\gpio -I..\..\..\..\..\device\d1x_common\src\ostm -I..\..\..\..\..\device\d1x_common\src\pbg -I..\..\..\..\..\device\d1x_common\src\riic -I..\..\..\..\..\device\d1x_common\src\sfma -I..\..\..\..\..\device\d1x_common\src\spea -I..\..\..\..\..\device\d1x_common\src\tauj -I..\..\..\..\..\device\d1x_common\src\tick -I..\..\..\..\..\device\d1x_common\src\vdce -I..\..\..\..\..\device\d1x_common\src\wm -I..\..\..\..\..\device\d1x_common\src\dma -I..\..\..\..\..\device\d1x_common\src\g3dma -I..\..\..\..\..\device\d1x_common\src\xbus -I..\..\..\..\..\device\d1x_common\src\pcmp -I..\..\..\..\..\device\d1x_common\src\taub -I..\..\..\..\..\device\lib -I..\..\..\..\..\macro\bus\pbg\lib -I..\..\..\..\..\macro\bus\pbg\src -I..\..\..\..\..\macro\csi\csisw\lib -I..\..\..\..\..\macro\csi\csisw\src -I..\..\..\..\..\macro\dma\dma\lib -I..\..\..\..\..\macro\dma\dma\src -I..\..\..\..\..\macro\dma\g3dma\lib -I..\..\..\..\..\macro\dma\g3dma\src -I..\..\..\..\..\macro\drw2d\lib -I..\..\..\..\..\macro\drw2d\platform\davehd -I..\..\..\..\..\macro\drw2d\platform\os\no_os -I..\..\..\..\..\macro\drw2d\src -I..\..\..\..\..\macro\flashc\sfcdb\lib -I..\..\..\..\..\macro\flashc\sfcdb\src -I..\..\..\..\..\macro\flashc\sfma\lib -I..\..\..\..\..\macro\flashc\sfma\src -I..\..\..\..\..\macro\gfxbus\lib -I..\..\..\..\..\macro\gfxbus\src -I..\..\..\..\..\macro\gfxbus\xbus\lib -I..\..\..\..\..\macro\gfxbus\xbus\src -I..\..\..\..\..\macro\gpio\lib -I..\..\..\..\..\macro\gpio\src -I..\..\..\..\..\macro\gpu\davehd\common\inc -I..\..\..\..\..\macro\gpu\davehd\common\inc\platform -I..\..\..\..\..\macro\gpu\davehd\common\inc\platform\d1mx -I..\..\..\..\..\macro\gpu\davehd\kernel\inc -I..\..\..\..\..\macro\gpu\davehd\kernel\platform\d1mx -I..\..\..\..\..\macro\gpu\davehd\kernel\platform\d1mx\bridge -I..\..\..\..\..\macro\gpu\davehd\kernel\platform\ree -I..\..\..\..\..\macro\gpu\davehd\kernel\src -I..\..\..\..\..\macro\gpu\davehd\user\inc -I..\..\..\..\..\macro\gpu\davehd\user\platform\d1mx\no_os -I..\..\..\..\..\macro\gpu\davehd\user\src -I..\..\..\..\..\macro\gpu\jcua\lib -I..\..\..\..\..\macro\gpu\jcua\src -I..\..\..\..\..\macro\i2c\riic\lib -I..\..\..\..\..\macro\i2c\riic\src -I..\..\..\..\..\macro\pwm\pcmp\lib -I..\..\..\..\..\macro\pwm\pcmp\src -I..\..\..\..\..\macro\tick\lib -I..\..\..\..\..\macro\tick\src -I..\..\..\..\..\macro\timer\ostm\lib -I..\..\..\..\..\macro\timer\ostm\src -I..\..\..\..\..\macro\timer\tauj\lib -I..\..\..\..\..\macro\timer\tauj\src -I..\..\..\..\..\macro\timer\taub\lib -I..\..\..\..\..\macro\timer\taub\src -I..\..\..\..\..\macro\vdce\lib -I..\..\..\..\..\macro\vdce\src -I..\..\..\..\..\macro\vo\ddb\lib -I..\..\..\..\..\macro\vo\ddb\src -I..\..\..\..\..\macro\vo\spea\lib -I..\..\..\..\..\macro\vo\spea\src -I..\..\..\..\..\macro\vo\vowe\lib -I..\..\..\..\..\macro\vo\vowe\src -I..\..\..\..\..\macro\wm\lib -I..\..\..\..\..\macro\wm\src -I..\..\..\..\..\middleware\gfxutils\lib -I..\..\..\..\..\middleware\gfxutils\src -I..\..\..\..\..\device\d1mx\macro_cfg\csisw -I..\..\..\..\..\device\d1mx\macro_cfg\davehd -I..\..\..\..\..\device\d1mx\macro_cfg\ddb -I..\..\..\..\..\device\d1mx\macro_cfg\drw2d -I..\..\..\..\..\device\d1mx\macro_cfg\gfxbus -I..\..\..\..\..\device\d1mx\macro_cfg\gpio -I..\..\..\..\..\device\d1mx\macro_cfg\hypb -I..\..\..\..\..\device\d1mx\macro_cfg\hypdb -I..\..\..\..\..\device\d1mx\macro_cfg\jcua -I..\..\..\..\..\device\d1mx\macro_cfg\nfmabare -I..\..\..\..\..\device\d1mx\macro_cfg\octa -I..\..\..\..\..\device\d1mx\macro_cfg\octacdb -I..\..\..\..\..\device\d1mx\macro_cfg\ostm -I..\..\..\..\..\device\d1mx\macro_cfg\pbg -I..\..\..\..\..\device\d1mx\macro_cfg\riic -I..\..\..\..\..\device\d1mx\macro_cfg\sfcdb -I..\..\..\..\..\device\d1mx\macro_cfg\sfma -I..\..\..\..\..\device\d1mx\macro_cfg\spea -I..\..\..\..\..\device\d1mx\macro_cfg\tauj -I..\..\..\..\..\device\d1mx\macro_cfg\tick -I..\..\..\..\..\device\d1mx\macro_cfg\vdce -I..\..\..\..\..\device\d1mx\macro_cfg\vowe -I..\..\..\..\..\device\d1mx\macro_cfg\wm -I..\..\..\..\..\device\d1mx\macro_cfg\xbus -I..\..\..\..\..\device\d1x_common\macro_cfg\csisw -I..\..\..\..\..\device\d1x_common\macro_cfg\davehd -I..\..\..\..\..\device\d1x_common\macro_cfg\ddb -I..\..\..\..\..\device\d1x_common\macro_cfg\drw2d -I..\..\..\..\..\device\d1x_common\macro_cfg\gfxbus -I..\..\..\..\..\device\d1x_common\macro_cfg\gpio -I..\..\..\..\..\device\d1x_common\macro_cfg\hypb -I..\..\..\..\..\device\d1x_common\macro_cfg\hypdb -I..\..\..\..\..\device\d1x_common\macro_cfg\jcua -I..\..\..\..\..\device\d1x_common\macro_cfg\nfmabare -I..\..\..\..\..\device\d1x_common\macro_cfg\octa -I..\..\..\..\..\device\d1x_common\macro_cfg\octacdb -I..\..\..\..\..\device\d1x_common\macro_cfg\ostm -I..\..\..\..\..\device\d1x_common\macro_cfg\pbg -I..\..\..\..\..\device\d1x_common\macro_cfg\riic -I..\..\..\..\..\device\d1x_common\macro_cfg\sfcdb -I..\..\..\..\..\device\d1x_common\macro_cfg\sfma -I..\..\..\..\..\device\d1x_common\macro_cfg\spea -I..\..\..\..\..\device\d1x_common\macro_cfg\tauj -I..\..\..\..\..\device\d1x_common\macro_cfg\tick -I..\..\..\..\..\device\d1x_common\macro_cfg\vdce -I..\..\..\..\..\device\d1x_common\macro_cfg\vowe -I..\..\..\..\..\device\d1x_common\macro_cfg\wm -I..\..\..\..\..\device\d1x_common\macro_cfg\xbus -I..\..\..\..\..\app\gfx_apps\d1m1_flashdash_demo\src\TEXT_MY -IC:\ghs\comp_201715\lib\rh850_22 -cg_underscore -cpu=rh850g3m -no_v850_simd -nomacro -patch_dbo=G:\vlib_v1.8_svn\app\gfx_apps\d1m1_flashdash_demo\target\d1m2_mango_ghs\obj\standby.dbo -source=standby.c -o .\obj\gh_00001h81.o -list=.\obj\standby.lst C:\Users\MANGESH\AppData\Local\Temp\gh_00001h81.si 
Original File: C:\Users\MANGESH\AppData\Local\Temp\gh_00001h81.si
Source File: standby.c
Directory: G:\vlib_v1.8_svn\app\gfx_apps\d1m1_flashdash_demo\target\d1m2_mango_ghs
Host OS: Windows 7 Service Pack 1
EASE: Copyright (C) 1983-2016 Green Hills Software.  All Rights Reserved.
Release: MULTI v800-v2017.1.5-comp-P04
Custom String: TOOLS-28024 unreached assembly routines deleted by linker
Build Directory: [Directory] BTOWINBOX:c:/build_2017_1_bto/2017-10-04.2100-2017_1_bto/win32-comp-ecom
Revision: [VCInfo] http://toolsvc/branches/release-branch-2017-1-bto/src@603992 (built by build)
Revision Date: Thu Oct 05 10:11:26 2017

Release Date: Tue Oct 10 02:48:58 2017

                           1 --Driver Command: ccv850 -c -MD -I..\..\..\..\..\app\common\dhd
                           2 --		-I..\..\..\..\..\app\gfx_apps\d1m1_flashdash_demo\res
                           3 --		-I..\..\..\..\..\app\gfx_apps\d1m1_flashdash_demo\src
                           4 --		-I..\..\..\..\..\app\gfx_apps\d1m1_flashdash_demo\src\images
                           5 --		-I..\..\..\..\..\app\gfx_apps\d1m1_flashdash_demo\target\d1m2_mango_ghs
                           6 --		-I..\..\..\..\..\app\gfx_apps\d1m1_flashdash_demo\target\d1m2_mango_ghs\config
                           7 --		-I..\..\..\..\..\bsp\board\\config
                           8 --		-I..\..\..\..\..\bsp\board\\src\gfx
                           9 --		-I..\..\..\..\..\bsp\board\\src\hmi
                          10 --		-I..\..\..\..\..\bsp\board\\src\stdio
                          11 --		-I..\..\..\..\..\bsp\board\d1mx_mango\config
                          12 --		-I..\..\..\..\..\bsp\board\d1mx_mango\src
                          13 --		-I..\..\..\..\..\bsp\board\d1mx_mango\src\gfx
                          14 --		-I..\..\..\..\..\bsp\board\d1mx_mango\src\hmi
                          15 --		-I..\..\..\..\..\bsp\board\d1mx_mango\src\stdio
                          16 --		-I..\..\..\..\..\bsp\gfx\lib -I..\..\..\..\..\bsp\gfx\src
                          17 --		-I..\..\..\..\..\bsp\hmi\lib -I..\..\..\..\..\bsp\hmi\src
                          18 --		-I..\..\..\..\..\bsp\lib -I..\..\..\..\..\bsp\stdio\lib
                          19 --		-I..\..\..\..\..\bsp\stdio\src -I..\..\..\..\..\cdi\lib
                          20 --		-I..\..\..\..\..\cdi\src -I..\..\..\..\..\compiler\rh850_ghs\inc
                          21 --		-I..\..\..\..\..\device\d1mx\lib
                          22 --		-I..\..\..\..\..\device\d1mx\macro_cfg
                          23 --		-I..\..\..\..\..\device\d1mx\src\dev
                          24 --		-I..\..\..\..\..\device\d1mx\src\dhd
                          25 --		-I..\..\..\..\..\device\d1mx\src\jcua
                          26 --		-I..\..\..\..\..\device\d1mx\src\rh850_ghs
                          27 --		-I..\..\..\..\..\device\d1mx\src\vowe
                          28 --		-I..\..\..\..\..\device\d1x_common\macro_cfg
                          29 --		-I..\..\..\..\..\device\d1x_common\src\csisw
                          30 --		-I..\..\..\..\..\device\d1x_common\src\dev
                          31 --		-I..\..\..\..\..\device\d1x_common\src\gfxbus
                          32 --		-I..\..\..\..\..\device\d1x_common\src\gpio
                          33 --		-I..\..\..\..\..\device\d1x_common\src\ostm
                          34 --		-I..\..\..\..\..\device\d1x_common\src\pbg
                          35 --		-I..\..\..\..\..\device\d1x_common\src\riic
                          36 --		-I..\..\..\..\..\device\d1x_common\src\sfma
                          37 --		-I..\..\..\..\..\device\d1x_common\src\spea
                          38 --		-I..\..\..\..\..\device\d1x_common\src\tauj
                          39 --		-I..\..\..\..\..\device\d1x_common\src\tick
                          40 --		-I..\..\..\..\..\device\d1x_common\src\vdce
                          41 --		-I..\..\..\..\..\device\d1x_common\src\wm
                          42 --		-I..\..\..\..\..\device\d1x_common\src\dma
                          43 --		-I..\..\..\..\..\device\d1x_common\src\g3dma
                          44 --		-I..\..\..\..\..\device\d1x_common\src\xbus
                          45 --		-I..\..\..\..\..\device\d1x_common\src\pcmp
                          46 --		-I..\..\..\..\..\device\d1x_common\src\taub
                          47 --		-I..\..\..\..\..\device\lib -I..\..\..\..\..\macro\bus\pbg\lib
                          48 --		-I..\..\..\..\..\macro\bus\pbg\src
                          49 --		-I..\..\..\..\..\macro\csi\csisw\lib

                                                                      Page 2
                                                              C:\Users\MANGESH\AppData\Local\Temp\gh_00001h81.si
                          50 --		-I..\..\..\..\..\macro\csi\csisw\src
                          51 --		-I..\..\..\..\..\macro\dma\dma\lib
                          52 --		-I..\..\..\..\..\macro\dma\dma\src
                          53 --		-I..\..\..\..\..\macro\dma\g3dma\lib
                          54 --		-I..\..\..\..\..\macro\dma\g3dma\src
                          55 --		-I..\..\..\..\..\macro\drw2d\lib
                          56 --		-I..\..\..\..\..\macro\drw2d\platform\davehd
                          57 --		-I..\..\..\..\..\macro\drw2d\platform\os\no_os
                          58 --		-I..\..\..\..\..\macro\drw2d\src
                          59 --		-I..\..\..\..\..\macro\flashc\sfcdb\lib
                          60 --		-I..\..\..\..\..\macro\flashc\sfcdb\src
                          61 --		-I..\..\..\..\..\macro\flashc\sfma\lib
                          62 --		-I..\..\..\..\..\macro\flashc\sfma\src
                          63 --		-I..\..\..\..\..\macro\gfxbus\lib
                          64 --		-I..\..\..\..\..\macro\gfxbus\src
                          65 --		-I..\..\..\..\..\macro\gfxbus\xbus\lib
                          66 --		-I..\..\..\..\..\macro\gfxbus\xbus\src
                          67 --		-I..\..\..\..\..\macro\gpio\lib -I..\..\..\..\..\macro\gpio\src
                          68 --		-I..\..\..\..\..\macro\gpu\davehd\common\inc
                          69 --		-I..\..\..\..\..\macro\gpu\davehd\common\inc\platform
                          70 --		-I..\..\..\..\..\macro\gpu\davehd\common\inc\platform\d1mx
                          71 --		-I..\..\..\..\..\macro\gpu\davehd\kernel\inc
                          72 --		-I..\..\..\..\..\macro\gpu\davehd\kernel\platform\d1mx
                          73 --		-I..\..\..\..\..\macro\gpu\davehd\kernel\platform\d1mx\bridge
                          74 --		-I..\..\..\..\..\macro\gpu\davehd\kernel\platform\ree
                          75 --		-I..\..\..\..\..\macro\gpu\davehd\kernel\src
                          76 --		-I..\..\..\..\..\macro\gpu\davehd\user\inc
                          77 --		-I..\..\..\..\..\macro\gpu\davehd\user\platform\d1mx\no_os
                          78 --		-I..\..\..\..\..\macro\gpu\davehd\user\src
                          79 --		-I..\..\..\..\..\macro\gpu\jcua\lib
                          80 --		-I..\..\..\..\..\macro\gpu\jcua\src
                          81 --		-I..\..\..\..\..\macro\i2c\riic\lib
                          82 --		-I..\..\..\..\..\macro\i2c\riic\src
                          83 --		-I..\..\..\..\..\macro\pwm\pcmp\lib
                          84 --		-I..\..\..\..\..\macro\pwm\pcmp\src
                          85 --		-I..\..\..\..\..\macro\tick\lib -I..\..\..\..\..\macro\tick\src
                          86 --		-I..\..\..\..\..\macro\timer\ostm\lib
                          87 --		-I..\..\..\..\..\macro\timer\ostm\src
                          88 --		-I..\..\..\..\..\macro\timer\tauj\lib
                          89 --		-I..\..\..\..\..\macro\timer\tauj\src
                          90 --		-I..\..\..\..\..\macro\timer\taub\lib
                          91 --		-I..\..\..\..\..\macro\timer\taub\src
                          92 --		-I..\..\..\..\..\macro\vdce\lib -I..\..\..\..\..\macro\vdce\src
                          93 --		-I..\..\..\..\..\macro\vo\ddb\lib
                          94 --		-I..\..\..\..\..\macro\vo\ddb\src
                          95 --		-I..\..\..\..\..\macro\vo\spea\lib
                          96 --		-I..\..\..\..\..\macro\vo\spea\src
                          97 --		-I..\..\..\..\..\macro\vo\vowe\lib
                          98 --		-I..\..\..\..\..\macro\vo\vowe\src -I..\..\..\..\..\macro\wm\lib
                          99 --		-I..\..\..\..\..\macro\wm\src
                         100 --		-I..\..\..\..\..\middleware\gfxutils\lib
                         101 --		-I..\..\..\..\..\middleware\gfxutils\src
                         102 --		-I..\..\..\..\..\device\d1mx\macro_cfg\csisw
                         103 --		-I..\..\..\..\..\device\d1mx\macro_cfg\davehd
                         104 --		-I..\..\..\..\..\device\d1mx\macro_cfg\ddb
                         105 --		-I..\..\..\..\..\device\d1mx\macro_cfg\drw2d
                         106 --		-I..\..\..\..\..\device\d1mx\macro_cfg\gfxbus
                         107 --		-I..\..\..\..\..\device\d1mx\macro_cfg\gpio
                         108 --		-I..\..\..\..\..\device\d1mx\macro_cfg\hypb
                         109 --		-I..\..\..\..\..\device\d1mx\macro_cfg\hypdb
                         110 --		-I..\..\..\..\..\device\d1mx\macro_cfg\jcua

                                                                      Page 3
                                                              C:\Users\MANGESH\AppData\Local\Temp\gh_00001h81.si
                         111 --		-I..\..\..\..\..\device\d1mx\macro_cfg\nfmabare
                         112 --		-I..\..\..\..\..\device\d1mx\macro_cfg\octa
                         113 --		-I..\..\..\..\..\device\d1mx\macro_cfg\octacdb
                         114 --		-I..\..\..\..\..\device\d1mx\macro_cfg\ostm
                         115 --		-I..\..\..\..\..\device\d1mx\macro_cfg\pbg
                         116 --		-I..\..\..\..\..\device\d1mx\macro_cfg\riic
                         117 --		-I..\..\..\..\..\device\d1mx\macro_cfg\sfcdb
                         118 --		-I..\..\..\..\..\device\d1mx\macro_cfg\sfma
                         119 --		-I..\..\..\..\..\device\d1mx\macro_cfg\spea
                         120 --		-I..\..\..\..\..\device\d1mx\macro_cfg\tauj
                         121 --		-I..\..\..\..\..\device\d1mx\macro_cfg\tick
                         122 --		-I..\..\..\..\..\device\d1mx\macro_cfg\vdce
                         123 --		-I..\..\..\..\..\device\d1mx\macro_cfg\vowe
                         124 --		-I..\..\..\..\..\device\d1mx\macro_cfg\wm
                         125 --		-I..\..\..\..\..\device\d1mx\macro_cfg\xbus
                         126 --		-I..\..\..\..\..\device\d1x_common\macro_cfg\csisw
                         127 --		-I..\..\..\..\..\device\d1x_common\macro_cfg\davehd
                         128 --		-I..\..\..\..\..\device\d1x_common\macro_cfg\ddb
                         129 --		-I..\..\..\..\..\device\d1x_common\macro_cfg\drw2d
                         130 --		-I..\..\..\..\..\device\d1x_common\macro_cfg\gfxbus
                         131 --		-I..\..\..\..\..\device\d1x_common\macro_cfg\gpio
                         132 --		-I..\..\..\..\..\device\d1x_common\macro_cfg\hypb
                         133 --		-I..\..\..\..\..\device\d1x_common\macro_cfg\hypdb
                         134 --		-I..\..\..\..\..\device\d1x_common\macro_cfg\jcua
                         135 --		-I..\..\..\..\..\device\d1x_common\macro_cfg\nfmabare
                         136 --		-I..\..\..\..\..\device\d1x_common\macro_cfg\octa
                         137 --		-I..\..\..\..\..\device\d1x_common\macro_cfg\octacdb
                         138 --		-I..\..\..\..\..\device\d1x_common\macro_cfg\ostm
                         139 --		-I..\..\..\..\..\device\d1x_common\macro_cfg\pbg
                         140 --		-I..\..\..\..\..\device\d1x_common\macro_cfg\riic
                         141 --		-I..\..\..\..\..\device\d1x_common\macro_cfg\sfcdb
                         142 --		-I..\..\..\..\..\device\d1x_common\macro_cfg\sfma
                         143 --		-I..\..\..\..\..\device\d1x_common\macro_cfg\spea
                         144 --		-I..\..\..\..\..\device\d1x_common\macro_cfg\tauj
                         145 --		-I..\..\..\..\..\device\d1x_common\macro_cfg\tick
                         146 --		-I..\..\..\..\..\device\d1x_common\macro_cfg\vdce
                         147 --		-I..\..\..\..\..\device\d1x_common\macro_cfg\vowe
                         148 --		-I..\..\..\..\..\device\d1x_common\macro_cfg\wm
                         149 --		-I..\..\..\..\..\device\d1x_common\macro_cfg\xbus
                         150 --		-I..\..\..\..\..\app\gfx_apps\d1m1_flashdash_demo\src\TEXT_MY
                         151 --		--no_commons --no_implicit_include --prototype_errors
                         152 --		-DBSP_INIT_QOS_SDRAM_ORG -DDEVICE_TYPE_D1M1X -DBSP_INIT_SFMA_ORG
                         153 --		-DRENESAS_D1X -DR_DRW2D_OS_NO_OS -DR_DRW2D_SYS_DHD
                         154 --		-DUSED_CPU=RH850G3M -DUSE_BSP_GFX -DUSE_BSP_HMI_ORG -DUSE_BSP_HMI
                         155 --		-DUSE_BSP_STDIO -DUSE_CDI -DUSE_CSISW -DUSE_DAVEHD -DUSE_DDB
                         156 --		-DUSE_DMA -DUSE_DRW2D -DUSE_GFXBUS -DUSE_G3DMA -DUSE_GFXUTILS
                         157 --		-DUSE_GPIO -DUSE_JCUA -DUSE_OSTM -DUSE_PCMP -DUSE_PBG -DUSE_RIIC
                         158 --		-DUSE_SFCDB -DUSE_SFMA_ORG -DUSE_SPEA -DUSE_TAUB -DUSE_TAUJ
                         159 --		-DUSE_TICK -DUSE_VDCE -DUSE_VOWE -DUSE_WM -DUSE_XBUS -G -MD
                         160 --		-Odebug -Zuse1bit -allocate_ep -cpu=rh850g3m -large_sda -list
                         161 --		-no_callt -notda -passsource -preprocess_assembly_files
                         162 --		-registermode=22 -reserve_r2 --diag_warning 1 -object_dir=.\obj
                         163 --		-DBSP_INIT_QOS_VRAM -DUSE_RSCAN -filetype.c
                         164 --		..\..\..\..\gfx_apps\d1m1_flashdash_demo\src\standby.c -o
                         165 --		.\obj\standby.o
                         166 --Source File:   ..\..\..\..\gfx_apps\d1m1_flashdash_demo\src\standby.c
                         167 --Directory:     
                         168 --		G:\vlib_v1.8_svn\app\gfx_apps\d1m1_flashdash_demo\target\d1m2_mango_ghs
                         169 --Compile Date:  Sat Jan 12 15:23:47 2019
                         170 --Host OS:       Win32
                         171 --Version:       C-RH850 2017.1.5 RELEASE VERSION

                                                                      Page 4
                                                              C:\Users\MANGESH\AppData\Local\Temp\gh_00001h81.si
                         172 --Release:       Compiler v2017.1.5
                         173 --Revision Date: Tue Apr 11 09:29:40 2017
                         174 --Release Date:  Tue Apr 11 11:12:26 2017
                         175 -- ecom  -g -w
                         176 
                         177 --1: /*
                         178 --2: ****************************************************************************
                         179 --3: Project : Audio generation demo
                         180 --4: FILE    : $Id: standby.c 7262 2016-01-15 13:34:37Z michael.golczewski $
                         181 --5: ============================================================================
                         182 --6: DESCRIPTION
                         183 --7: Audio generation Test Application
                         184 --8: ============================================================================
                         185 --9:                             C O P Y R I G H T
                         186 --10: ============================================================================
                         187 --11:                            Copyright (c) 2011
                         188 --12:                                   by
                         189 --13:                        NEC Electronics (Europe) GmbH.
                         190 --14:                            Arcadiastrasse 10
                         191 --15:                           D-40472 Duesseldorf
                         192 --16:                                Germany
                         193 --17:                           All rights reserved.
                         194 --18: ============================================================================
                         195 --19: Purpose: only for testing
                         196 --21: Warranty Disclaimer
                         197 --23: Because the Product(s) is licensed free of charge, there is no warranty
                         198 --24: of any kind whatsoever and expressly disclaimed and excluded by NEC,
                         199 --25: either expressed or implied, including but not limited to those for
                         200 --26: non-infringement of intellectual property, merchantability and/or
                         201 --27: fitness for the particular purpose.
                         202 --28: NEC shall not have any obligation to maintain, service or provide bug
                         203 --29: fixes for the supplied Product(s) and/or the Application.
                         204 --31: Each User is solely responsible for determining the appropriateness of
                         205 --32: using the Product(s) and assumes all risks associated with its exercise
                         206 --33: of rights under this Agreement, including, but not limited to the risks
                         207 --34: and costs of program errors, compliance with applicable laws, damage to
                         208 --35: or loss of data, programs or equipment, and unavailability or
                         209 --36: interruption of operations.
                         210 --38: Limitation of Liability
                         211 --40: In no event shall NEC be liable to the User for any incidental,
                         212 --41: consequential, indirect, or punitive damage (including but not limited
                         213 --42: to lost profits) regardless of whether such liability is based on breach
                         214 --43: of contract, tort, strict liability, breach of warranties, failure of
                         215 --44: essential purpose or otherwise and even if advised of the possibility of
                         216 --45: such damages. NEC shall not be liable for any services or products
                         217 --46: provided by third party vendors, developers or consultants identified or
                         218 --47: referred to the User by NEC in connection with the Product(s) and/or the
                         219 --48: Application.
                         220 --50: ****************************************************************************
                         221 --51: */
                         222 --54: /***********************************************************
                         223 --55:   Title: Main Module
                         224 --57:   Implementation of the standby application.
                         225 --58: */
                         226 --61: /***********************************************************
                         227 --62:   Section: Includes
                         228 --63: */
                         229 --65: #include "r_typedefs.h"
                         230 --66: #include "stbc_api.h"
                         231 --67: //#include "rtc.h"
                         232 --68: #include "standby.h"

                                                                      Page 5
                                                              C:\Users\MANGESH\AppData\Local\Temp\gh_00001h81.si
                         233 --69: #include "r_gpio_api.h"
                         234 --70: #include "config.h"
                         235 --71: //#include "sound_sg.h"
                         236 --72: #include "sound_pcm.h"
                         237 --73: //#include "sound_ssif.h"
                         238 --74: #include "r_tauj_api.h"
                         239 --75: #include "r_taub_api.h"
                         240 --76: #include "r_bsp_stdio_api.h"
                         241 --77: #include "r_dev_api.h"
                         242 --80: /***********************************************************
                         243 --81:   Section: Local Defines
                         244 --82: */
                         245 --83: #define STBC_ENABLE_DEEPSTOP 1
                         246 --84: #define STBC_DISABLE_DEEPSTOP 0
                         247 --87: /***********************************************************
                         248 --88:   Functions Global
                         249 --89: */
                         250 --90: extern void eeTask_Processing(void);
                         251 --93: /***********************************************************
                         252 --94:   Functions Local variables
                         253 --95: */
                         254 --96: static uint8_t ImmediateShutdownEnable;
                         255 --99: /***********************************************************
                         256 --100:   Function: eePclk_SetStandbyMask
                         257 --101: */
                         258 --102: static void eePclk_SetStandbyMask()
                         259 	.text
                         260 ..bof.G.3A.5Cvlib_v1.2E8_svn.5Capp.5Cgfx_apps.5Cd1m1_flashdash_demo.5Ctarget.5Cd1m2_mango_ghs.5Cobj.5Cstandby...47.3A.5Cvlib_v1.2E8_svn.5Capp.5Cgfx_apps.5Cd1m1_flashdash_demo.5Ctarget.5Cd1m2_mango_ghs..5C39B92B..0::
                         261 	.align	2
                         262 	.align	2
                         263 ..gh.f.a.2.e.0:
                         264 	.type	..gh.f.a.2.e.0,@object
                         265 	.size	..gh.f.a.2.e.0,0
                         266 	.global	_eePclk_SetStandbyMask..G.3A.5Cvlib_v1.2E8_svn.5Capp.5Cgfx_apps.5Cd1m1_flashdash_demo.5Ctarget.5Cd1m2_mango_ghs.5Cobj.5Cstandby.
                         267 _eePclk_SetStandbyMask..G.3A.5Cvlib_v1.2E8_svn.5Capp.5Cgfx_apps.5Cd1m1_flashdash_demo.5Ctarget.5Cd1m2_mango_ghs.5Cobj.5Cstandby.:
                         268 _eePclk_SetStandbyMask:
                         269 --	    .bf
                         270 .LDW01:
                         271 --103: {
                         272 --104:     /* ensure the RTC clock is enabled in the AWO area in deepstop */
                         273 --105:     R_DEV_WRITE_REG(32, CKSC_ARTCAD_STPM, RTCAD_STP_MSK);
00000000 030a            274 	mov	3,r1
00000002 80078f0948f0    275 	st.w	r1,4294452248[zero]
                         276 --106: }
                         277 --	    .ef
                         278 .LDW11:
                         279 --line106
                         280 ..lin.17335d9e..cbfc2404.0_1::
                         281 .LDWlin1:
                         282 	.jumptype return
00000008 7f00            283 	jmp	[lp]
                         284 ..lin.17335d9e..cbfc2404.0_2::
                         285 .LDWlin2:
                         286 	.type	_eePclk_SetStandbyMask,@function
                         287 	.size	_eePclk_SetStandbyMask,.-_eePclk_SetStandbyMask
                         288 	.type	_eePclk_SetStandbyMask..G.3A.5Cvlib_v1.2E8_svn.5Capp.5Cgfx_apps.5Cd1m1_flashdash_demo.5Ctarget.5Cd1m2_mango_ghs.5Cobj.5Cstandby.,@function
                         289 	.size	_eePclk_SetStandbyMask..G.3A.5Cvlib_v1.2E8_svn.5Capp.5Cgfx_apps.5Cd1m1_flashdash_demo.5Ctarget.5Cd1m2_mango_ghs.5Cobj.5Cstandby.,.-_eePclk_SetStandbyMask..G.3A.5Cvlib_v1.2E8_svn.5Capp.5Cgfx_apps.5Cd1m1_flashdash_demo.5Ctarget.5Cd1m2_mango_ghs.5Cobj.5Cstandby.
                         290 	.align	2
                         291 .LDW21:
                         292 
                         293 	.section ".bss","awb"

                                                                      Page 6
                                                              C:\Users\MANGESH\AppData\Local\Temp\gh_00001h81.si
                         294 .L34:
                         295 	.type	.L34,@object
                         296 	.size	.L34,0
                         297 	.data
                         298 	.text
                         299 
                         300 
                         301 --109: /***********************************************************
                         302 --110:   Function: eeStandby_CheckWakeUp
                         303 --111: */
                         304 --112: ee_Wakeup_t eeStandby_CheckWakeUp(void)
                         305 	.align	2
                         306 	.align	2
                         307 	.align	2
                         308 ..gh.f.a.2.e.1:
                         309 	.type	..gh.f.a.2.e.1,@object
                         310 	.size	..gh.f.a.2.e.1,0
                         311 	.global	_eeStandby_CheckWakeUp
                         312 _eeStandby_CheckWakeUp:
0000000a 80072100        313 	prepare	{r31},0
                         314 --	    .bf
                         315 .LDW31:
                         316 --113: {
                         317 --114: ee_Wakeup_t _wake_up = E_WAKEUP_NONE;
0000000e 000a            318 	mov	0,r1
                         319 --115: uint32_t u32_temp = 0;
00000010 003a            320 	mov	0,r7
                         321 --117:     /* check for any wakeups */
                         322 --118:     u32_temp =  R_STBC_GetWakeUpEvent();
                         323 	jarl	_R_STBC_GetWakeUpEvent,lp
                         323 <EXPANSION BEGIN>
                         323 jarl22 _R_STBC_GetWakeUpEvent , lp 
00000012 80ff0000*       323 <EXPANSION END>
00000016 0a38            324 	mov	r10,r7
                         325 --120:     /* RTC alarm has priority */
                         326 --121:     if(u32_temp & R_STBC_WUF_INTRTCA0AL)
                         327 --line121
                         328 ..lin.17335d9e..80458c6d.0_3::
                         329 .LDWlin3:
00000018 0708            330 	mov	r7,r1
0000001a 8f0a            331 	shr	15,r1
0000001c 890d*           332 	bnl	.L51
                         333 --122:     {
                         334 --123:         R_BSP_STDIO_Printf("ISO0 RTC alarm wakeup occured (WUF = 0x%08X)\n", u32_temp);
                         335 --line123
                         336 ..lin.17335d9e..80458c6d.0_4::
                         337 .LDWlin4:
0000001e 260600000000*   338 	mov	.L181,r6
                         339 	jarl	_R_BSP_STDIO_Printf,lp
                         339 <EXPANSION BEGIN>
                         339 jarl22 _R_BSP_STDIO_Printf , lp 
00000024 80ff0000*       339 <EXPANSION END>
                         340 --124:         _wake_up = E_WAKEUP_ALARM;
                         341 --line124
                         342 ..lin.17335d9e..80458c6d.0_5::
                         343 .LDWlin5:
00000028 020a            344 	mov	2,r1
0000002a c51d*           345 	br	.L53
                         346 .L51:
                         347 --125:     }
                         348 --127:     /* RTC interval wakeup */

                                                                      Page 7
                                                              C:\Users\MANGESH\AppData\Local\Temp\gh_00001h81.si
                         349 --128:     else if(u32_temp & R_STBC_WUF_INTRTCA0R)
                         350 --line128
                         351 ..lin.17335d9e..80458c6d.0_6::
                         352 .LDWlin6:
0000002c 0708            353 	mov	r7,r1
0000002e 900a            354 	shr	16,r1
00000030 890d*           355 	bnl	.L54
                         356 --129:     {
                         357 --130:         R_BSP_STDIO_Printf("ISO0 RTC interval wakeup occured (WUF = 0x%08X)\n", u32_temp);
                         358 --line130
                         359 ..lin.17335d9e..80458c6d.0_7::
                         360 .LDWlin7:
00000032 260600000000*   361 	mov	.L182,r6
                         362 	jarl	_R_BSP_STDIO_Printf,lp
                         362 <EXPANSION BEGIN>
                         362 jarl22 _R_BSP_STDIO_Printf , lp 
00000038 80ff0000*       362 <EXPANSION END>
                         363 --131:         _wake_up = E_WAKEUP_INTERVAL;
                         364 --line131
                         365 ..lin.17335d9e..80458c6d.0_8::
                         366 .LDWlin8:
0000003c 010a            367 	mov	1,r1
0000003e a515*           368 	br	.L53
                         369 .L54:
                         370 --132:     }
                         371 --133:     
                         372 --134:     /* INTP0 external pin */
                         373 --135:     else if(u32_temp & R_STBC_WUF_INTP0)
                         374 --line135
                         375 ..lin.17335d9e..80458c6d.0_9::
                         376 .LDWlin9:
00000040 0708            377 	mov	r7,r1
00000042 820a            378 	shr	2,r1
00000044 a90d*           379 	bnl	.L57
                         380 --136:     {
                         381 --137:         R_BSP_STDIO_Printf("ISO0 Ext Pin INTP%d occured (WUF = 0x%08X)\n", 0, u32_temp);
                         382 --line137
                         383 ..lin.17335d9e..80458c6d.0_10::
                         384 .LDWlin10:
00000046 0740            385 	mov	r7,r8
00000048 260600000000*   386 	mov	.L180,r6
0000004e 003a            387 	mov	0,r7
                         388 	jarl	_R_BSP_STDIO_Printf,lp
                         388 <EXPANSION BEGIN>
                         388 jarl22 _R_BSP_STDIO_Printf , lp 
00000050 80ff0000*       388 <EXPANSION END>
                         389 --138:         _wake_up = E_WAKEUP_EXPIN;
                         390 --line138
                         391 ..lin.17335d9e..80458c6d.0_11::
                         392 .LDWlin11:
00000054 030a            393 	mov	3,r1
00000056 e505*           394 	br	.L53
                         395 .L57:
                         396 --139:     }
                         397 --140:     
                         398 --141:     else
                         399 --142:     {
                         400 --143:         /* maybe debugger or some other */
                         401 --144:         if(0 != u32_temp)
                         402 --line144
                         403 ..lin.17335d9e..80458c6d.0_12::

                                                                      Page 8
                                                              C:\Users\MANGESH\AppData\Local\Temp\gh_00001h81.si
                         404 .LDWlin12:
00000058 e039            405 	cmp	zero,r7
0000005a b205*           406 	be	.L60
                         407 --145:         {
                         408 --146:             _wake_up = E_WAKEUP_OTHER;
                         409 --line146
                         410 ..lin.17335d9e..80458c6d.0_13::
                         411 .LDWlin13:
0000005c 040a            412 	mov	4,r1
0000005e a505*           413 	br	.L53
                         414 .L60:
                         415 --147:         }
                         416 --148:         else
                         417 --149:         {
                         418 --150:             _wake_up = E_WAKEUP_NONE;
                         419 --line150
                         420 ..lin.17335d9e..80458c6d.0_14::
                         421 .LDWlin14:
00000060 000a            422 	mov	0,r1
                         423 .L53:
                         424 --151:         }
                         425 --152:     }
                         426 --154:     return _wake_up;
00000062 0150            427 	mov	r1,r10
                         428 --	    .ef
                         429 .LDW41:
00000064 40063f00        430 	dispose	0,{r31},[lp]
                         431 ..lin.17335d9e..80458c6d.0_15::
                         432 .LDWlin15:
                         433 	.type	_eeStandby_CheckWakeUp,@function
                         434 	.size	_eeStandby_CheckWakeUp,.-_eeStandby_CheckWakeUp
                         435 	.align	2
                         436 .LDW51:
                         437 --__wake_up	r1	local
                         438 --_u32_temp	r7	local
                         439 --.L139	.L181	static
                         440 --.L140	.L182	static
                         441 --.L141	.L180	static
                         442 
                         443 	.section ".bss","awb"
                         444 .L138:
                         445 	.type	.L138,@object
                         446 	.size	.L138,0
                         447 	.section ".rodata","a"
                         448 .L180:--	"ISO0 Ext Pin INTP%d occured (WUF = 0x%08X)\n"
00000000 49534f30        449 	.byte	73,83,79,48
00000004 20457874        450 	.byte	32,69,120,116
00000008 2050696e        451 	.byte	32,80,105,110
0000000c 20494e54        452 	.byte	32,73,78,84
00000010 50256420        453 	.byte	80,37,100,32
00000014 6f636375        454 	.byte	111,99,99,117
00000018 72656420        455 	.byte	114,101,100,32
0000001c 28575546        456 	.byte	40,87,85,70
00000020 203d2030        457 	.byte	32,61,32,48
00000024 78253038        458 	.byte	120,37,48,56
00000028 58290a00        459 	.byte	88,41,10,0
                         460 	.type	.L180,@object
                         461 	.size	.L180,44
                         462 .L181:--	"ISO0 RTC alarm wakeup occured (WUF = 0x%08X)\n"
0000002c 49534f30        463 	.byte	73,83,79,48
00000030 20525443        464 	.byte	32,82,84,67

                                                                      Page 9
                                                              C:\Users\MANGESH\AppData\Local\Temp\gh_00001h81.si
00000034 20616c61        465 	.byte	32,97,108,97
00000038 726d2077        466 	.byte	114,109,32,119
0000003c 616b6575        467 	.byte	97,107,101,117
00000040 70206f63        468 	.byte	112,32,111,99
00000044 63757265        469 	.byte	99,117,114,101
00000048 64202857        470 	.byte	100,32,40,87
0000004c 5546203d        471 	.byte	85,70,32,61
00000050 20307825        472 	.byte	32,48,120,37
00000054 30385829        473 	.byte	48,56,88,41
00000058 0a00            474 	.byte	10,0
                         475 	.type	.L181,@object
                         476 	.size	.L181,46
                         477 .L182:--	"ISO0 RTC interval wakeup occured (WUF = 0x%08X)\n"
0000005a 49534f30        478 	.byte	73,83,79,48
0000005e 20525443        479 	.byte	32,82,84,67
00000062 20696e74        480 	.byte	32,105,110,116
00000066 65727661        481 	.byte	101,114,118,97
0000006a 6c207761        482 	.byte	108,32,119,97
0000006e 6b657570        483 	.byte	107,101,117,112
00000072 206f6363        484 	.byte	32,111,99,99
00000076 75726564        485 	.byte	117,114,101,100
0000007a 20285755        486 	.byte	32,40,87,85
0000007e 46203d20        487 	.byte	70,32,61,32
00000082 30782530        488 	.byte	48,120,37,48
00000086 3858290a        489 	.byte	56,88,41,10
0000008a 00              490 	.byte	0
                         491 	.type	.L182,@object
                         492 	.size	.L182,49
                         493 	.data
                         494 	.text
                         495 
                         496 --155: }
                         497 
                         498 --158: /***********************************************************
                         499 --159:   Function: eeStandby_Init
                         500 --160: */
                         501 --161: void eeStandby_Init(void)
                         502 	.align	2
                         503 	.align	2
                         504 	.align	2
                         505 	.align	2
                         506 ..gh.f.a.2.e.2:
                         507 	.type	..gh.f.a.2.e.2,@object
                         508 	.size	..gh.f.a.2.e.2,0
                         509 	.global	_eeStandby_Init
                         510 _eeStandby_Init:
                         511 --	    .bf
                         512 .LDW61:
                         513 --162: {
                         514 --163:     ImmediateShutdownEnable = R_FALSE;
00000068 2b0600000000*   515 	mov	_ImmediateShutdownEnable,r11
0000006e 4b070000        516 	st.b	zero,0[r11]
                         517 --164: }
                         518 --	    .ef
                         519 .LDW71:
                         520 --line164
                         521 ..lin.17335d9e..a682fc96.0_16::
                         522 .LDWlin16:
                         523 	.jumptype return
00000072 7f00            524 	jmp	[lp]
                         525 ..lin.17335d9e..a682fc96.0_17::

                                                                      Page 10
                                                              C:\Users\MANGESH\AppData\Local\Temp\gh_00001h81.si
                         526 .LDWlin17:
                         527 	.type	_eeStandby_Init,@function
                         528 	.size	_eeStandby_Init,.-_eeStandby_Init
                         529 	.align	2
                         530 .LDW81:
                         531 
                         532 	.section ".bss","awb"
                         533 .L226:
                         534 	.type	.L226,@object
                         535 	.size	.L226,0
                         536 	.global	_ImmediateShutdownEnable..G.3A.5Cvlib_v1.2E8_svn.5Capp.5Cgfx_apps.5Cd1m1_flashdash_demo.5Ctarget.5Cd1m2_mango_ghs.5Cobj.5Cstandby.
                         537 _ImmediateShutdownEnable..G.3A.5Cvlib_v1.2E8_svn.5Capp.5Cgfx_apps.5Cd1m1_flashdash_demo.5Ctarget.5Cd1m2_mango_ghs.5Cobj.5Cstandby.:
00000000 00              538 _ImmediateShutdownEnable:	.space	1
                         539 	.type	_ImmediateShutdownEnable..G.3A.5Cvlib_v1.2E8_svn.5Capp.5Cgfx_apps.5Cd1m1_flashdash_demo.5Ctarget.5Cd1m2_mango_ghs.5Cobj.5Cstandby.,@object
                         540 	.size	_ImmediateShutdownEnable..G.3A.5Cvlib_v1.2E8_svn.5Capp.5Cgfx_apps.5Cd1m1_flashdash_demo.5Ctarget.5Cd1m2_mango_ghs.5Cobj.5Cstandby.,1
                         541 	.type	_ImmediateShutdownEnable,@object
                         542 	.size	_ImmediateShutdownEnable,1
                         543 	.data
                         544 	.text
                         545 
                         546 
                         547 --167: /***********************************************************
                         548 --168:   Function: eeStandby_Processing
                         549 --169: */
                         550 --170: void eeStandby_Processing_Immediate(uint8_t unused)
                         551 	.align	2
                         552 	.align	2
                         553 	.align	2
                         554 ..gh.f.a.2.e.3:
                         555 	.type	..gh.f.a.2.e.3,@object
                         556 	.size	..gh.f.a.2.e.3,0
                         557 	.global	_eeStandby_Processing_Immediate
                         558 _eeStandby_Processing_Immediate:
00000074 80072100        559 	prepare	{r31},0
00000078 8600            560 	zxb	r6
                         561 --	    .bf
                         562 .LDW91:
                         563 --171: {
                         564 --172:     ImmediateShutdownEnable = R_TRUE;
0000007a 2b0600000000*   565 	mov	_ImmediateShutdownEnable,r11
00000080 010a            566 	mov	1,r1
00000082 4b0f0000        567 	st.b	r1,0[r11]
                         568 --173:     eeStandby_Processing();
                         569 --line173
                         570 ..lin.17335d9e..2cd196ad.0_18::
                         571 .LDWlin18:
                         572 	jarl	_eeStandby_Processing,lp
                         572 <EXPANSION BEGIN>
                         572 jarl22 _eeStandby_Processing , lp 
00000086 80ff0800*       572 <EXPANSION END>
                         573 --174: }
                         574 --	    .ef
                         575 .LDW02:
                         576 --line174
                         577 ..lin.17335d9e..2cd196ad.0_19::
                         578 .LDWlin19:
0000008a 40063f00        579 	dispose	0,{r31},[lp]
                         580 ..lin.17335d9e..2cd196ad.0_20::
                         581 .LDWlin20:
                         582 	.type	_eeStandby_Processing_Immediate,@function
                         583 	.size	_eeStandby_Processing_Immediate,.-_eeStandby_Processing_Immediate

                                                                      Page 11
                                                              C:\Users\MANGESH\AppData\Local\Temp\gh_00001h81.si
                         584 	.align	2
                         585 .LDW12:
                         586 
                         587 --_unused	r6	param
                         588 
                         589 	.data
                         590 	.text
                         591 
                         592 
                         593 --177: /***********************************************************
                         594 --178:   Function: eeStandby_Processing
                         595 --179: */
                         596 --180: void eeStandby_Processing(void)
                         597 	.align	2
                         598 	.align	2
                         599 	.align	2
                         600 ..gh.f.a.2.e.4:
                         601 	.type	..gh.f.a.2.e.4,@object
                         602 	.size	..gh.f.a.2.e.4,0
                         603 	.global	_eeStandby_Processing
                         604 _eeStandby_Processing:
0000008e 8007e100        605 	prepare	{r28,r29,r31},0
                         606 --	    .bf
                         607 .LDW22:
                         608 --181: {
                         609 --182: uint8_t b_temp = R_TRUE;
00000092 01e2            610 	mov	1,r28
                         611 --183: r_Error_t error = R_ERR_OK;
00000094 00ea            612 	mov	0,r29
                         613 --184: uint32_t u32_temp;
                         614 --186:     R_BSP_STDIO_Printf("Enter Deep stop mode with wakeup factors:\n");
00000096 260600000000*   615 	mov	.L564,r6
                         616 	jarl	_R_BSP_STDIO_Printf,lp
                         616 <EXPANSION BEGIN>
                         616 jarl22 _R_BSP_STDIO_Printf , lp 
0000009c 80ff0000*       616 <EXPANSION END>
                         617 --187:     R_BSP_STDIO_Printf(" - INTP%d\n", 0);
                         618 --line187
                         619 ..lin.17335d9e..bd932bbf.0_21::
                         620 .LDWlin21:
000000a0 260600000000*   621 	mov	.L565,r6
000000a6 003a            622 	mov	0,r7
                         623 	jarl	_R_BSP_STDIO_Printf,lp
                         623 <EXPANSION BEGIN>
                         623 jarl22 _R_BSP_STDIO_Printf , lp 
000000a8 80ff0000*       623 <EXPANSION END>
                         624 --188:     R_BSP_STDIO_Printf(" - RTC Interval 1 minute\n");
                         625 --line188
                         626 ..lin.17335d9e..bd932bbf.0_22::
                         627 .LDWlin22:
000000ac 260600000000*   628 	mov	.L562,r6
                         629 	jarl	_R_BSP_STDIO_Printf,lp
                         629 <EXPANSION BEGIN>
                         629 jarl22 _R_BSP_STDIO_Printf , lp 
000000b2 80ff0000*       629 <EXPANSION END>
                         630 --189:     R_BSP_STDIO_Printf(" - RTC Alarm (if enabled by user)\n");
                         631 --line189
                         632 ..lin.17335d9e..bd932bbf.0_23::
                         633 .LDWlin23:
000000b6 260600000000*   634 	mov	.L566,r6
                         635 	jarl	_R_BSP_STDIO_Printf,lp

                                                                      Page 12
                                                              C:\Users\MANGESH\AppData\Local\Temp\gh_00001h81.si
                         635 <EXPANSION BEGIN>
                         635 jarl22 _R_BSP_STDIO_Printf , lp 
000000bc 80ff0000*       635 <EXPANSION END>
                         636 --191:     /* make sure you set a wakeup pin that is powered on in the AWO area, otherwise
                         637 --192:        it will not wake up
                         638 --193:        enable the external input pin INTP for wakeup 
                         639 --194:     */
                         640 --195:     R_DEV_IntEnable(R_DEV_INT_P0, 1);
                         641 --line195
                         642 ..lin.17335d9e..bd932bbf.0_24::
                         643 .LDWlin24:
000000c0 0632            644 	mov	6,r6
000000c2 013a            645 	mov	1,r7
                         646 	jarl	_R_DEV_IntEnable,lp
                         646 <EXPANSION BEGIN>
                         646 jarl22 _R_DEV_IntEnable , lp 
000000c4 80ff0000*       646 <EXPANSION END>
                         647 --197:     R_BSP_STDIO_Printf("Osc disabled in deep stop: \n");
                         648 --line197
                         649 ..lin.17335d9e..bd932bbf.0_25::
                         650 .LDWlin25:
000000c8 260600000000*   651 	mov	.L567,r6
                         652 	jarl	_R_BSP_STDIO_Printf,lp
                         652 <EXPANSION BEGIN>
                         652 jarl22 _R_BSP_STDIO_Printf , lp 
000000ce 80ff0000*       652 <EXPANSION END>
                         653 --198:     R_BSP_STDIO_Printf(" - Main Osc\n");
                         654 --line198
                         655 ..lin.17335d9e..bd932bbf.0_26::
                         656 .LDWlin26:
000000d2 260600000000*   657 	mov	.L568,r6
                         658 	jarl	_R_BSP_STDIO_Printf,lp
                         658 <EXPANSION BEGIN>
                         658 jarl22 _R_BSP_STDIO_Printf , lp 
000000d8 80ff0000*       658 <EXPANSION END>
                         659 --199:     R_BSP_STDIO_Printf(" - PLL's\n");
                         660 --line199
                         661 ..lin.17335d9e..bd932bbf.0_27::
                         662 .LDWlin27:
000000dc 260600000000*   663 	mov	.L563,r6
                         664 	jarl	_R_BSP_STDIO_Printf,lp
                         664 <EXPANSION BEGIN>
                         664 jarl22 _R_BSP_STDIO_Printf , lp 
000000e2 80ff0000*       664 <EXPANSION END>
                         665 --200:     R_BSP_STDIO_Printf(" - HS Osc\n");
                         666 --line200
                         667 ..lin.17335d9e..bd932bbf.0_28::
                         668 .LDWlin28:
000000e6 260600000000*   669 	mov	.L569,r6
                         670 	jarl	_R_BSP_STDIO_Printf,lp
                         670 <EXPANSION BEGIN>
                         670 jarl22 _R_BSP_STDIO_Printf , lp 
000000ec 80ff0000*       670 <EXPANSION END>
                         671 --202:     R_BSP_STDIO_Printf("Entering DeepStop mode ... \n");
                         672 --line202
                         673 ..lin.17335d9e..bd932bbf.0_29::
                         674 .LDWlin29:
000000f0 260600000000*   675 	mov	.L570,r6
                         676 	jarl	_R_BSP_STDIO_Printf,lp
                         676 <EXPANSION BEGIN>
                         676 jarl22 _R_BSP_STDIO_Printf , lp 

                                                                      Page 13
                                                              C:\Users\MANGESH\AppData\Local\Temp\gh_00001h81.si
000000f6 80ff0000*       676 <EXPANSION END>
                         677 --204:     /* do not allow any more sound requests */
                         678 --205:     //SoundSG_Disable();
                         679 --206:     SoundPCM_Disable();
                         680 --line206
                         681 ..lin.17335d9e..bd932bbf.0_30::
                         682 .LDWlin30:
                         683 	jarl	_SoundPCM_Disable,lp
                         683 <EXPANSION BEGIN>
                         683 jarl22 _SoundPCM_Disable , lp 
000000fa 80ff0000*       683 <EXPANSION END>
                         684 --207:     //SoundSSIF_Disable();
                         685 --209:     /* when all applications are ready to sleep we can shut down */
                         686 --210:     while(b_temp) 
                         687 --line210
                         688 ..lin.17335d9e..bd932bbf.0_31::
                         689 .LDWlin31:
000000fe f505*           690 	br	.L297
                         691 .L299:
                         692 --211:     {
                         693 --212:         /* this may take some time */
                         694 --213:        // b_temp = SoundSG_IsBusy();
                         695 --214:         b_temp |= SoundPCM_IsBusy();
                         696 --line214
                         697 ..lin.17335d9e..bd932bbf.0_32::
                         698 .LDWlin32:
                         699 	jarl	_SoundPCM_IsBusy,lp
                         699 <EXPANSION BEGIN>
                         699 jarl22 _SoundPCM_IsBusy , lp 
00000100 80ff0000*       699 <EXPANSION END>
00000104 0ae1            700 	or	r10,r28
00000106 9c00            701 	zxb	r28
                         702 --215:        // b_temp |= SoundSSIF_IsBusy();
                         703 --217:         /* Allow task processing to continue to allow component shutdown */
                         704 --218:         eeTask_Processing();
                         705 --line218
                         706 ..lin.17335d9e..bd932bbf.0_33::
                         707 .LDWlin33:
                         708 	jarl	_eeTask_Processing,lp
                         708 <EXPANSION BEGIN>
                         708 jarl22 _eeTask_Processing , lp 
00000108 80ff0000*       708 <EXPANSION END>
                         709 .L297:
                         710 --line210
                         711 ..lin.17335d9e..bd932bbf.0_34::
                         712 .LDWlin34:
0000010c e0e1            713 	cmp	zero,r28
0000010e 9afd*           714 	bne	.L299
                         715 --219:     }
                         716 --222:     /* incase were using the UART */
                         717 --223: #ifdef USE_RS232_TERMINAL
                         718 --224:     R_BSP_STDIO_DeInit();
                         719 --225: #endif
                         720 --227:     __DI();
                         721 --line227
                         722 ..lin.17335d9e..bd932bbf.0_35::
                         723 .LDWlin35:
00000110 e0076001        724 	di
                         725 --228:     
                         726 --229:     /* init the TAUJ as this can still operate in the AWO area */
                         727 --230:     R_TAUJ_Init(TAUJ_UNIT);

                                                                      Page 14
                                                              C:\Users\MANGESH\AppData\Local\Temp\gh_00001h81.si
00000114 0032            728 	mov	0,r6
                         729 	jarl	_R_TAUJ_Init,lp
                         729 <EXPANSION BEGIN>
                         729 jarl22 _R_TAUJ_Init , lp 
00000116 80ff0000*       729 <EXPANSION END>
                         730 --232:     /* init the TAUB */
                         731 --233:     R_TAUB_Init(TAUB_UNIT);
                         732 --line233
                         733 ..lin.17335d9e..bd932bbf.0_36::
                         734 .LDWlin36:
0000011a 0032            735 	mov	0,r6
                         736 	jarl	_R_TAUB_Init,lp
                         736 <EXPANSION BEGIN>
                         736 jarl22 _R_TAUB_Init , lp 
0000011c 80ff0000*       736 <EXPANSION END>
                         737 --235:     
                         738 --236:     /* Freeze the output of the FOUT signal (STBC_IO_HOLD0 Port 0) using IO hold 
                         739 --237:        not much point in doing this as its a clock but shows
                         740 --238:        that it works oh and dont forget to release it when you wake up (i.e R_STBC_SetIoHold(0))
                         741 --239:     
                         742 --240:     R_STBC_SetIoHold(STBC_IO_HOLD0);
                         743 --241:     */
                         744 --243:     /* we will allow the following wake up events when we go to deep stop
                         745 --244:         Debugger
                         746 --245:         INTP0 pin 
                         747 --246:         RTCA0 Alarm  
                         748 --247:         RTCA0 interval   
                         749 --248:     */
                         750 --249:     R_STBC_EnableWakeUpFactor(  R_STBC_WUL_INTDCUTDI_BIT | R_STBC_WUL_INTP0_BIT |
                         751 --line249
                         752 ..lin.17335d9e..bd932bbf.0_37::
                         753 .LDWlin37:
00000120 803603c0        754 	ori	49155,zero,r6
                         755 	jarl	_R_STBC_EnableWakeUpFactor,lp
                         755 <EXPANSION BEGIN>
                         755 jarl22 _R_STBC_EnableWakeUpFactor , lp 
00000124 80ff0000*       755 <EXPANSION END>
                         756 --250:                                 R_STBC_WUL_INTRTCA0AL_BIT |R_STBC_WUL_INTRTCA0R_BIT);
                         757 --251:    
                         758 --253:     /* if the RTC clock acceleration option is selected then enable the MOSC in standby */
                         759 --254:     u32_temp = R_DEV_ClkFrequencyHz(R_DEV_CKS_RTC);
                         760 --line254
                         761 ..lin.17335d9e..bd932bbf.0_38::
                         762 .LDWlin38:
00000128 0232            763 	mov	2,r6
                         764 	jarl	_R_DEV_ClkFrequencyHz,lp
                         764 <EXPANSION BEGIN>
                         764 jarl22 _R_DEV_ClkFrequencyHz , lp 
0000012a 80ff0000*       764 <EXPANSION END>
0000012e 0a08            765 	mov	r10,r1
                         766 --255:     if (u32_temp == EE_CLK_SOSC_FRQ)
                         767 --line255
                         768 ..lin.17335d9e..bd932bbf.0_39::
                         769 .LDWlin39:
00000130 01060080        770 	addi	-32768,r1,zero
00000134 fa05*           771 	bne	.L300
                         772 --256:     {
                         773 --257:         /* RTC clock is using the subosc so stop the MOSC in standby */
                         774 --258:          error += R_DEV_SetGenStopMask(R_DEV_MOSC, STBC_DISABLE_DEEPSTOP);
                         775 --line258
                         776 ..lin.17335d9e..bd932bbf.0_40::

                                                                      Page 15
                                                              C:\Users\MANGESH\AppData\Local\Temp\gh_00001h81.si
                         777 .LDWlin40:
00000136 0432            778 	mov	4,r6
00000138 003a            779 	mov	0,r7
                         780 	jarl	_R_DEV_SetGenStopMask,lp
                         780 <EXPANSION BEGIN>
                         780 jarl22 _R_DEV_SetGenStopMask , lp 
0000013a 80ff0000*       780 <EXPANSION END>
0000013e cae9            781 	add	r10,r29
00000140 e505*           782 	br	.L302
                         783 .L300:
                         784 --259:     }
                         785 --260:     else
                         786 --261:     {
                         787 --262:         /* RTC clock is using the master osc so enable the MOSC in standby */
                         788 --263:         error += R_DEV_SetGenStopMask(R_DEV_MOSC, STBC_ENABLE_DEEPSTOP);
                         789 --line263
                         790 ..lin.17335d9e..bd932bbf.0_41::
                         791 .LDWlin41:
00000142 0432            792 	mov	4,r6
00000144 013a            793 	mov	1,r7
                         794 	jarl	_R_DEV_SetGenStopMask,lp
                         794 <EXPANSION BEGIN>
                         794 jarl22 _R_DEV_SetGenStopMask , lp 
00000146 80ff0000*       794 <EXPANSION END>
0000014a cae9            795 	add	r10,r29
                         796 .L302:
                         797 --264:     }
                         798 --266:     /* note:
                         799 --267:         The PLL is not stopped before entering Standby this is because during
                         800 --268:         BSP init the PLL's are stopped and restarted again.  If you stop the PLL 
                         801 --269:         here then anyone that uses the PLL (i.e. CPU) needs to be switched to 
                         802 --270:         another clock before the PLL is stopped	otherwise the STBC will not receive
                         803 --271:         an acknowledge from it.
                         804 --272:         If the PLL is not stopped before it enters standby it may report incorrect
                         805 --273:         status after wakeup, PLL must be stopped and restarted after wake up then.
                         806 --274:         this is done in the BSP currently
                         807 --275:     */
                         808 --277:     /* clocks operating in standby */
                         809 --278:     /* sub osc - always operating */
                         810 --280:     /* clocks stopped operating in standby */
                         811 --281:     error += R_DEV_SetGenStopMask(R_DEV_HS_RING, STBC_DISABLE_DEEPSTOP);
                         812 --line281
                         813 ..lin.17335d9e..bd932bbf.0_42::
                         814 .LDWlin42:
0000014c 0332            815 	mov	3,r6
0000014e 003a            816 	mov	0,r7
                         817 	jarl	_R_DEV_SetGenStopMask,lp
                         817 <EXPANSION BEGIN>
                         817 jarl22 _R_DEV_SetGenStopMask , lp 
00000150 80ff0000*       817 <EXPANSION END>
00000154 cae9            818 	add	r10,r29
                         819 --282:     /* PLL0, PLL1 and 2 are configured to stop in the BSP */
                         820 --284:     /* check all the clocks have stopped */
                         821 --285:     if(R_ERR_OK == error)
                         822 --line285
                         823 ..lin.17335d9e..bd932bbf.0_43::
                         824 .LDWlin43:
00000156 e0e9            825 	cmp	zero,r29
00000158 a205*           826 	be	.L305
                         827 .L308:
                         828 --286:     {

                                                                      Page 16
                                                              C:\Users\MANGESH\AppData\Local\Temp\gh_00001h81.si
                         829 --287:         /* do nothing */        
                         830 --288:     }
                         831 --289:     else
                         832 --290:     {
                         833 --291:         /* error something went wrong */
                         834 --292:         while(1);  
                         835 --line292
                         836 ..lin.17335d9e..bd932bbf.0_44::
                         837 .LDWlin44:
0000015a 8505*           838 	br	.L308
                         839 .L305:
                         840 --293:     }
                         841 --295:     /* ensure the clk is enabled to the RTC in standby */
                         842 --296:     eePclk_SetStandbyMask();
                         843 --line296
                         844 ..lin.17335d9e..bd932bbf.0_45::
                         845 .LDWlin45:
                         846 	jarl	_eePclk_SetStandbyMask,lp
                         846 <EXPANSION BEGIN>
                         846 jarl22 _eePclk_SetStandbyMask , lp 
0000015c bfffa4fe*       846 <EXPANSION END>
                         847 --298:     /* enter deep stop lowest current possible ISO0 */
                         848 --299:     R_STBC_EnableStandby();
                         849 --line299
                         850 ..lin.17335d9e..bd932bbf.0_46::
                         851 .LDWlin46:
                         852 	jarl	_R_STBC_EnableStandby,lp
                         852 <EXPANSION BEGIN>
                         852 jarl22 _R_STBC_EnableStandby , lp 
00000160 80ff0000*       852 <EXPANSION END>
                         853 --300:    
                         854 --301:     /* After wakeup, we start at reset vector, BUT 
                         855 --302:      if we end up here - deep stop entry did not succeed */
                         856 --303:     while(1)
                         857 .L311:
                         858 --304:     {
                         859 --305:         asm("nop");
                         860 --line305
                         861 ..lin.17335d9e..bd932bbf.0_47::
                         862 .LDWlin47:
                         863 ..gh.beginasm.5:
                         864 	.type	..gh.beginasm.5,@object
                         865 	.size	..gh.beginasm.5,0
00000164 0000            866 nop
                         867 
                         868 ..gh.endasm.6:
                         869 	.type	..gh.endasm.6,@object
                         870 	.size	..gh.endasm.6,0
                         871 --line306
                         872 ..lin.17335d9e..bd932bbf.0_48::
                         873 .LDWlin48:
00000166 f5fd*           874 	br	.L311
                         875 --	    .ef
                         876 .LDW32:
                         877 ..lin.17335d9e..bd932bbf.0_49::
                         878 .LDWlin49:
                         879 	.type	_eeStandby_Processing,@function
                         880 	.size	_eeStandby_Processing,.-_eeStandby_Processing
                         881 	.align	2
                         882 .LDW42:
                         883 --_b_temp	r28	local

                                                                      Page 17
                                                              C:\Users\MANGESH\AppData\Local\Temp\gh_00001h81.si
                         884 --_error	r29	local
                         885 --_u32_temp	r1	local
                         886 --.L479	.L564	static
                         887 --.L480	.L565	static
                         888 --.L481	.L562	static
                         889 --.L482	.L566	static
                         890 --.L483	.L567	static
                         891 --.L484	.L568	static
                         892 --.L485	.L563	static
                         893 --.L486	.L569	static
                         894 --.L487	.L570	static
                         895 
                         896 	.section ".bss","awb"
                         897 .L478:
                         898 	.type	.L478,@object
                         899 	.size	.L478,0
                         900 	.section ".rodata","a"
                         901 .L562:--	" - RTC Interval 1 minute\n"
0000008b 202d2052        902 	.byte	32,45,32,82
0000008f 54432049        903 	.byte	84,67,32,73
00000093 6e746572        904 	.byte	110,116,101,114
00000097 76616c20        905 	.byte	118,97,108,32
0000009b 31206d69        906 	.byte	49,32,109,105
0000009f 6e757465        907 	.byte	110,117,116,101
000000a3 0a00            908 	.byte	10,0
                         909 	.type	.L562,@object
                         910 	.size	.L562,26
                         911 .L563:--	" - PLL's\n"
000000a5 202d2050        912 	.byte	32,45,32,80
000000a9 4c4c2773        913 	.byte	76,76,39,115
000000ad 0a00            914 	.byte	10,0
                         915 	.type	.L563,@object
                         916 	.size	.L563,10
                         917 .L564:--	"Enter Deep stop mode with wakeup factors:\n"
000000af 456e7465        918 	.byte	69,110,116,101
000000b3 72204465        919 	.byte	114,32,68,101
000000b7 65702073        920 	.byte	101,112,32,115
000000bb 746f7020        921 	.byte	116,111,112,32
000000bf 6d6f6465        922 	.byte	109,111,100,101
000000c3 20776974        923 	.byte	32,119,105,116
000000c7 68207761        924 	.byte	104,32,119,97
000000cb 6b657570        925 	.byte	107,101,117,112
000000cf 20666163        926 	.byte	32,102,97,99
000000d3 746f7273        927 	.byte	116,111,114,115
000000d7 3a0a            928 	.byte	58,10
000000d9 00              929 	.byte	0
                         930 	.type	.L564,@object
                         931 	.size	.L564,43
                         932 .L565:--	" - INTP%d\n"
000000da 202d2049        933 	.byte	32,45,32,73
000000de 4e545025        934 	.byte	78,84,80,37
000000e2 640a            935 	.byte	100,10
000000e4 00              936 	.byte	0
                         937 	.type	.L565,@object
                         938 	.size	.L565,11
                         939 .L566:--	" - RTC Alarm (if enabled by user)\n"
000000e5 202d2052        940 	.byte	32,45,32,82
000000e9 54432041        941 	.byte	84,67,32,65
000000ed 6c61726d        942 	.byte	108,97,114,109
000000f1 20286966        943 	.byte	32,40,105,102
000000f5 20656e61        944 	.byte	32,101,110,97

                                                                      Page 18
                                                              C:\Users\MANGESH\AppData\Local\Temp\gh_00001h81.si
000000f9 626c6564        945 	.byte	98,108,101,100
000000fd 20627920        946 	.byte	32,98,121,32
00000101 75736572        947 	.byte	117,115,101,114
00000105 290a            948 	.byte	41,10
00000107 00              949 	.byte	0
                         950 	.type	.L566,@object
                         951 	.size	.L566,35
                         952 .L567:--	"Osc disabled in deep stop: \n"
00000108 4f736320        953 	.byte	79,115,99,32
0000010c 64697361        954 	.byte	100,105,115,97
00000110 626c6564        955 	.byte	98,108,101,100
00000114 20696e20        956 	.byte	32,105,110,32
00000118 64656570        957 	.byte	100,101,101,112
0000011c 2073746f        958 	.byte	32,115,116,111
00000120 703a200a        959 	.byte	112,58,32,10
00000124 00              960 	.byte	0
                         961 	.type	.L567,@object
                         962 	.size	.L567,29
                         963 .L568:--	" - Main Osc\n"
00000125 202d204d        964 	.byte	32,45,32,77
00000129 61696e20        965 	.byte	97,105,110,32
0000012d 4f73630a        966 	.byte	79,115,99,10
00000131 00              967 	.byte	0
                         968 	.type	.L568,@object
                         969 	.size	.L568,13
                         970 .L569:--	" - HS Osc\n"
00000132 202d2048        971 	.byte	32,45,32,72
00000136 53204f73        972 	.byte	83,32,79,115
0000013a 630a            973 	.byte	99,10
0000013c 00              974 	.byte	0
                         975 	.type	.L569,@object
                         976 	.size	.L569,11
                         977 .L570:--	"Entering DeepStop mode ... \n"
0000013d 456e7465        978 	.byte	69,110,116,101
00000141 72696e67        979 	.byte	114,105,110,103
00000145 20446565        980 	.byte	32,68,101,101
00000149 7053746f        981 	.byte	112,83,116,111
0000014d 70206d6f        982 	.byte	112,32,109,111
00000151 6465202e        983 	.byte	100,101,32,46
00000155 2e2e200a        984 	.byte	46,46,32,10
00000159 00              985 	.byte	0
                         986 	.type	.L570,@object
                         987 	.size	.L570,29
                         988 	.data
                         989 	.text
                         990 
                         991 --306:     } 
                         992 --307: }
                         993 	.align	2
                         994 --_ImmediateShutdownEnable	_ImmediateShutdownEnable	static
                         995 
                         996 	.data
                         997 	.ghsnote version,19
                         998 	.ghsnote tools,8195
                         999 	.ghsnote options,656
                        1000 	.text
                        1001 	.align	2
                        1002 ..eof.G.3A.5Cvlib_v1.2E8_svn.5Capp.5Cgfx_apps.5Cd1m1_flashdash_demo.5Ctarget.5Cd1m2_mango_ghs.5Cobj.5Cstandby...47.3A.5Cvlib_v1.2E8_svn.5Capp.5Cgfx_apps.5Cd1m1_flashdash_demo.5Ctarget.5Cd1m2_mango_ghs..5C39B92B..0::
                        1003 .rh850_flags REGMODE22,DATA_ALIGN8,GP_FIX,EP_NONFIX,TP_FIX,REG2_RESERVE,G3M,SDA_EXTRA_REGS_0
