                                                                      Page 1
                                                              C:\Users\MANGESH\AppData\Local\Temp\gh_00007l41.si
Command Line: C:\ghs\comp_201715\ease850.exe -w -elf -b0 -I..\..\..\..\..\app\common\dhd -I..\..\..\..\..\app\gfx_apps\d1m1_flashdash_demo\res -I..\..\..\..\..\app\gfx_apps\d1m1_flashdash_demo\src -I..\..\..\..\..\app\gfx_apps\d1m1_flashdash_demo\src\images -I..\..\..\..\..\app\gfx_apps\d1m1_flashdash_demo\target\d1m2_mango_ghs -I..\..\..\..\..\app\gfx_apps\d1m1_flashdash_demo\target\d1m2_mango_ghs\config -I..\..\..\..\..\bsp\board\\config -I..\..\..\..\..\bsp\board\\src\gfx -I..\..\..\..\..\bsp\board\\src\hmi -I..\..\..\..\..\bsp\board\\src\stdio -I..\..\..\..\..\bsp\board\d1mx_mango\config -I..\..\..\..\..\bsp\board\d1mx_mango\src -I..\..\..\..\..\bsp\board\d1mx_mango\src\gfx -I..\..\..\..\..\bsp\board\d1mx_mango\src\hmi -I..\..\..\..\..\bsp\board\d1mx_mango\src\stdio -I..\..\..\..\..\bsp\gfx\lib -I..\..\..\..\..\bsp\gfx\src -I..\..\..\..\..\bsp\hmi\lib -I..\..\..\..\..\bsp\hmi\src -I..\..\..\..\..\bsp\lib -I..\..\..\..\..\bsp\stdio\lib -I..\..\..\..\..\bsp\stdio\src -I..\..\..\..\..\cdi\lib -I..\..\..\..\..\cdi\src -I..\..\..\..\..\compiler\rh850_ghs\inc -I..\..\..\..\..\device\d1mx\lib -I..\..\..\..\..\device\d1mx\macro_cfg -I..\..\..\..\..\device\d1mx\src\dev -I..\..\..\..\..\device\d1mx\src\dhd -I..\..\..\..\..\device\d1mx\src\jcua -I..\..\..\..\..\device\d1mx\src\rh850_ghs -I..\..\..\..\..\device\d1mx\src\vowe -I..\..\..\..\..\device\d1x_common\macro_cfg -I..\..\..\..\..\device\d1x_common\src\csisw -I..\..\..\..\..\device\d1x_common\src\dev -I..\..\..\..\..\device\d1x_common\src\gfxbus -I..\..\..\..\..\device\d1x_common\src\gpio -I..\..\..\..\..\device\d1x_common\src\ostm -I..\..\..\..\..\device\d1x_common\src\pbg -I..\..\..\..\..\device\d1x_common\src\riic -I..\..\..\..\..\device\d1x_common\src\sfma -I..\..\..\..\..\device\d1x_common\src\spea -I..\..\..\..\..\device\d1x_common\src\tauj -I..\..\..\..\..\device\d1x_common\src\tick -I..\..\..\..\..\device\d1x_common\src\vdce -I..\..\..\..\..\device\d1x_common\src\wm -I..\..\..\..\..\device\d1x_common\src\dma -I..\..\..\..\..\device\d1x_common\src\g3dma -I..\..\..\..\..\device\d1x_common\src\xbus -I..\..\..\..\..\device\d1x_common\src\pcmp -I..\..\..\..\..\device\d1x_common\src\taub -I..\..\..\..\..\device\lib -I..\..\..\..\..\macro\bus\pbg\lib -I..\..\..\..\..\macro\bus\pbg\src -I..\..\..\..\..\macro\csi\csisw\lib -I..\..\..\..\..\macro\csi\csisw\src -I..\..\..\..\..\macro\dma\dma\lib -I..\..\..\..\..\macro\dma\dma\src -I..\..\..\..\..\macro\dma\g3dma\lib -I..\..\..\..\..\macro\dma\g3dma\src -I..\..\..\..\..\macro\drw2d\lib -I..\..\..\..\..\macro\drw2d\platform\davehd -I..\..\..\..\..\macro\drw2d\platform\os\no_os -I..\..\..\..\..\macro\drw2d\src -I..\..\..\..\..\macro\flashc\sfcdb\lib -I..\..\..\..\..\macro\flashc\sfcdb\src -I..\..\..\..\..\macro\flashc\sfma\lib -I..\..\..\..\..\macro\flashc\sfma\src -I..\..\..\..\..\macro\gfxbus\lib -I..\..\..\..\..\macro\gfxbus\src -I..\..\..\..\..\macro\gfxbus\xbus\lib -I..\..\..\..\..\macro\gfxbus\xbus\src -I..\..\..\..\..\macro\gpio\lib -I..\..\..\..\..\macro\gpio\src -I..\..\..\..\..\macro\gpu\davehd\common\inc -I..\..\..\..\..\macro\gpu\davehd\common\inc\platform -I..\..\..\..\..\macro\gpu\davehd\common\inc\platform\d1mx -I..\..\..\..\..\macro\gpu\davehd\kernel\inc -I..\..\..\..\..\macro\gpu\davehd\kernel\platform\d1mx -I..\..\..\..\..\macro\gpu\davehd\kernel\platform\d1mx\bridge -I..\..\..\..\..\macro\gpu\davehd\kernel\platform\ree -I..\..\..\..\..\macro\gpu\davehd\kernel\src -I..\..\..\..\..\macro\gpu\davehd\user\inc -I..\..\..\..\..\macro\gpu\davehd\user\platform\d1mx\no_os -I..\..\..\..\..\macro\gpu\davehd\user\src -I..\..\..\..\..\macro\gpu\jcua\lib -I..\..\..\..\..\macro\gpu\jcua\src -I..\..\..\..\..\macro\i2c\riic\lib -I..\..\..\..\..\macro\i2c\riic\src -I..\..\..\..\..\macro\pwm\pcmp\lib -I..\..\..\..\..\macro\pwm\pcmp\src -I..\..\..\..\..\macro\tick\lib -I..\..\..\..\..\macro\tick\src -I..\..\..\..\..\macro\timer\ostm\lib -I..\..\..\..\..\macro\timer\ostm\src -I..\..\..\..\..\macro\timer\tauj\lib -I..\..\..\..\..\macro\timer\tauj\src -I..\..\..\..\..\macro\timer\taub\lib -I..\..\..\..\..\macro\timer\taub\src -I..\..\..\..\..\macro\vdce\lib -I..\..\..\..\..\macro\vdce\src -I..\..\..\..\..\macro\vo\ddb\lib -I..\..\..\..\..\macro\vo\ddb\src -I..\..\..\..\..\macro\vo\spea\lib -I..\..\..\..\..\macro\vo\spea\src -I..\..\..\..\..\macro\vo\vowe\lib -I..\..\..\..\..\macro\vo\vowe\src -I..\..\..\..\..\macro\wm\lib -I..\..\..\..\..\macro\wm\src -I..\..\..\..\..\middleware\gfxutils\lib -I..\..\..\..\..\middleware\gfxutils\src -I..\..\..\..\..\device\d1mx\macro_cfg\csisw -I..\..\..\..\..\device\d1mx\macro_cfg\davehd -I..\..\..\..\..\device\d1mx\macro_cfg\ddb -I..\..\..\..\..\device\d1mx\macro_cfg\drw2d -I..\..\..\..\..\device\d1mx\macro_cfg\gfxbus -I..\..\..\..\..\device\d1mx\macro_cfg\gpio -I..\..\..\..\..\device\d1mx\macro_cfg\hypb -I..\..\..\..\..\device\d1mx\macro_cfg\hypdb -I..\..\..\..\..\device\d1mx\macro_cfg\jcua -I..\..\..\..\..\device\d1mx\macro_cfg\nfmabare -I..\..\..\..\..\device\d1mx\macro_cfg\octa -I..\..\..\..\..\device\d1mx\macro_cfg\octacdb -I..\..\..\..\..\device\d1mx\macro_cfg\ostm -I..\..\..\..\..\device\d1mx\macro_cfg\pbg -I..\..\..\..\..\device\d1mx\macro_cfg\riic -I..\..\..\..\..\device\d1mx\macro_cfg\sfcdb -I..\..\..\..\..\device\d1mx\macro_cfg\sfma -I..\..\..\..\..\device\d1mx\macro_cfg\spea -I..\..\..\..\..\device\d1mx\macro_cfg\tauj -I..\..\..\..\..\device\d1mx\macro_cfg\tick -I..\..\..\..\..\device\d1mx\macro_cfg\vdce -I..\..\..\..\..\device\d1mx\macro_cfg\vowe -I..\..\..\..\..\device\d1mx\macro_cfg\wm -I..\..\..\..\..\device\d1mx\macro_cfg\xbus -I..\..\..\..\..\device\d1x_common\macro_cfg\csisw -I..\..\..\..\..\device\d1x_common\macro_cfg\davehd -I..\..\..\..\..\device\d1x_common\macro_cfg\ddb -I..\..\..\..\..\device\d1x_common\macro_cfg\drw2d -I..\..\..\..\..\device\d1x_common\macro_cfg\gfxbus -I..\..\..\..\..\device\d1x_common\macro_cfg\gpio -I..\..\..\..\..\device\d1x_common\macro_cfg\hypb -I..\..\..\..\..\device\d1x_common\macro_cfg\hypdb -I..\..\..\..\..\device\d1x_common\macro_cfg\jcua -I..\..\..\..\..\device\d1x_common\macro_cfg\nfmabare -I..\..\..\..\..\device\d1x_common\macro_cfg\octa -I..\..\..\..\..\device\d1x_common\macro_cfg\octacdb -I..\..\..\..\..\device\d1x_common\macro_cfg\ostm -I..\..\..\..\..\device\d1x_common\macro_cfg\pbg -I..\..\..\..\..\device\d1x_common\macro_cfg\riic -I..\..\..\..\..\device\d1x_common\macro_cfg\sfcdb -I..\..\..\..\..\device\d1x_common\macro_cfg\sfma -I..\..\..\..\..\device\d1x_common\macro_cfg\spea -I..\..\..\..\..\device\d1x_common\macro_cfg\tauj -I..\..\..\..\..\device\d1x_common\macro_cfg\tick -I..\..\..\..\..\device\d1x_common\macro_cfg\vdce -I..\..\..\..\..\device\d1x_common\macro_cfg\vowe -I..\..\..\..\..\device\d1x_common\macro_cfg\wm -I..\..\..\..\..\device\d1x_common\macro_cfg\xbus -I..\..\..\..\..\app\gfx_apps\d1m1_flashdash_demo\src\TEXT_MY -IC:\ghs\comp_201715\lib\rh850_22 -cg_underscore -cpu=rh850g3m -no_v850_simd -nomacro -patch_dbo=G:\vlib_v1.8_svn\app\gfx_apps\d1m1_flashdash_demo\target\d1m2_mango_ghs\obj\util.dbo -source=util.c -o .\obj\gh_00007l41.o -list=.\obj\util.lst C:\Users\MANGESH\AppData\Local\Temp\gh_00007l41.si 
Original File: C:\Users\MANGESH\AppData\Local\Temp\gh_00007l41.si
Source File: util.c
Directory: G:\vlib_v1.8_svn\app\gfx_apps\d1m1_flashdash_demo\target\d1m2_mango_ghs
Host OS: Windows 7 Service Pack 1
EASE: Copyright (C) 1983-2016 Green Hills Software.  All Rights Reserved.
Release: MULTI v800-v2017.1.5-comp-P04
Custom String: TOOLS-28024 unreached assembly routines deleted by linker
Build Directory: [Directory] BTOWINBOX:c:/build_2017_1_bto/2017-10-04.2100-2017_1_bto/win32-comp-ecom
Revision: [VCInfo] http://toolsvc/branches/release-branch-2017-1-bto/src@603992 (built by build)
Revision Date: Thu Oct 05 10:11:26 2017

Release Date: Tue Oct 10 02:48:58 2017

                           1 --Driver Command: ccv850 -c -MD -I..\..\..\..\..\app\common\dhd
                           2 --		-I..\..\..\..\..\app\gfx_apps\d1m1_flashdash_demo\res
                           3 --		-I..\..\..\..\..\app\gfx_apps\d1m1_flashdash_demo\src
                           4 --		-I..\..\..\..\..\app\gfx_apps\d1m1_flashdash_demo\src\images
                           5 --		-I..\..\..\..\..\app\gfx_apps\d1m1_flashdash_demo\target\d1m2_mango_ghs
                           6 --		-I..\..\..\..\..\app\gfx_apps\d1m1_flashdash_demo\target\d1m2_mango_ghs\config
                           7 --		-I..\..\..\..\..\bsp\board\\config
                           8 --		-I..\..\..\..\..\bsp\board\\src\gfx
                           9 --		-I..\..\..\..\..\bsp\board\\src\hmi
                          10 --		-I..\..\..\..\..\bsp\board\\src\stdio
                          11 --		-I..\..\..\..\..\bsp\board\d1mx_mango\config
                          12 --		-I..\..\..\..\..\bsp\board\d1mx_mango\src
                          13 --		-I..\..\..\..\..\bsp\board\d1mx_mango\src\gfx
                          14 --		-I..\..\..\..\..\bsp\board\d1mx_mango\src\hmi
                          15 --		-I..\..\..\..\..\bsp\board\d1mx_mango\src\stdio
                          16 --		-I..\..\..\..\..\bsp\gfx\lib -I..\..\..\..\..\bsp\gfx\src
                          17 --		-I..\..\..\..\..\bsp\hmi\lib -I..\..\..\..\..\bsp\hmi\src
                          18 --		-I..\..\..\..\..\bsp\lib -I..\..\..\..\..\bsp\stdio\lib
                          19 --		-I..\..\..\..\..\bsp\stdio\src -I..\..\..\..\..\cdi\lib
                          20 --		-I..\..\..\..\..\cdi\src -I..\..\..\..\..\compiler\rh850_ghs\inc
                          21 --		-I..\..\..\..\..\device\d1mx\lib
                          22 --		-I..\..\..\..\..\device\d1mx\macro_cfg
                          23 --		-I..\..\..\..\..\device\d1mx\src\dev
                          24 --		-I..\..\..\..\..\device\d1mx\src\dhd
                          25 --		-I..\..\..\..\..\device\d1mx\src\jcua
                          26 --		-I..\..\..\..\..\device\d1mx\src\rh850_ghs
                          27 --		-I..\..\..\..\..\device\d1mx\src\vowe
                          28 --		-I..\..\..\..\..\device\d1x_common\macro_cfg
                          29 --		-I..\..\..\..\..\device\d1x_common\src\csisw
                          30 --		-I..\..\..\..\..\device\d1x_common\src\dev
                          31 --		-I..\..\..\..\..\device\d1x_common\src\gfxbus
                          32 --		-I..\..\..\..\..\device\d1x_common\src\gpio
                          33 --		-I..\..\..\..\..\device\d1x_common\src\ostm
                          34 --		-I..\..\..\..\..\device\d1x_common\src\pbg
                          35 --		-I..\..\..\..\..\device\d1x_common\src\riic
                          36 --		-I..\..\..\..\..\device\d1x_common\src\sfma
                          37 --		-I..\..\..\..\..\device\d1x_common\src\spea
                          38 --		-I..\..\..\..\..\device\d1x_common\src\tauj
                          39 --		-I..\..\..\..\..\device\d1x_common\src\tick
                          40 --		-I..\..\..\..\..\device\d1x_common\src\vdce
                          41 --		-I..\..\..\..\..\device\d1x_common\src\wm
                          42 --		-I..\..\..\..\..\device\d1x_common\src\dma
                          43 --		-I..\..\..\..\..\device\d1x_common\src\g3dma
                          44 --		-I..\..\..\..\..\device\d1x_common\src\xbus
                          45 --		-I..\..\..\..\..\device\d1x_common\src\pcmp
                          46 --		-I..\..\..\..\..\device\d1x_common\src\taub
                          47 --		-I..\..\..\..\..\device\lib -I..\..\..\..\..\macro\bus\pbg\lib
                          48 --		-I..\..\..\..\..\macro\bus\pbg\src
                          49 --		-I..\..\..\..\..\macro\csi\csisw\lib

                                                                      Page 2
                                                              C:\Users\MANGESH\AppData\Local\Temp\gh_00007l41.si
                          50 --		-I..\..\..\..\..\macro\csi\csisw\src
                          51 --		-I..\..\..\..\..\macro\dma\dma\lib
                          52 --		-I..\..\..\..\..\macro\dma\dma\src
                          53 --		-I..\..\..\..\..\macro\dma\g3dma\lib
                          54 --		-I..\..\..\..\..\macro\dma\g3dma\src
                          55 --		-I..\..\..\..\..\macro\drw2d\lib
                          56 --		-I..\..\..\..\..\macro\drw2d\platform\davehd
                          57 --		-I..\..\..\..\..\macro\drw2d\platform\os\no_os
                          58 --		-I..\..\..\..\..\macro\drw2d\src
                          59 --		-I..\..\..\..\..\macro\flashc\sfcdb\lib
                          60 --		-I..\..\..\..\..\macro\flashc\sfcdb\src
                          61 --		-I..\..\..\..\..\macro\flashc\sfma\lib
                          62 --		-I..\..\..\..\..\macro\flashc\sfma\src
                          63 --		-I..\..\..\..\..\macro\gfxbus\lib
                          64 --		-I..\..\..\..\..\macro\gfxbus\src
                          65 --		-I..\..\..\..\..\macro\gfxbus\xbus\lib
                          66 --		-I..\..\..\..\..\macro\gfxbus\xbus\src
                          67 --		-I..\..\..\..\..\macro\gpio\lib -I..\..\..\..\..\macro\gpio\src
                          68 --		-I..\..\..\..\..\macro\gpu\davehd\common\inc
                          69 --		-I..\..\..\..\..\macro\gpu\davehd\common\inc\platform
                          70 --		-I..\..\..\..\..\macro\gpu\davehd\common\inc\platform\d1mx
                          71 --		-I..\..\..\..\..\macro\gpu\davehd\kernel\inc
                          72 --		-I..\..\..\..\..\macro\gpu\davehd\kernel\platform\d1mx
                          73 --		-I..\..\..\..\..\macro\gpu\davehd\kernel\platform\d1mx\bridge
                          74 --		-I..\..\..\..\..\macro\gpu\davehd\kernel\platform\ree
                          75 --		-I..\..\..\..\..\macro\gpu\davehd\kernel\src
                          76 --		-I..\..\..\..\..\macro\gpu\davehd\user\inc
                          77 --		-I..\..\..\..\..\macro\gpu\davehd\user\platform\d1mx\no_os
                          78 --		-I..\..\..\..\..\macro\gpu\davehd\user\src
                          79 --		-I..\..\..\..\..\macro\gpu\jcua\lib
                          80 --		-I..\..\..\..\..\macro\gpu\jcua\src
                          81 --		-I..\..\..\..\..\macro\i2c\riic\lib
                          82 --		-I..\..\..\..\..\macro\i2c\riic\src
                          83 --		-I..\..\..\..\..\macro\pwm\pcmp\lib
                          84 --		-I..\..\..\..\..\macro\pwm\pcmp\src
                          85 --		-I..\..\..\..\..\macro\tick\lib -I..\..\..\..\..\macro\tick\src
                          86 --		-I..\..\..\..\..\macro\timer\ostm\lib
                          87 --		-I..\..\..\..\..\macro\timer\ostm\src
                          88 --		-I..\..\..\..\..\macro\timer\tauj\lib
                          89 --		-I..\..\..\..\..\macro\timer\tauj\src
                          90 --		-I..\..\..\..\..\macro\timer\taub\lib
                          91 --		-I..\..\..\..\..\macro\timer\taub\src
                          92 --		-I..\..\..\..\..\macro\vdce\lib -I..\..\..\..\..\macro\vdce\src
                          93 --		-I..\..\..\..\..\macro\vo\ddb\lib
                          94 --		-I..\..\..\..\..\macro\vo\ddb\src
                          95 --		-I..\..\..\..\..\macro\vo\spea\lib
                          96 --		-I..\..\..\..\..\macro\vo\spea\src
                          97 --		-I..\..\..\..\..\macro\vo\vowe\lib
                          98 --		-I..\..\..\..\..\macro\vo\vowe\src -I..\..\..\..\..\macro\wm\lib
                          99 --		-I..\..\..\..\..\macro\wm\src
                         100 --		-I..\..\..\..\..\middleware\gfxutils\lib
                         101 --		-I..\..\..\..\..\middleware\gfxutils\src
                         102 --		-I..\..\..\..\..\device\d1mx\macro_cfg\csisw
                         103 --		-I..\..\..\..\..\device\d1mx\macro_cfg\davehd
                         104 --		-I..\..\..\..\..\device\d1mx\macro_cfg\ddb
                         105 --		-I..\..\..\..\..\device\d1mx\macro_cfg\drw2d
                         106 --		-I..\..\..\..\..\device\d1mx\macro_cfg\gfxbus
                         107 --		-I..\..\..\..\..\device\d1mx\macro_cfg\gpio
                         108 --		-I..\..\..\..\..\device\d1mx\macro_cfg\hypb
                         109 --		-I..\..\..\..\..\device\d1mx\macro_cfg\hypdb
                         110 --		-I..\..\..\..\..\device\d1mx\macro_cfg\jcua

                                                                      Page 3
                                                              C:\Users\MANGESH\AppData\Local\Temp\gh_00007l41.si
                         111 --		-I..\..\..\..\..\device\d1mx\macro_cfg\nfmabare
                         112 --		-I..\..\..\..\..\device\d1mx\macro_cfg\octa
                         113 --		-I..\..\..\..\..\device\d1mx\macro_cfg\octacdb
                         114 --		-I..\..\..\..\..\device\d1mx\macro_cfg\ostm
                         115 --		-I..\..\..\..\..\device\d1mx\macro_cfg\pbg
                         116 --		-I..\..\..\..\..\device\d1mx\macro_cfg\riic
                         117 --		-I..\..\..\..\..\device\d1mx\macro_cfg\sfcdb
                         118 --		-I..\..\..\..\..\device\d1mx\macro_cfg\sfma
                         119 --		-I..\..\..\..\..\device\d1mx\macro_cfg\spea
                         120 --		-I..\..\..\..\..\device\d1mx\macro_cfg\tauj
                         121 --		-I..\..\..\..\..\device\d1mx\macro_cfg\tick
                         122 --		-I..\..\..\..\..\device\d1mx\macro_cfg\vdce
                         123 --		-I..\..\..\..\..\device\d1mx\macro_cfg\vowe
                         124 --		-I..\..\..\..\..\device\d1mx\macro_cfg\wm
                         125 --		-I..\..\..\..\..\device\d1mx\macro_cfg\xbus
                         126 --		-I..\..\..\..\..\device\d1x_common\macro_cfg\csisw
                         127 --		-I..\..\..\..\..\device\d1x_common\macro_cfg\davehd
                         128 --		-I..\..\..\..\..\device\d1x_common\macro_cfg\ddb
                         129 --		-I..\..\..\..\..\device\d1x_common\macro_cfg\drw2d
                         130 --		-I..\..\..\..\..\device\d1x_common\macro_cfg\gfxbus
                         131 --		-I..\..\..\..\..\device\d1x_common\macro_cfg\gpio
                         132 --		-I..\..\..\..\..\device\d1x_common\macro_cfg\hypb
                         133 --		-I..\..\..\..\..\device\d1x_common\macro_cfg\hypdb
                         134 --		-I..\..\..\..\..\device\d1x_common\macro_cfg\jcua
                         135 --		-I..\..\..\..\..\device\d1x_common\macro_cfg\nfmabare
                         136 --		-I..\..\..\..\..\device\d1x_common\macro_cfg\octa
                         137 --		-I..\..\..\..\..\device\d1x_common\macro_cfg\octacdb
                         138 --		-I..\..\..\..\..\device\d1x_common\macro_cfg\ostm
                         139 --		-I..\..\..\..\..\device\d1x_common\macro_cfg\pbg
                         140 --		-I..\..\..\..\..\device\d1x_common\macro_cfg\riic
                         141 --		-I..\..\..\..\..\device\d1x_common\macro_cfg\sfcdb
                         142 --		-I..\..\..\..\..\device\d1x_common\macro_cfg\sfma
                         143 --		-I..\..\..\..\..\device\d1x_common\macro_cfg\spea
                         144 --		-I..\..\..\..\..\device\d1x_common\macro_cfg\tauj
                         145 --		-I..\..\..\..\..\device\d1x_common\macro_cfg\tick
                         146 --		-I..\..\..\..\..\device\d1x_common\macro_cfg\vdce
                         147 --		-I..\..\..\..\..\device\d1x_common\macro_cfg\vowe
                         148 --		-I..\..\..\..\..\device\d1x_common\macro_cfg\wm
                         149 --		-I..\..\..\..\..\device\d1x_common\macro_cfg\xbus
                         150 --		-I..\..\..\..\..\app\gfx_apps\d1m1_flashdash_demo\src\TEXT_MY
                         151 --		--no_commons --no_implicit_include --prototype_errors
                         152 --		-DBSP_INIT_QOS_SDRAM_ORG -DDEVICE_TYPE_D1M1X -DBSP_INIT_SFMA_ORG
                         153 --		-DRENESAS_D1X -DR_DRW2D_OS_NO_OS -DR_DRW2D_SYS_DHD
                         154 --		-DUSED_CPU=RH850G3M -DUSE_BSP_GFX -DUSE_BSP_HMI_ORG -DUSE_BSP_HMI
                         155 --		-DUSE_BSP_STDIO -DUSE_CDI -DUSE_CSISW -DUSE_DAVEHD -DUSE_DDB
                         156 --		-DUSE_DMA -DUSE_DRW2D -DUSE_GFXBUS -DUSE_G3DMA -DUSE_GFXUTILS
                         157 --		-DUSE_GPIO -DUSE_JCUA -DUSE_OSTM -DUSE_PCMP -DUSE_PBG -DUSE_RIIC
                         158 --		-DUSE_SFCDB -DUSE_SFMA_ORG -DUSE_SPEA -DUSE_TAUB -DUSE_TAUJ
                         159 --		-DUSE_TICK -DUSE_VDCE -DUSE_VOWE -DUSE_WM -DUSE_XBUS -G -MD
                         160 --		-Odebug -Zuse1bit -allocate_ep -cpu=rh850g3m -large_sda -list
                         161 --		-no_callt -notda -passsource -preprocess_assembly_files
                         162 --		-registermode=22 -reserve_r2 --diag_warning 1 -object_dir=.\obj
                         163 --		-DBSP_INIT_QOS_VRAM -DUSE_RSCAN -filetype.c
                         164 --		..\..\..\..\gfx_apps\d1m1_flashdash_demo\src\util.c -o
                         165 --		.\obj\util.o
                         166 --Source File:   ..\..\..\..\gfx_apps\d1m1_flashdash_demo\src\util.c
                         167 --Directory:     
                         168 --		G:\vlib_v1.8_svn\app\gfx_apps\d1m1_flashdash_demo\target\d1m2_mango_ghs
                         169 --Compile Date:  Sat Jan 12 14:23:31 2019
                         170 --Host OS:       Win32
                         171 --Version:       C-RH850 2017.1.5 RELEASE VERSION

                                                                      Page 4
                                                              C:\Users\MANGESH\AppData\Local\Temp\gh_00007l41.si
                         172 --Release:       Compiler v2017.1.5
                         173 --Revision Date: Tue Apr 11 09:29:40 2017
                         174 --Release Date:  Tue Apr 11 11:12:26 2017
                         175 -- ecom  -g -w
                         176 
                         177 --1: #include "r_typedefs.h"
                         178 --3: #include "r_cdi_api.h"
                         179 --4: #include "r_config_drw2d.h"
                         180 --5: #include "r_drw2d_os.h"
                         181 --6: #include "r_drw2d_api.h"
                         182 --7: #include "r_drw2d_sys.h"
                         183 --8: #include "r_drw2d_priv.h"
                         184 --9: #include "r_config_drw2d.h"
                         185 --10: #include "r_drw2d_ctx_dhd.h"
                         186 --11: #include "r_ddb_api.h"
                         187 --12: #include "r_wm_api.h"
                         188 --13: #include "scenes.h"
                         189 --14: #include "drw_wrap.h"
                         190 --15: #include "mem_init.h"
                         191 --16: #include "sprite.h"
                         192 --17: #include "wm.h"
                         193 --18: #include "fs_data.h"
                         194 --19: //#include "fs_data_movie.h"
                         195 --20: #include "fs_data_res.h"
                         196 --21: #include "r_bsp_stdio_api.h"
                         197 --22: //#include "r_gfxutils_api.h"
                         198 --23: #include "r_util_dhd.h"
                         199 --24: #include "load_to_ram.h"
                         200 --25: #include "math.h"
                         201 --26: #include "jpeg.h"
                         202 --27: #include "r_tick_api.h"
                         203 --28: #include "bench.h"
                         204 --29: #include "car_model.h"
                         205 --30: #include "limits.h"
                         206 --31: #include "r_dev_api.h"
                         207 --33: /* XC1 QoS Registers (D1M1(H) only) */
                         208 --35: #define QOS_BASE       (0xffcd2300u)
                         209 --37: #define QOS_MODE       (QOS_BASE + 0x0000u)
                         210 --38: #define QOS_MAX_COUNT  (QOS_BASE + 0x0004u)
                         211 --39: #define QOS_MAX_RACC   (QOS_BASE + 0x0008u)
                         212 --40: #define QOS_MAX_WACC   (QOS_BASE + 0x000cu)
                         213 --43: #define QOS_PORT_CPU0   0x0
                         214 --44: #define QOS_PORT_CPU1   0x1
                         215 --45: #define QOS_PORT_VACC0  0x2
                         216 --46: #define QOS_PORT_VACC1  0x3
                         217 --47: #define QOS_PORT_JCUA   0x4
                         218 --48: #define QOS_PORT_GPU2D  0x5
                         219 --49: #define QOS_PORT_ETNB   0x6
                         220 --52: uint32_t my_read(uint32_t address){
                         221 	.text
                         222 ..bof.G.3A.5Cvlib_v1.2E8_svn.5Capp.5Cgfx_apps.5Cd1m1_flashdash_demo.5Ctarget.5Cd1m2_mango_ghs.5Cobj.5Cutil...47.3A.5Cvlib_v1.2E8_svn.5Capp.5Cgfx_apps.5Cd1m1_flashdash_demo.5Ctarget.5Cd1m2_mango_ghs..5C39AB0B..0::
                         223 	.align	2
                         224 	.align	2
                         225 ..gh.f.a.2.e.0:
                         226 	.type	..gh.f.a.2.e.0,@object
                         227 	.size	..gh.f.a.2.e.0,0
                         228 	.global	_my_read
                         229 _my_read:
00000000 06f0            230 	mov	r6,ep
                         231 --	    .bf
                         232 .LDW01:

                                                                      Page 5
                                                              C:\Users\MANGESH\AppData\Local\Temp\gh_00007l41.si
                         233 --53:     return *((uint32_t *)address);
00000002 0055            234 	sld.w	0[ep],r10
                         235 --	    .ef
                         236 .LDW11:
                         237 	.jumptype return
00000004 7f00            238 	jmp	[lp]
                         239 ..lin.5fb3fd47..fe4b165.0_1::
                         240 .LDWlin1:
                         241 	.type	_my_read,@function
                         242 	.size	_my_read,.-_my_read
                         243 	.align	2
                         244 .LDW21:
                         245 
                         246 --_address	ep	param
                         247 
                         248 	.section ".bss","awb"
                         249 .L30:
                         250 	.type	.L30,@object
                         251 	.size	.L30,0
                         252 	.data
                         253 	.text
                         254 
                         255 --54: }
                         256 
                         257 --56: void  my_write(uint32_t address, uint32_t value){
                         258 	.align	2
                         259 	.align	2
                         260 	.align	2
                         261 ..gh.f.a.2.e.1:
                         262 	.type	..gh.f.a.2.e.1,@object
                         263 	.size	..gh.f.a.2.e.1,0
                         264 	.global	_my_write
                         265 _my_write:
00000006 06f0            266 	mov	r6,ep
                         267 --	    .bf
                         268 .LDW31:
                         269 --57:      *((uint32_t *)address) = value;
00000008 013d            270 	sst.w	r7,0[ep]
                         271 --58: }
                         272 --	    .ef
                         273 .LDW41:
                         274 	.jumptype return
0000000a 7f00            275 	jmp	[lp]
                         276 ..lin.5fb3fd47..cdc9df4.0_2::
                         277 .LDWlin2:
                         278 	.type	_my_write,@function
                         279 	.size	_my_write,.-_my_write
                         280 	.align	2
                         281 .LDW51:
                         282 
                         283 --_address	ep	param
                         284 --_value	r7	param
                         285 
                         286 	.section ".bss","awb"
                         287 .L66:
                         288 	.type	.L66,@object
                         289 	.size	.L66,0
                         290 	.data
                         291 	.text
                         292 
                         293 

                                                                      Page 6
                                                              C:\Users\MANGESH\AppData\Local\Temp\gh_00007l41.si
                         294 --61: typedef struct {
                         295 --62:     uint32_t mode; 
                         296 --63:     uint32_t max_cnt; 
                         297 --64:     uint32_t max_racc;
                         298 --65:     uint32_t max_wacc;
                         299 --66: } r_xc1_qos_config_t;
                         300 --68: static const r_xc1_qos_config_t qos_config_slow = 
                         301 --69: {
                         302 --70: 	0x3u,	/* Threshold mode */
                         303 --71: /* 	0xe6u, */   /* Initial cycle count: e6 cycles */
                         304 --72: 	0xfau,  /* Initial cycle count: e6 cycles */
                         305 --73: 	0x0u,	/* 1 read bursts permitted within e6 cycles */
                         306 --74: 	0x7u,	/* 8 write bursts permitted within e6 cycles */
                         307 --75: };
                         308 --77: static const r_xc1_qos_config_t qos_config_max = 
                         309 --78: {
                         310 --79: 	0x3u,	/* Threshold mode */
                         311 --80: 	0x7u,   /* Initial cycle count: 8 cycles */
                         312 --81: 	0x7u,	/* 8 read bursts permitted within 8 cycles */
                         313 --82: 	0x7u,	/* 8 write bursts permitted within 8 cycles */
                         314 --83: };
                         315 --85: static void loc_XC1_ConfigureQoS(uint32_t port, r_xc1_qos_config_t *config)
                         316 	.align	2
                         317 	.align	2
                         318 	.align	2
                         319 ..gh.f.a.2.e.2:
                         320 	.type	..gh.f.a.2.e.2,@object
                         321 	.size	..gh.f.a.2.e.2,0
                         322 	.global	_loc_XC1_ConfigureQoS..G.3A.5Cvlib_v1.2E8_svn.5Capp.5Cgfx_apps.5Cd1m1_flashdash_demo.5Ctarget.5Cd1m2_mango_ghs.5Cobj.5Cutil.
                         323 _loc_XC1_ConfigureQoS..G.3A.5Cvlib_v1.2E8_svn.5Capp.5Cgfx_apps.5Cd1m1_flashdash_demo.5Ctarget.5Cd1m2_mango_ghs.5Cobj.5Cutil.:
                         324 _loc_XC1_ConfigureQoS:
0000000c 07f0            325 	mov	r7,ep
                         326 --	    .bf
                         327 .LDW61:
                         328 --86: {
                         329 --87:     uint32_t addr_offset = 0x10 * port;
0000000e 0608            330 	mov	r6,r1
00000010 c40a            331 	shl	4,r1
                         332 --88: 	
                         333 --89: 	R_DEV_WRITE_REG(32, QOS_MODE      + addr_offset, config->mode);
00000012 0075            334 	sld.w	0[ep],r14
00000014 81070f70469a    335 	st.w	r14,-3333376[r1]
                         336 --90: 	R_DEV_WRITE_REG(32, QOS_MAX_COUNT + addr_offset, config->max_cnt);	
                         337 --line90
                         338 ..lin.5fb3fd47..4f5d5661.0_3::
                         339 .LDWlin3:
0000001a 0275            340 	sld.w	4[ep],r14
0000001c 81074f70469a    341 	st.w	r14,-3333372[r1]
                         342 --91: 	R_DEV_WRITE_REG(32, QOS_MAX_RACC  + addr_offset, config->max_racc);	
                         343 --line91
                         344 ..lin.5fb3fd47..4f5d5661.0_4::
                         345 .LDWlin4:
00000022 0475            346 	sld.w	8[ep],r14
00000024 81078f70469a    347 	st.w	r14,-3333368[r1]
                         348 --92: 	R_DEV_WRITE_REG(32, QOS_MAX_WACC  + addr_offset, config->max_wacc);
                         349 --line92
                         350 ..lin.5fb3fd47..4f5d5661.0_5::
                         351 .LDWlin5:
0000002a 0675            352 	sld.w	12[ep],r14
0000002c 8107cf70469a    353 	st.w	r14,-3333364[r1]
                         354 --93: }

                                                                      Page 7
                                                              C:\Users\MANGESH\AppData\Local\Temp\gh_00007l41.si
                         355 --	    .ef
                         356 .LDW71:
                         357 --line93
                         358 ..lin.5fb3fd47..4f5d5661.0_6::
                         359 .LDWlin6:
                         360 	.jumptype return
00000032 7f00            361 	jmp	[lp]
                         362 ..lin.5fb3fd47..4f5d5661.0_7::
                         363 .LDWlin7:
                         364 	.type	_loc_XC1_ConfigureQoS,@function
                         365 	.size	_loc_XC1_ConfigureQoS,.-_loc_XC1_ConfigureQoS
                         366 	.type	_loc_XC1_ConfigureQoS..G.3A.5Cvlib_v1.2E8_svn.5Capp.5Cgfx_apps.5Cd1m1_flashdash_demo.5Ctarget.5Cd1m2_mango_ghs.5Cobj.5Cutil.,@function
                         367 	.size	_loc_XC1_ConfigureQoS..G.3A.5Cvlib_v1.2E8_svn.5Capp.5Cgfx_apps.5Cd1m1_flashdash_demo.5Ctarget.5Cd1m2_mango_ghs.5Cobj.5Cutil.,.-_loc_XC1_ConfigureQoS..G.3A.5Cvlib_v1.2E8_svn.5Capp.5Cgfx_apps.5Cd1m1_flashdash_demo.5Ctarget.5Cd1m2_mango_ghs.5Cobj.5Cutil.
                         368 	.align	2
                         369 .LDW81:
                         370 --_addr_offset	r1	local
                         371 
                         372 --_port	r6	param
                         373 --_config	ep	param
                         374 
                         375 	.section ".bss","awb"
                         376 .L130:
                         377 	.type	.L130,@object
                         378 	.size	.L130,0
                         379 	.data
                         380 	.text
                         381 
                         382 
                         383 --95: /* Slow Dave will prevent buffer underrun during concurrent access of Dave HD and 
                         384 --96:    VDCE to serial flash. */
                         385 --97: void QosSlowDave(void ){
                         386 	.align	2
                         387 	.align	2
                         388 	.align	2
                         389 	.align	2
                         390 ..gh.f.a.2.e.3:
                         391 	.type	..gh.f.a.2.e.3,@object
                         392 	.size	..gh.f.a.2.e.3,0
                         393 	.global	_QosSlowDave
                         394 _QosSlowDave:
00000034 80072100        395 	prepare	{r31},0
                         396 --	    .bf
                         397 .LDW91:
                         398 --98:     loc_XC1_ConfigureQoS(QOS_PORT_GPU2D,  (r_xc1_qos_config_t *) &qos_config_slow);
00000038 0532            399 	mov	5,r6
0000003a 270600000000*   400 	mov	_qos_config_slow,r7
                         401 	jarl	_loc_XC1_ConfigureQoS,lp
                         401 <EXPANSION BEGIN>
                         401 jarl22 _loc_XC1_ConfigureQoS , lp 
00000040 bfffccff*       401 <EXPANSION END>
                         402 --99: }
                         403 --	    .ef
                         404 .LDW02:
                         405 --line99
                         406 ..lin.5fb3fd47..e82a13fc.0_8::
                         407 .LDWlin8:
00000044 40063f00        408 	dispose	0,{r31},[lp]
                         409 ..lin.5fb3fd47..e82a13fc.0_9::
                         410 .LDWlin9:
                         411 	.type	_QosSlowDave,@function
                         412 	.size	_QosSlowDave,.-_QosSlowDave

                                                                      Page 8
                                                              C:\Users\MANGESH\AppData\Local\Temp\gh_00007l41.si
                         413 	.align	2
                         414 .LDW12:
                         415 
                         416 	.section ".bss","awb"
                         417 	.align	4
                         418 .L178:
                         419 	.type	.L178,@object
                         420 	.size	.L178,0
                         421 	.global	_needle_refresh_sprite_pos..G.3A.5Cvlib_v1.2E8_svn.5Capp.5Cgfx_apps.5Cd1m1_flashdash_demo.5Ctarget.5Cd1m2_mango_ghs.5Cobj.5Cutil.
                         422 _needle_refresh_sprite_pos..G.3A.5Cvlib_v1.2E8_svn.5Capp.5Cgfx_apps.5Cd1m1_flashdash_demo.5Ctarget.5Cd1m2_mango_ghs.5Cobj.5Cutil.:
00000000 000000000000    423 _needle_refresh_sprite_pos:	.space	8
00000006 0000 
                         424 	.type	_needle_refresh_sprite_pos..G.3A.5Cvlib_v1.2E8_svn.5Capp.5Cgfx_apps.5Cd1m1_flashdash_demo.5Ctarget.5Cd1m2_mango_ghs.5Cobj.5Cutil.,@object
                         425 	.size	_needle_refresh_sprite_pos..G.3A.5Cvlib_v1.2E8_svn.5Capp.5Cgfx_apps.5Cd1m1_flashdash_demo.5Ctarget.5Cd1m2_mango_ghs.5Cobj.5Cutil.,8
                         426 	.type	_needle_refresh_sprite_pos,@object
                         427 	.size	_needle_refresh_sprite_pos,8
                         428 	.data
                         429 	.align	4
                         430 	.global	_rotation_object_scale_factor..G.3A.5Cvlib_v1.2E8_svn.5Capp.5Cgfx_apps.5Cd1m1_flashdash_demo.5Ctarget.5Cd1m2_mango_ghs.5Cobj.5Cutil.
                         431 _rotation_object_scale_factor..G.3A.5Cvlib_v1.2E8_svn.5Capp.5Cgfx_apps.5Cd1m1_flashdash_demo.5Ctarget.5Cd1m2_mango_ghs.5Cobj.5Cutil.:
00000000 00000100        432 _rotation_object_scale_factor:	.byte	0,0,1,0
                         433 	.type	_rotation_object_scale_factor..G.3A.5Cvlib_v1.2E8_svn.5Capp.5Cgfx_apps.5Cd1m1_flashdash_demo.5Ctarget.5Cd1m2_mango_ghs.5Cobj.5Cutil.,@object
                         434 	.size	_rotation_object_scale_factor..G.3A.5Cvlib_v1.2E8_svn.5Capp.5Cgfx_apps.5Cd1m1_flashdash_demo.5Ctarget.5Cd1m2_mango_ghs.5Cobj.5Cutil.,4
                         435 	.type	_rotation_object_scale_factor,@object
                         436 	.size	_rotation_object_scale_factor,4
                         437 	.global	_rotation_texture_scale_factor..G.3A.5Cvlib_v1.2E8_svn.5Capp.5Cgfx_apps.5Cd1m1_flashdash_demo.5Ctarget.5Cd1m2_mango_ghs.5Cobj.5Cutil.
                         438 _rotation_texture_scale_factor..G.3A.5Cvlib_v1.2E8_svn.5Capp.5Cgfx_apps.5Cd1m1_flashdash_demo.5Ctarget.5Cd1m2_mango_ghs.5Cobj.5Cutil.:
00000004 00000100        439 _rotation_texture_scale_factor:	.byte	0,0,1,0
                         440 	.type	_rotation_texture_scale_factor..G.3A.5Cvlib_v1.2E8_svn.5Capp.5Cgfx_apps.5Cd1m1_flashdash_demo.5Ctarget.5Cd1m2_mango_ghs.5Cobj.5Cutil.,@object
                         441 	.size	_rotation_texture_scale_factor..G.3A.5Cvlib_v1.2E8_svn.5Capp.5Cgfx_apps.5Cd1m1_flashdash_demo.5Ctarget.5Cd1m2_mango_ghs.5Cobj.5Cutil.,4
                         442 	.type	_rotation_texture_scale_factor,@object
                         443 	.size	_rotation_texture_scale_factor,4
                         444 	.section ".rodata","a"
                         445 	.align	4
                         446 	.global	_qos_config_slow..G.3A.5Cvlib_v1.2E8_svn.5Capp.5Cgfx_apps.5Cd1m1_flashdash_demo.5Ctarget.5Cd1m2_mango_ghs.5Cobj.5Cutil.
                         447 _qos_config_slow..G.3A.5Cvlib_v1.2E8_svn.5Capp.5Cgfx_apps.5Cd1m1_flashdash_demo.5Ctarget.5Cd1m2_mango_ghs.5Cobj.5Cutil.:
00000000 03000000        448 _qos_config_slow:	.byte	3,0,0,0
00000004 fa000000        449 	.byte	250,0,0,0
00000008 00000000        450 	.space	4
0000000c 07000000        451 	.byte	7,0,0,0
                         452 	.type	_qos_config_slow..G.3A.5Cvlib_v1.2E8_svn.5Capp.5Cgfx_apps.5Cd1m1_flashdash_demo.5Ctarget.5Cd1m2_mango_ghs.5Cobj.5Cutil.,@object
                         453 	.size	_qos_config_slow..G.3A.5Cvlib_v1.2E8_svn.5Capp.5Cgfx_apps.5Cd1m1_flashdash_demo.5Ctarget.5Cd1m2_mango_ghs.5Cobj.5Cutil.,16
                         454 	.type	_qos_config_slow,@object
                         455 	.size	_qos_config_slow,16
                         456 	.data
                         457 	.text
                         458 
                         459 
                         460 --101: void QosFastDave(void ){
                         461 	.align	2
                         462 	.align	2
                         463 	.align	2
                         464 	.align	2
                         465 ..gh.f.a.2.e.4:
                         466 	.type	..gh.f.a.2.e.4,@object
                         467 	.size	..gh.f.a.2.e.4,0
                         468 	.global	_QosFastDave
                         469 _QosFastDave:
00000048 80072100        470 	prepare	{r31},0
                         471 --	    .bf
                         472 .LDW22:

                                                                      Page 9
                                                              C:\Users\MANGESH\AppData\Local\Temp\gh_00007l41.si
                         473 --102:     loc_XC1_ConfigureQoS(QOS_PORT_GPU2D, (r_xc1_qos_config_t *)&qos_config_max);
0000004c 0532            474 	mov	5,r6
0000004e 270600000000*   475 	mov	_qos_config_max,r7
                         476 	jarl	_loc_XC1_ConfigureQoS,lp
                         476 <EXPANSION BEGIN>
                         476 jarl22 _loc_XC1_ConfigureQoS , lp 
00000054 bfffb8ff*       476 <EXPANSION END>
                         477 --103: }
                         478 --	    .ef
                         479 .LDW32:
                         480 --line103
                         481 ..lin.5fb3fd47..a3300145.0_10::
                         482 .LDWlin10:
00000058 40063f00        483 	dispose	0,{r31},[lp]
                         484 ..lin.5fb3fd47..a3300145.0_11::
                         485 .LDWlin11:
                         486 	.type	_QosFastDave,@function
                         487 	.size	_QosFastDave,.-_QosFastDave
                         488 	.align	2
                         489 .LDW42:
                         490 
                         491 	.section ".bss","awb"
                         492 .L226:
                         493 	.type	.L226,@object
                         494 	.size	.L226,0
                         495 	.section ".rodata","a"
                         496 	.global	_qos_config_max..G.3A.5Cvlib_v1.2E8_svn.5Capp.5Cgfx_apps.5Cd1m1_flashdash_demo.5Ctarget.5Cd1m2_mango_ghs.5Cobj.5Cutil.
                         497 _qos_config_max..G.3A.5Cvlib_v1.2E8_svn.5Capp.5Cgfx_apps.5Cd1m1_flashdash_demo.5Ctarget.5Cd1m2_mango_ghs.5Cobj.5Cutil.:
00000010 03000000        498 _qos_config_max:	.byte	3,0,0,0
00000014 07000000        499 	.byte	7,0,0,0
00000018 07000000        500 	.byte	7,0,0,0
0000001c 07000000        501 	.byte	7,0,0,0
                         502 	.type	_qos_config_max..G.3A.5Cvlib_v1.2E8_svn.5Capp.5Cgfx_apps.5Cd1m1_flashdash_demo.5Ctarget.5Cd1m2_mango_ghs.5Cobj.5Cutil.,@object
                         503 	.size	_qos_config_max..G.3A.5Cvlib_v1.2E8_svn.5Capp.5Cgfx_apps.5Cd1m1_flashdash_demo.5Ctarget.5Cd1m2_mango_ghs.5Cobj.5Cutil.,16
                         504 	.type	_qos_config_max,@object
                         505 	.size	_qos_config_max,16
                         506 	.data
                         507 	.text
                         508 
                         509 
                         510 --107: static r_drw2d_Point_t needle_refresh_sprite_pos;
                         511 --109: void SetNeedleRefreshSpritePos(r_drw2d_Point_t pos){
                         512 	.align	2
                         513 	.align	2
                         514 	.align	2
                         515 ..gh.f.a.2.e.5:
                         516 	.type	..gh.f.a.2.e.5,@object
                         517 	.size	..gh.f.a.2.e.5,0
                         518 	.global	_SetNeedleRefreshSpritePos
                         519 _SetNeedleRefreshSpritePos:
0000005c 501a            520 	add	-16,sp
0000005e 633f0500        521 	st.w	r7,4[sp]
00000062 63370100        522 	st.w	r6,0[sp]
                         523 --	    .bf
                         524 .LDW52:
                         525 --110:     needle_refresh_sprite_pos = pos;
00000066 a30709600000    526 	ld.dw	0[sp],r12
0000006c 210600000000*   527 	mov	_needle_refresh_sprite_pos,r1
00000072 a1070f600000    528 	st.dw	r12,0[r1]
                         529 --111: }
                         530 --	    .ef

                                                                      Page 10
                                                              C:\Users\MANGESH\AppData\Local\Temp\gh_00007l41.si
                         531 .LDW62:
                         532 --line111
                         533 ..lin.5fb3fd47..6c209935.0_12::
                         534 .LDWlin12:
00000078 031e1000        535 	addi	16,sp,sp
                         536 	.jumptype return
0000007c 7f00            537 	jmp	[lp]
                         538 ..lin.5fb3fd47..6c209935.0_13::
                         539 .LDWlin13:
                         540 	.type	_SetNeedleRefreshSpritePos,@function
                         541 	.size	_SetNeedleRefreshSpritePos,.-_SetNeedleRefreshSpritePos
                         542 	.align	2
                         543 .LDW72:
                         544 
                         545 --_pos	0[sp]	param
                         546 
                         547 	.data
                         548 	.text
                         549 
                         550 
                         551 --113: r_drw2d_Point_t GetNeedleRefreshSpritePos(void) {
                         552 	.align	2
                         553 	.align	2
                         554 	.align	2
                         555 ..gh.f.a.2.e.6:
                         556 	.type	..gh.f.a.2.e.6,@object
                         557 	.size	..gh.f.a.2.e.6,0
                         558 	.global	_GetNeedleRefreshSpritePos
                         559 _GetNeedleRefreshSpritePos:
0000007e 06f0            560 	mov	r6,ep
                         561 --	    .bf
                         562 .LDW82:
                         563 --114:     return needle_refresh_sprite_pos;
00000080 210600000000*   564 	mov	_needle_refresh_sprite_pos,r1
00000086 a10709600000    565 	ld.dw	0[r1],r12
0000008c be070f600000    566 	st.dw	r12,0[ep]
                         567 --	    .ef
                         568 .LDW92:
                         569 --line115
                         570 ..lin.5fb3fd47..5afcb529.0_14::
                         571 .LDWlin14:
                         572 	.jumptype return
00000092 7f00            573 	jmp	[lp]
                         574 ..lin.5fb3fd47..5afcb529.0_15::
                         575 .LDWlin15:
                         576 	.type	_GetNeedleRefreshSpritePos,@function
                         577 	.size	_GetNeedleRefreshSpritePos,.-_GetNeedleRefreshSpritePos
                         578 	.align	2
                         579 .LDW03:
                         580 
                         581 --LRETURN..	ep	param
                         582 
                         583 	.data
                         584 	.text
                         585 
                         586 --115: }
                         587 
                         588 --118: #define MIN(x,y) (((x) < (y)) ? x : y)
                         589 --119: #define MAX(x,y) (((x) > (y)) ? x : y)
                         590 --121: r_drw2d_IntRect_t CalcBoundingBoxRect2D( r_drw2d_Rect_t *Rect ){
                         591 	.align	2

                                                                      Page 11
                                                              C:\Users\MANGESH\AppData\Local\Temp\gh_00007l41.si
                         592 	.align	2
                         593 	.align	2
                         594 ..gh.f.a.2.e.7:
                         595 	.type	..gh.f.a.2.e.7,@object
                         596 	.size	..gh.f.a.2.e.7,0
                         597 	.global	_CalcBoundingBoxRect2D
                         598 _CalcBoundingBoxRect2D:
00000094 a807e170        599 	prepare	{r25,r26,r27,r28,r29,r31},20
00000098 06c8            600 	mov	r6,r25
0000009a 07f0            601 	mov	r7,ep
                         602 --	    .bf
                         603 .LDW13:
                         604 --122:     r_drw2d_Vec4_t vtx[4];
                         605 --123:     r_drw2d_IntRect_t tmp;
                         606 --124:     int32_t min_x = INT_MAX, max_x = INT_MIN, min_y = INT_MAX, max_y = INT_MIN;
0000009c 3d06ffffff7f    607 	mov	2147483647,r29
000000a2 40de0080        608 	movhi	hi(-2147483648),zero,r27
000000a6 1de0            609 	mov	r29,r28
000000a8 1bd0            610 	mov	r27,r26
                         611 --125:     uint32_t i;
                         612 --126:     r_drw2d_DeviceBase_t    *devBase   = (r_drw2d_DeviceBase_t *) g_Drw2dDev;
                         613 --line126
                         614 ..lin.5fb3fd47..b0fed63a.0_16::
                         615 .LDWlin16:
000000aa 260600000000*   616 	mov	_g_Drw2dDev,r6
000000b0 26370100        617 	ld.w	0[r6],r6
                         618 --127:     vtx[0].X = Rect->Pos.X;
                         619 --line127
                         620 ..lin.5fb3fd47..b0fed63a.0_17::
                         621 .LDWlin17:
000000b4 000d            622 	sld.w	0[ep],r1
000000b6 630f1100        623 	st.w	r1,16[sp]
                         624 --128:     vtx[0].Y = Rect->Pos.Y;
000000ba 020d            625 	sld.w	4[ep],r1
000000bc 630f1500        626 	st.w	r1,20[sp]
                         627 --129:     vtx[0].Z = R_DRW2D_2X(0);
000000c0 63071900        628 	st.w	zero,24[sp]
                         629 --130:     vtx[0].W = R_DRW2D_2X(1);
000000c4 400e0100        630 	movhi	hi(65536),zero,r1
000000c8 630f1d00        631 	st.w	r1,28[sp]
                         632 --131:     
                         633 --132:     vtx[1].X = Rect->Pos.X + Rect->Size.Width;
                         634 --line132
                         635 ..lin.5fb3fd47..b0fed63a.0_18::
                         636 .LDWlin18:
000000cc 040d            637 	sld.w	8[ep],r1
000000ce 0075            638 	sld.w	0[ep],r14
000000d0 ce09            639 	add	r14,r1
000000d2 630f2100        640 	st.w	r1,32[sp]
                         641 --133:     vtx[1].Y = Rect->Pos.Y;
000000d6 020d            642 	sld.w	4[ep],r1
000000d8 630f2500        643 	st.w	r1,36[sp]
                         644 --134:     vtx[1].Z = R_DRW2D_2X(0);
000000dc 63072900        645 	st.w	zero,40[sp]
                         646 --135:     vtx[1].W = R_DRW2D_2X(1);
000000e0 400e0100        647 	movhi	hi(65536),zero,r1
000000e4 630f2d00        648 	st.w	r1,44[sp]
                         649 --136:     
                         650 --137:     vtx[2].X = Rect->Pos.X + Rect->Size.Width;
                         651 --line137
                         652 ..lin.5fb3fd47..b0fed63a.0_19::

                                                                      Page 12
                                                              C:\Users\MANGESH\AppData\Local\Temp\gh_00007l41.si
                         653 .LDWlin19:
000000e8 040d            654 	sld.w	8[ep],r1
000000ea 0075            655 	sld.w	0[ep],r14
000000ec ce09            656 	add	r14,r1
000000ee 630f3100        657 	st.w	r1,48[sp]
                         658 --138:     vtx[2].Y = Rect->Pos.Y + Rect->Size.Height;
000000f2 060d            659 	sld.w	12[ep],r1
000000f4 0275            660 	sld.w	4[ep],r14
000000f6 ce09            661 	add	r14,r1
000000f8 630f3500        662 	st.w	r1,52[sp]
                         663 --139:     vtx[2].Z = R_DRW2D_2X(0);
000000fc 63073900        664 	st.w	zero,56[sp]
                         665 --140:     vtx[2].W = R_DRW2D_2X(1);
00000100 400e0100        666 	movhi	hi(65536),zero,r1
00000104 630f3d00        667 	st.w	r1,60[sp]
                         668 --141:     
                         669 --142:     vtx[3].X = Rect->Pos.X;
                         670 --line142
                         671 ..lin.5fb3fd47..b0fed63a.0_20::
                         672 .LDWlin20:
00000108 000d            673 	sld.w	0[ep],r1
0000010a 630f4100        674 	st.w	r1,64[sp]
                         675 --143:     vtx[3].Y = Rect->Pos.Y + Rect->Size.Height;
0000010e 060d            676 	sld.w	12[ep],r1
00000110 0275            677 	sld.w	4[ep],r14
00000112 ce09            678 	add	r14,r1
00000114 630f4500        679 	st.w	r1,68[sp]
                         680 --144:     vtx[3].Z = R_DRW2D_2X(0);
00000118 63074900        681 	st.w	zero,72[sp]
                         682 --145:     vtx[3].W = R_DRW2D_2X(1);
0000011c 400e0100        683 	movhi	hi(65536),zero,r1
00000120 630f4d00        684 	st.w	r1,76[sp]
                         685 --146:     drw2d_VtxTransform(devBase, vtx, 4);
                         686 --line146
                         687 ..lin.5fb3fd47..b0fed63a.0_21::
                         688 .LDWlin21:
00000124 233e1000        689 	movea	16,sp,r7
00000128 0442            690 	mov	4,r8
                         691 	jarl	_drw2d_VtxTransform,lp
                         691 <EXPANSION BEGIN>
                         691 jarl22 _drw2d_VtxTransform , lp 
0000012a 80ff0000*       691 <EXPANSION END>
                         692 --147:     for(i = 0;i < 4;i++){
                         693 --line147
                         694 ..lin.5fb3fd47..b0fed63a.0_22::
                         695 .LDWlin22:
0000012e 000a            696 	mov	0,r1
                         697 .L333:
                         698 --148:         min_x = MIN(vtx[i].X, min_x);
00000130 01f0            699 	mov	r1,ep
00000132 c4f2            700 	shl	4,ep
00000134 236e1000        701 	movea	16,sp,r13
00000138 cdf1            702 	add	r13,ep
0000013a 0075            703 	sld.w	0[ep],r14
0000013c eee9            704 	cmp	r14,r29
0000013e eeef3ceb        705 	cmovge	r14,r29,r29
                         706 --149:         min_y = MIN(vtx[i].Y, min_y);
00000142 01f0            707 	mov	r1,ep
00000144 c4f2            708 	shl	4,ep
00000146 236e1000        709 	movea	16,sp,r13
0000014a cdf1            710 	add	r13,ep

                                                                      Page 13
                                                              C:\Users\MANGESH\AppData\Local\Temp\gh_00007l41.si
0000014c 0275            711 	sld.w	4[ep],r14
0000014e eee1            712 	cmp	r14,r28
00000150 eee73ce3        713 	cmovge	r14,r28,r28
                         714 --150:         max_x = MAX(vtx[i].X, max_x);
00000154 01f0            715 	mov	r1,ep
00000156 c4f2            716 	shl	4,ep
00000158 236e1000        717 	movea	16,sp,r13
0000015c cdf1            718 	add	r13,ep
0000015e 0075            719 	sld.w	0[ep],r14
00000160 eed9            720 	cmp	r14,r27
00000162 eedf2edb        721 	cmovle	r14,r27,r27
                         722 --151:         max_y = MAX(vtx[i].Y, max_y);
00000166 01f0            723 	mov	r1,ep
00000168 c4f2            724 	shl	4,ep
0000016a 236e1000        725 	movea	16,sp,r13
0000016e cdf1            726 	add	r13,ep
00000170 0275            727 	sld.w	4[ep],r14
00000172 eed1            728 	cmp	r14,r26
00000174 eed72ed3        729 	cmovle	r14,r26,r26
00000178 410a            730 	add	1,r1
0000017a 640a            731 	cmp	4,r1
0000017c a1dd*           732 	bl	.L333
                         733 --152:     }
                         734 --154:     min_x = R_DRW2D_2I(min_x);
                         735 --line154
                         736 ..lin.5fb3fd47..b0fed63a.0_23::
                         737 .LDWlin23:
0000017e 1d08            738 	mov	r29,r1
00000180 bf0a            739 	sar	31,r1
00000182 900a            740 	shr	16,r1
00000184 c1e9            741 	add	r1,r29
00000186 b0ea            742 	sar	16,r29
                         743 --155:     min_y = R_DRW2D_2I(min_y);
00000188 1c08            744 	mov	r28,r1
0000018a bf0a            745 	sar	31,r1
0000018c 900a            746 	shr	16,r1
0000018e c1e1            747 	add	r1,r28
00000190 b0e2            748 	sar	16,r28
                         749 --156:     max_x = R_DRW2D_2I(max_x + 65535);
00000192 800effff        750 	ori	65535,zero,r1
00000196 c1d9            751 	add	r1,r27
00000198 1b70            752 	mov	r27,r14
0000019a bf72            753 	sar	31,r14
0000019c 9072            754 	shr	16,r14
0000019e ced9            755 	add	r14,r27
000001a0 b0da            756 	sar	16,r27
                         757 --157:     max_y = R_DRW2D_2I(max_y + 65535);
000001a2 800effff        758 	ori	65535,zero,r1
000001a6 c1d1            759 	add	r1,r26
000001a8 1a70            760 	mov	r26,r14
000001aa bf72            761 	sar	31,r14
000001ac 9072            762 	shr	16,r14
000001ae ced1            763 	add	r14,r26
000001b0 b0d2            764 	sar	16,r26
                         765 --158:     tmp.Pos.X       = min_x;
000001b2 63ef0100        766 	st.w	r29,0[sp]
                         767 --159:     tmp.Pos.Y       = min_y;
000001b6 63e70500        768 	st.w	r28,4[sp]
                         769 --160:     tmp.Size.Width  = max_x - min_x /* + 1 , right and bottom is not drawn. */;
000001ba 1b08            770 	mov	r27,r1
000001bc bd09            771 	sub	r29,r1

                                                                      Page 14
                                                              C:\Users\MANGESH\AppData\Local\Temp\gh_00007l41.si
000001be 630f0900        772 	st.w	r1,8[sp]
                         773 --161:     tmp.Size.Height = max_y - min_y /* + 1 , right and bottom is not drawn. */;
000001c2 1a08            774 	mov	r26,r1
000001c4 bc09            775 	sub	r28,r1
000001c6 630f0d00        776 	st.w	r1,12[sp]
                         777 --162:     return tmp;
000001ca a30709600000    778 	ld.dw	0[sp],r12
000001d0 a30789500000    779 	ld.dw	8[sp],r10
000001d6 b9070f600000    780 	st.dw	r12,0[r25]
000001dc b9078f500000    781 	st.dw	r10,8[r25]
                         782 --	    .ef
                         783 .LDW23:
                         784 --line163
                         785 ..lin.5fb3fd47..b0fed63a.0_24::
                         786 .LDWlin24:
000001e2 6806ff70        787 	dispose	20,{r25,r26,r27,r28,r29,r31},[lp]
                         788 ..lin.5fb3fd47..b0fed63a.0_25::
                         789 .LDWlin25:
                         790 	.type	_CalcBoundingBoxRect2D,@function
                         791 	.size	_CalcBoundingBoxRect2D,.-_CalcBoundingBoxRect2D
                         792 	.align	2
                         793 .LDW33:
                         794 --_vtx	16[sp]	local
                         795 --_tmp	0[sp]	local
                         796 --_min_x	r29	local
                         797 --_max_x	r27	local
                         798 --_min_y	r28	local
                         799 --_max_y	r26	local
                         800 --_i	r1	local
                         801 --_devBase	r6	local
                         802 
                         803 --LRETURN..	r25	param
                         804 --_Rect	ep	param
                         805 
                         806 	.section ".bss","awb"
                         807 .L486:
                         808 	.type	.L486,@object
                         809 	.size	.L486,0
                         810 	.data
                         811 	.text
                         812 
                         813 --163: }
                         814 
                         815 --165: r_drw2d_IntRect_t MaximizeBoundingBox( r_drw2d_IntRect_t *Rect1, r_drw2d_IntRect_t *Rect2 ){
                         816 	.align	2
                         817 	.align	2
                         818 	.align	2
                         819 ..gh.f.a.2.e.8:
                         820 	.type	..gh.f.a.2.e.8,@object
                         821 	.size	..gh.f.a.2.e.8,0
                         822 	.global	_MaximizeBoundingBox
                         823 _MaximizeBoundingBox:
000001e6 031eb4ff        824 	addi	-76,sp,sp
                         825 --	    .bf
                         826 .LDW43:
                         827 --166:     r_drw2d_IntRect_t tmp;
                         828 --167:     uint32_t min_x[3], max_x[3], min_y[3], max_y[3];
                         829 --168:     uint32_t i;
                         830 --169:     r_drw2d_IntRect_t *Rects[3];
                         831 --170:     Rects[1] = Rect1;
000001ea 633f0500        832 	st.w	r7,4[sp]

                                                                      Page 15
                                                              C:\Users\MANGESH\AppData\Local\Temp\gh_00007l41.si
                         833 --171:     Rects[2] = Rect2;
000001ee 63470900        834 	st.w	r8,8[sp]
                         835 --173:     for(i = 1;i <= 2;i++) {
000001f2 010a            836 	mov	1,r1
                         837 .L604:
                         838 --174:         min_x[i] = Rects[i]->Pos.X;
000001f4 01f0            839 	mov	r1,ep
000001f6 c2f2            840 	shl	2,ep
000001f8 23763000        841 	movea	48,sp,r14
000001fc de71            842 	add	ep,r14
000001fe 23660000        843 	movea	0,sp,r12
00000202 ccf1            844 	add	r12,ep
00000204 00f5            845 	sld.w	0[ep],ep
00000206 006d            846 	sld.w	0[ep],r13
00000208 6e6f0100        847 	st.w	r13,0[r14]
                         848 --175:         min_y[i] = Rects[i]->Pos.Y;
0000020c 01f0            849 	mov	r1,ep
0000020e c2f2            850 	shl	2,ep
00000210 23761800        851 	movea	24,sp,r14
00000214 de71            852 	add	ep,r14
00000216 23660000        853 	movea	0,sp,r12
0000021a ccf1            854 	add	r12,ep
0000021c 00f5            855 	sld.w	0[ep],ep
0000021e 026d            856 	sld.w	4[ep],r13
00000220 6e6f0100        857 	st.w	r13,0[r14]
                         858 --176:         max_x[i] = Rects[i]->Pos.X + Rects[i]->Size.Width  - 1;
00000224 01f0            859 	mov	r1,ep
00000226 c2f2            860 	shl	2,ep
00000228 236e2400        861 	movea	36,sp,r13
0000022c de69            862 	add	ep,r13
0000022e 235e0000        863 	movea	0,sp,r11
00000232 cbf1            864 	add	r11,ep
00000234 0065            865 	sld.w	0[ep],r12
00000236 01f0            866 	mov	r1,ep
00000238 c2f2            867 	shl	2,ep
0000023a cbf1            868 	add	r11,ep
0000023c 00f5            869 	sld.w	0[ep],ep
0000023e 2c670100        870 	ld.w	0[r12],r12
00000242 0475            871 	sld.w	8[ep],r14
00000244 cc71            872 	add	r12,r14
00000246 5f72            873 	add	-1,r14
00000248 6d770100        874 	st.w	r14,0[r13]
                         875 --177:         max_y[i] = Rects[i]->Pos.Y + Rects[i]->Size.Height - 1;
0000024c 01f0            876 	mov	r1,ep
0000024e c2f2            877 	shl	2,ep
00000250 236e0c00        878 	movea	12,sp,r13
00000254 de69            879 	add	ep,r13
00000256 235e0000        880 	movea	0,sp,r11
0000025a cbf1            881 	add	r11,ep
0000025c 0065            882 	sld.w	0[ep],r12
0000025e 01f0            883 	mov	r1,ep
00000260 c2f2            884 	shl	2,ep
00000262 cbf1            885 	add	r11,ep
00000264 00f5            886 	sld.w	0[ep],ep
00000266 2c670500        887 	ld.w	4[r12],r12
0000026a 0675            888 	sld.w	12[ep],r14
0000026c cc71            889 	add	r12,r14
0000026e 5f72            890 	add	-1,r14
00000270 6d770100        891 	st.w	r14,0[r13]
00000274 410a            892 	add	1,r1
00000276 620a            893 	cmp	2,r1

                                                                      Page 16
                                                              C:\Users\MANGESH\AppData\Local\Temp\gh_00007l41.si
00000278 e3bd*           894 	bnh	.L604
                         895 --178:     }
                         896 --180:     min_x[0] = MIN(min_x[1], min_x[2]);
                         897 --line180
                         898 ..lin.5fb3fd47..90bbebe7.0_26::
                         899 .LDWlin26:
0000027a 230f3900        900 	ld.w	56[sp],r1
0000027e 23773500        901 	ld.w	52[sp],r14
00000282 ee09            902 	cmp	r14,r1
00000284 ee0f320b        903 	cmovnl	r14,r1,r1
00000288 630f3100        904 	st.w	r1,48[sp]
                         905 --181:     min_y[0] = MIN(min_y[1], min_y[2]);
0000028c 230f2100        906 	ld.w	32[sp],r1
00000290 23771d00        907 	ld.w	28[sp],r14
00000294 ee09            908 	cmp	r14,r1
00000296 ee0f320b        909 	cmovnl	r14,r1,r1
0000029a 630f1900        910 	st.w	r1,24[sp]
                         911 --183:     max_x[0] = MAX(max_x[1], max_x[2]);
0000029e 230f2d00        912 	ld.w	44[sp],r1
000002a2 23772900        913 	ld.w	40[sp],r14
000002a6 ee09            914 	cmp	r14,r1
000002a8 ee0f260b        915 	cmovnh	r14,r1,r1
000002ac 630f2500        916 	st.w	r1,36[sp]
                         917 --184:     max_y[0] = MAX(max_y[1], max_y[2]);
000002b0 230f1500        918 	ld.w	20[sp],r1
000002b4 23771100        919 	ld.w	16[sp],r14
000002b8 ee09            920 	cmp	r14,r1
000002ba ee0f260b        921 	cmovnh	r14,r1,r1
000002be 630f0d00        922 	st.w	r1,12[sp]
                         923 --186:     tmp.Pos.X       = min_x[0];
000002c2 230f3100        924 	ld.w	48[sp],r1
000002c6 630f3d00        925 	st.w	r1,60[sp]
                         926 --187:     tmp.Pos.Y       = min_y[0];
000002ca 230f1900        927 	ld.w	24[sp],r1
000002ce 630f4100        928 	st.w	r1,64[sp]
                         929 --188:     tmp.Size.Width  = max_x[0] - min_x[0] + 1;
000002d2 230f2500        930 	ld.w	36[sp],r1
000002d6 23773100        931 	ld.w	48[sp],r14
000002da ae09            932 	sub	r14,r1
000002dc 410a            933 	add	1,r1
000002de 630f4500        934 	st.w	r1,68[sp]
                         935 --189:     tmp.Size.Height = max_y[0] - min_y[0] + 1;
000002e2 230f0d00        936 	ld.w	12[sp],r1
000002e6 23771900        937 	ld.w	24[sp],r14
000002ea ae09            938 	sub	r14,r1
000002ec 410a            939 	add	1,r1
000002ee 630f4900        940 	st.w	r1,72[sp]
                         941 --190:     return tmp;
000002f2 a307c9630000    942 	ld.dw	60[sp],r12
000002f8 a30749540000    943 	ld.dw	68[sp],r10
000002fe a6070f600000    944 	st.dw	r12,0[r6]
00000304 a6078f500000    945 	st.dw	r10,8[r6]
                         946 --	    .ef
                         947 .LDW53:
                         948 --line191
                         949 ..lin.5fb3fd47..90bbebe7.0_27::
                         950 .LDWlin27:
0000030a 031e4c00        951 	addi	76,sp,sp
                         952 	.jumptype return
0000030e 7f00            953 	jmp	[lp]
                         954 ..lin.5fb3fd47..90bbebe7.0_28::

                                                                      Page 17
                                                              C:\Users\MANGESH\AppData\Local\Temp\gh_00007l41.si
                         955 .LDWlin28:
                         956 	.type	_MaximizeBoundingBox,@function
                         957 	.size	_MaximizeBoundingBox,.-_MaximizeBoundingBox
                         958 	.align	2
                         959 .LDW63:
                         960 --_tmp	60[sp]	local
                         961 --_min_x	48[sp]	local
                         962 --_max_x	36[sp]	local
                         963 --_min_y	24[sp]	local
                         964 --_max_y	12[sp]	local
                         965 --_i	r1	local
                         966 --_Rects	0[sp]	local
                         967 
                         968 --LRETURN..	r6	param
                         969 --_Rect1	r7	param
                         970 --_Rect2	r8	param
                         971 
                         972 	.section ".bss","awb"
                         973 .L690:
                         974 	.type	.L690,@object
                         975 	.size	.L690,0
                         976 	.data
                         977 	.text
                         978 
                         979 --191: }
                         980 
                         981 --194: static uint32_t rotation_object_scale_factor  =  R_DRW2D_2X(1);
                         982 --195: static uint32_t rotation_texture_scale_factor = R_DRW2D_2X(1);
                         983 --197: void ActivateRotationObjectScaleing(void){
                         984 	.assert 0x0 + (_rotation_texture_scale_factor - _rotation_object_scale_factor) +0 == 4
                         985 	.align	2
                         986 	.align	2
                         987 	.align	2
                         988 ..gh.f.a.2.e.9:
                         989 	.type	..gh.f.a.2.e.9,@object
                         990 	.size	..gh.f.a.2.e.9,0
                         991 	.global	_ActivateRotationObjectScaleing
                         992 _ActivateRotationObjectScaleing:
00000310 210600000000*   993 	mov	_rotation_object_scale_factor,r1
                         994 --	    .bf
                         995 .LDW73:
                         996 --198:     rotation_object_scale_factor  = R_DRW2D_2X(25);
                         997 --line198
                         998 ..lin.5fb3fd47..883cf4a2.0_29::
                         999 .LDWlin29:
00000316 40761900       1000 	movhi	hi(1638400),zero,r14
0000031a 2b0600000000*  1001 	mov	_rotation_object_scale_factor,r11
00000320 6b770100       1002 	st.w	r14,0[r11]
                        1003 --199:     rotation_texture_scale_factor = R_DRW2D_2X(1.0/25);
                        1004 --line199
                        1005 ..lin.5fb3fd47..883cf4a2.0_30::
                        1006 .LDWlin30:
00000324 20763d0a       1007 	movea	2621,zero,r14
00000328 61770500       1008 	st.w	r14,4[r1]
                        1009 --200: /*     SetRectScaleFactor(rotation_object_scale_factor); */
                        1010 --201: }
                        1011 --	    .ef
                        1012 .LDW83:
                        1013 	.jumptype return
0000032c 7f00           1014 	jmp	[lp]
                        1015 ..lin.5fb3fd47..883cf4a2.0_31::

                                                                      Page 18
                                                              C:\Users\MANGESH\AppData\Local\Temp\gh_00007l41.si
                        1016 .LDWlin31:
                        1017 	.type	_ActivateRotationObjectScaleing,@function
                        1018 	.size	_ActivateRotationObjectScaleing,.-_ActivateRotationObjectScaleing
                        1019 	.align	2
                        1020 .LDW93:
                        1021 
                        1022 	.data
                        1023 	.text
                        1024 
                        1025 
                        1026 --203: void DeactivateRotationObjectScaleing(void){
                        1027 	.assert 0x0 + (_rotation_texture_scale_factor - _rotation_object_scale_factor) +0 == 4
                        1028 	.align	2
                        1029 	.align	2
                        1030 	.align	2
                        1031 ..gh.f.a.2.e.10:
                        1032 	.type	..gh.f.a.2.e.10,@object
                        1033 	.size	..gh.f.a.2.e.10,0
                        1034 	.global	_DeactivateRotationObjectScaleing
                        1035 _DeactivateRotationObjectScaleing:
0000032e 210600000000*  1036 	mov	_rotation_object_scale_factor,r1
                        1037 --	    .bf
                        1038 .LDW04:
                        1039 --204:     rotation_object_scale_factor  = R_DRW2D_2X(1);
                        1040 --line204
                        1041 ..lin.5fb3fd47..262cc8ab.0_32::
                        1042 .LDWlin32:
00000334 40760100       1043 	movhi	hi(65536),zero,r14
00000338 2b0600000000*  1044 	mov	_rotation_object_scale_factor,r11
0000033e 6b770100       1045 	st.w	r14,0[r11]
                        1046 --205:     rotation_texture_scale_factor = R_DRW2D_2X(1);
                        1047 --line205
                        1048 ..lin.5fb3fd47..262cc8ab.0_33::
                        1049 .LDWlin33:
00000342 40760100       1050 	movhi	hi(65536),zero,r14
00000346 61770500       1051 	st.w	r14,4[r1]
                        1052 --206: /*     SetRectScaleFactor(rotation_object_scale_factor); */
                        1053 --207: }
                        1054 --	    .ef
                        1055 .LDW14:
                        1056 --line207
                        1057 ..lin.5fb3fd47..262cc8ab.0_34::
                        1058 .LDWlin34:
                        1059 	.jumptype return
0000034a 7f00           1060 	jmp	[lp]
                        1061 ..lin.5fb3fd47..262cc8ab.0_35::
                        1062 .LDWlin35:
                        1063 	.type	_DeactivateRotationObjectScaleing,@function
                        1064 	.size	_DeactivateRotationObjectScaleing,.-_DeactivateRotationObjectScaleing
                        1065 	.align	2
                        1066 .LDW24:
                        1067 
                        1068 	.data
                        1069 	.text
                        1070 
                        1071 
                        1072 --209: void SetNeedleRotationTransformationMatrix(float64_t angle, 
                        1073 	.assert 0x0 + (_rotation_object_scale_factor - _rotation_object_scale_factor) +0 == 0
                        1074 	.assert 0x0 + (_rotation_texture_scale_factor - _rotation_object_scale_factor) +0 == 4
                        1075 	.align	2
                        1076 	.align	2

                                                                      Page 19
                                                              C:\Users\MANGESH\AppData\Local\Temp\gh_00007l41.si
                        1077 	.align	2
                        1078 ..gh.f.a.2.e.11:
                        1079 	.type	..gh.f.a.2.e.11,@object
                        1080 	.size	..gh.f.a.2.e.11,0
                        1081 	.global	_SetNeedleRotationTransformationMatrix
                        1082 _SetNeedleRotationTransformationMatrix:
0000034c 031eccff       1083 	addi	-52,sp,sp
00000350 63472d00       1084 	st.w	r8,44[sp]
00000354 634f3100       1085 	st.w	r9,48[sp]
00000358 63ff2100       1086 	st.w	lp,32[sp]
0000035c 230f3d00       1087 	ld.w	60[sp],r1
00000360 a3074f300000   1088 	st.dw	r6,4[sp]
00000366 63ef0d00       1089 	st.w	r29,12[sp]
0000036a 63e71100       1090 	st.w	r28,16[sp]
0000036e 63df1500       1091 	st.w	r27,20[sp]
00000372 63d71900       1092 	st.w	r26,24[sp]
00000376 63cf1d00       1093 	st.w	r25,28[sp]
0000037a 00d2           1094 	mov	0,r26
0000037c 3c0600000000*  1095 	mov	_g_Drw2dDev,r28
00000382 3d0600000000*  1096 	mov	_rotation_object_scale_factor,r29
00000388 40def040       1097 	movhi	16624,zero,r27
0000038c 1dc8           1098 	mov	r29,r25
                        1099 --	    .bf
                        1100 .LDW34:
                        1101 --210:                                            r_drw2d_Point_t rot_center,
                        1102 --211:                                            r_drw2d_Point_t tex_rot_center,
                        1103 --212:                                            uint32_t use_texture) {
                        1104 --214:     if (use_texture) {
                        1105 --line214
                        1106 ..lin.5fb3fd47..251e8859.0_36::
                        1107 .LDWlin36:
0000038e e009           1108 	cmp	zero,r1
00000390 f22d*          1109 	be	.L857
                        1110 --215:         R_DRW2D_CtxTextureTransformMode(g_Drw2dDev, R_DRW2D_TEX_TRANSFORM_2D);
                        1111 --line215
                        1112 ..lin.5fb3fd47..251e8859.0_37::
                        1113 .LDWlin37:
00000392 3c370100       1114 	ld.w	0[r28],r6
00000396 023a           1115 	mov	2,r7
                        1116 	jarl	_R_DRW2D_CtxTextureTransformMode,lp
                        1116 <EXPANSION BEGIN>
                        1116 jarl22 _R_DRW2D_CtxTextureTransformMode , lp 
00000398 80ff0000*      1116 <EXPANSION END>
                        1117 --216:         R_DRW2D_CtxTextureIdentity(g_Drw2dDev);
                        1118 --line216
                        1119 ..lin.5fb3fd47..251e8859.0_38::
                        1120 .LDWlin38:
0000039c 3c370100       1121 	ld.w	0[r28],r6
                        1122 	jarl	_R_DRW2D_CtxTextureIdentity,lp
                        1122 <EXPANSION BEGIN>
                        1122 jarl22 _R_DRW2D_CtxTextureIdentity , lp 
000003a0 80ff0000*      1122 <EXPANSION END>
                        1123 --217:         R_DRW2D_CtxTextureTranslate(g_Drw2dDev, rot_center.X , rot_center.Y);
                        1124 --line217
                        1125 ..lin.5fb3fd47..251e8859.0_39::
                        1126 .LDWlin39:
000003a4 3c370100       1127 	ld.w	0[r28],r6
000003a8 233f2d00       1128 	ld.w	44[sp],r7
000003ac 23473100       1129 	ld.w	48[sp],r8
                        1130 	jarl	_R_DRW2D_CtxTextureTranslate,lp
                        1130 <EXPANSION BEGIN>

                                                                      Page 20
                                                              C:\Users\MANGESH\AppData\Local\Temp\gh_00007l41.si
                        1130 jarl22 _R_DRW2D_CtxTextureTranslate , lp 
000003b0 80ff0000*      1130 <EXPANSION END>
                        1131 --218:         R_DRW2D_CtxTextureRotate(g_Drw2dDev, R_DRW2D_2X(angle));
                        1132 --line218
                        1133 ..lin.5fb3fd47..251e8859.0_40::
                        1134 .LDWlin40:
000003b4 a30749300000   1135 	ld.dw	4[sp],r6
000003ba fa377464       1136 	mulf.d	r26,r6,r12
000003be 3c370100       1137 	ld.w	0[r28],r6
000003c2 e167500c       1138 	trncf.dw	r12,r1
000003c6 0138           1139 	mov	r1,r7
                        1140 	jarl	_R_DRW2D_CtxTextureRotate,lp
                        1140 <EXPANSION BEGIN>
                        1140 jarl22 _R_DRW2D_CtxTextureRotate , lp 
000003c8 80ff0000*      1140 <EXPANSION END>
                        1141 --219:         R_DRW2D_CtxTextureTranslate(g_Drw2dDev, -tex_rot_center.X , -tex_rot_center.Y);
                        1142 --line219
                        1143 ..lin.5fb3fd47..251e8859.0_41::
                        1144 .LDWlin41:
000003cc 233f3500       1145 	ld.w	52[sp],r7
000003d0 23473900       1146 	ld.w	56[sp],r8
000003d4 3c370100       1147 	ld.w	0[r28],r6
000003d8 8039           1148 	subr	zero,r7
000003da 8041           1149 	subr	zero,r8
                        1150 	jarl	_R_DRW2D_CtxTextureTranslate,lp
                        1150 <EXPANSION BEGIN>
                        1150 jarl22 _R_DRW2D_CtxTextureTranslate , lp 
000003dc 80ff0000*      1150 <EXPANSION END>
                        1151 --220:         R_DRW2D_CtxTextureScale(g_Drw2dDev, 
                        1152 --line220
                        1153 ..lin.5fb3fd47..251e8859.0_42::
                        1154 .LDWlin42:
000003e0 3d3f0500       1155 	ld.w	4[r29],r7
000003e4 3c370100       1156 	ld.w	0[r28],r6
000003e8 0740           1157 	mov	r7,r8
                        1158 	jarl	_R_DRW2D_CtxTextureScale,lp
                        1158 <EXPANSION BEGIN>
                        1158 jarl22 _R_DRW2D_CtxTextureScale , lp 
000003ea 80ff0000*      1158 <EXPANSION END>
                        1159 .L857:
                        1160 --221:                                 rotation_texture_scale_factor, 
                        1161 --222:                                 rotation_texture_scale_factor);
                        1162 --223: /*     R_DRW2D_CtxTextureTranslate(g_Drw2dDev, R_DRW2D_2X(1) , R_DRW2D_2X(1)); */
                        1163 --224:     }
                        1164 --226:     R_DRW2D_CtxIdentity(g_Drw2dDev);
                        1165 --line226
                        1166 ..lin.5fb3fd47..251e8859.0_43::
                        1167 .LDWlin43:
000003ee 3c370100       1168 	ld.w	0[r28],r6
                        1169 	jarl	_R_DRW2D_CtxIdentity,lp
                        1169 <EXPANSION BEGIN>
                        1169 jarl22 _R_DRW2D_CtxIdentity , lp 
000003f2 80ff0000*      1169 <EXPANSION END>
                        1170 --227:     R_DRW2D_CtxTranslate(g_Drw2dDev, rot_center.X , rot_center.Y, 0);
                        1171 --line227
                        1172 ..lin.5fb3fd47..251e8859.0_44::
                        1173 .LDWlin44:
000003f6 3c370100       1174 	ld.w	0[r28],r6
000003fa 004a           1175 	mov	0,r9
000003fc 233f2d00       1176 	ld.w	44[sp],r7
00000400 23473100       1177 	ld.w	48[sp],r8

                                                                      Page 21
                                                              C:\Users\MANGESH\AppData\Local\Temp\gh_00007l41.si
                        1178 	jarl	_R_DRW2D_CtxTranslate,lp
                        1178 <EXPANSION BEGIN>
                        1178 jarl22 _R_DRW2D_CtxTranslate , lp 
00000404 80ff0000*      1178 <EXPANSION END>
                        1179 --228:     R_DRW2D_CtxRotate(g_Drw2dDev, R_DRW2D_2X(angle));
                        1180 --line228
                        1181 ..lin.5fb3fd47..251e8859.0_45::
                        1182 .LDWlin45:
00000408 a30749300000   1183 	ld.dw	4[sp],r6
0000040e fa377464       1184 	mulf.d	r26,r6,r12
00000412 3c370100       1185 	ld.w	0[r28],r6
00000416 e167500c       1186 	trncf.dw	r12,r1
0000041a 0138           1187 	mov	r1,r7
                        1188 	jarl	_R_DRW2D_CtxRotate,lp
                        1188 <EXPANSION BEGIN>
                        1188 jarl22 _R_DRW2D_CtxRotate , lp 
0000041c 80ff0000*      1188 <EXPANSION END>
                        1189 --229:     R_DRW2D_CtxTranslate(g_Drw2dDev, -tex_rot_center.X , -tex_rot_center.Y, 0);    
                        1190 --line229
                        1191 ..lin.5fb3fd47..251e8859.0_46::
                        1192 .LDWlin46:
00000420 23473900       1193 	ld.w	56[sp],r8
00000424 233f3500       1194 	ld.w	52[sp],r7
00000428 3c370100       1195 	ld.w	0[r28],r6
0000042c 004a           1196 	mov	0,r9
0000042e 8041           1197 	subr	zero,r8
00000430 8039           1198 	subr	zero,r7
                        1199 	jarl	_R_DRW2D_CtxTranslate,lp
                        1199 <EXPANSION BEGIN>
                        1199 jarl22 _R_DRW2D_CtxTranslate , lp 
00000432 80ff0000*      1199 <EXPANSION END>
                        1200 --230:     R_DRW2D_CtxScale(g_Drw2dDev, 
                        1201 --line230
                        1202 ..lin.5fb3fd47..251e8859.0_47::
                        1203 .LDWlin47:
00000436 3d3f0100       1204 	ld.w	0[r29],r7
0000043a 3c370100       1205 	ld.w	0[r28],r6
0000043e 404e0100       1206 	movhi	hi(65536),zero,r9
00000442 0740           1207 	mov	r7,r8
                        1208 	jarl	_R_DRW2D_CtxScale,lp
                        1208 <EXPANSION BEGIN>
                        1208 jarl22 _R_DRW2D_CtxScale , lp 
00000444 80ff0000*      1208 <EXPANSION END>
                        1209 --231:                      rotation_object_scale_factor, 
                        1210 --232:                      rotation_object_scale_factor, R_DRW2D_2X(1));
                        1211 --233: }
                        1212 --	    .ef
                        1213 .LDW44:
                        1214 --line233
                        1215 ..lin.5fb3fd47..251e8859.0_48::
                        1216 .LDWlin48:
00000448 23ff2100       1217 	ld.w	32[sp],lp
0000044c 23ef0d00       1218 	ld.w	12[sp],r29
00000450 23e71100       1219 	ld.w	16[sp],r28
00000454 23df1500       1220 	ld.w	20[sp],r27
00000458 23d71900       1221 	ld.w	24[sp],r26
0000045c 23cf1d00       1222 	ld.w	28[sp],r25
00000460 031e3400       1223 	addi	52,sp,sp
                        1224 	.jumptype return
00000464 7f00           1225 	jmp	[lp]
                        1226 ..lin.5fb3fd47..251e8859.0_49::

                                                                      Page 22
                                                              C:\Users\MANGESH\AppData\Local\Temp\gh_00007l41.si
                        1227 .LDWlin49:
                        1228 	.type	_SetNeedleRotationTransformationMatrix,@function
                        1229 	.size	_SetNeedleRotationTransformationMatrix,.-_SetNeedleRotationTransformationMatrix
                        1230 	.align	2
                        1231 .LDW54:
                        1232 
                        1233 --_angle	4[sp]	param
                        1234 --_rot_center	44[sp]	param
                        1235 --_tex_rot_center	52[sp]	param
                        1236 --_use_texture	r1	param
                        1237 
                        1238 	.data
                        1239 	.text
                        1240 
                        1241 
                        1242 --236:     
                        1243 --237: /* void Clear_LeftNeedle(float64_t angle){ */
                        1244 --239: void Clear_RotationObject(float64_t angle,
                        1245 	.align	2
                        1246 	.align	2
                        1247 	.align	2
                        1248 ..gh.f.a.2.e.12:
                        1249 	.type	..gh.f.a.2.e.12,@object
                        1250 	.size	..gh.f.a.2.e.12,0
                        1251 	.global	_Clear_RotationObject
                        1252 _Clear_RotationObject:
00000466 031ec0ff       1253 	addi	-64,sp,sp
0000046a 634f3d00       1254 	st.w	r9,60[sp]
0000046e 63473900       1255 	st.w	r8,56[sp]
00000472 63ff2d00       1256 	st.w	lp,44[sp]
00000476 63d72900       1257 	st.w	r26,40[sp]
0000047a 63df2500       1258 	st.w	r27,36[sp]
0000047e 06d0           1259 	mov	r6,r26
00000480 63e72100       1260 	st.w	r28,32[sp]
00000484 07d8           1261 	mov	r7,r27
00000486 63ef1d00       1262 	st.w	r29,28[sp]
0000048a 230f4900       1263 	ld.w	72[sp],r1
0000048e 23e74d00       1264 	ld.w	76[sp],r28
00000492 3d0600000000*  1265 	mov	_g_Drw2dDev,r29
                        1266 --	    .bf
                        1267 .LDW64:
                        1268 --240:                           r_drw2d_Point_t rot_center,
                        1269 --241:                           r_drw2d_Point_t tex_rot_center,
                        1270 --242:                           r_drw2d_Texture_t *texture,
                        1271 --243:                           uint32_t border){
                        1272 --244:     r_drw2d_Rect_t clear_needle_rect;    
                        1273 --245:     if( angle == -90) return;   
                        1274 --line245
                        1275 ..lin.5fb3fd47..12ad7611.0_50::
                        1276 .LDWlin50:
00000498 2d06008056c0   1277 	mov	-1068072960,r13
0000049e 0062           1278 	mov	0,r12
000004a0 ecd73014       1279 	cmpf.d	eq,r26,r12,0
000004a4 e0070004       1280 	trfsr	0
000004a8 a25d*          1281 	be	.L973
                        1282 --246:     clear_needle_rect = CreateRectFromTexture(texture, 0, 0);
                        1283 --line246
                        1284 ..lin.5fb3fd47..12ad7611.0_51::
                        1285 .LDWlin51:
000004aa 0138           1286 	mov	r1,r7
000004ac 23360c00       1287 	movea	12,sp,r6

                                                                      Page 23
                                                              C:\Users\MANGESH\AppData\Local\Temp\gh_00007l41.si
000004b0 0042           1288 	mov	0,r8
000004b2 004a           1289 	mov	0,r9
                        1290 	jarl	_CreateRectFromTexture,lp
                        1290 <EXPANSION BEGIN>
                        1290 jarl22 _CreateRectFromTexture , lp 
000004b4 80ff0000*      1290 <EXPANSION END>
                        1291 --247:     
                        1292 --248:     tex_rot_center.X += R_DRW2D_2X(2) + R_DRW2D_2X(border);
                        1293 --line248
                        1294 ..lin.5fb3fd47..12ad7611.0_52::
                        1295 .LDWlin52:
000004b8 230f4100       1296 	ld.w	64[sp],r1
000004bc 1c70           1297 	mov	r28,r14
000004be d072           1298 	shl	16,r14
000004c0 4e760200       1299 	movhi	2,r14,r14
000004c4 ce09           1300 	add	r14,r1
000004c6 630f4100       1301 	st.w	r1,64[sp]
                        1302 --249:     tex_rot_center.Y += R_DRW2D_2X(2) + R_DRW2D_2X(border);
                        1303 --line249
                        1304 ..lin.5fb3fd47..12ad7611.0_53::
                        1305 .LDWlin53:
000004ca 230f4500       1306 	ld.w	68[sp],r1
000004ce 1c70           1307 	mov	r28,r14
000004d0 d072           1308 	shl	16,r14
000004d2 4e760200       1309 	movhi	2,r14,r14
000004d6 ce09           1310 	add	r14,r1
000004d8 630f4500       1311 	st.w	r1,68[sp]
                        1312 --250:     clear_needle_rect.Size.Width  += R_DRW2D_2X(4) + R_DRW2D_2X(border * 2);
                        1313 --line250
                        1314 ..lin.5fb3fd47..12ad7611.0_54::
                        1315 .LDWlin54:
000004dc 230f1500       1316 	ld.w	20[sp],r1
000004e0 1c70           1317 	mov	r28,r14
000004e2 d172           1318 	shl	17,r14
000004e4 4e760400       1319 	movhi	4,r14,r14
000004e8 ce09           1320 	add	r14,r1
000004ea 630f1500       1321 	st.w	r1,20[sp]
                        1322 --251:     clear_needle_rect.Size.Height += R_DRW2D_2X(4) + R_DRW2D_2X(border * 2);
                        1323 --line251
                        1324 ..lin.5fb3fd47..12ad7611.0_55::
                        1325 .LDWlin55:
000004ee 230f1900       1326 	ld.w	24[sp],r1
000004f2 1c70           1327 	mov	r28,r14
000004f4 d172           1328 	shl	17,r14
000004f6 4e760400       1329 	movhi	4,r14,r14
000004fa ce09           1330 	add	r14,r1
000004fc 630f1900       1331 	st.w	r1,24[sp]
                        1332 --253:     R_DRW2D_CtxFillMode(g_Drw2dDev, R_DRW2D_FILLMODE_SOLID);
                        1333 --line253
                        1334 ..lin.5fb3fd47..12ad7611.0_56::
                        1335 .LDWlin56:
00000500 3d370100       1336 	ld.w	0[r29],r6
00000504 013a           1337 	mov	1,r7
                        1338 	jarl	_R_DRW2D_CtxFillMode,lp
                        1338 <EXPANSION BEGIN>
                        1338 jarl22 _R_DRW2D_CtxFillMode , lp 
00000506 80ff0000*      1338 <EXPANSION END>
                        1339 --254:     /* R_DRW2D_CtxFgColor(g_Drw2dDev, 0xff00ffffu); */
                        1340 --255:     R_DRW2D_CtxFgColor(g_Drw2dDev, 0x00000000u);
                        1341 --line255
                        1342 ..lin.5fb3fd47..12ad7611.0_57::

                                                                      Page 24
                                                              C:\Users\MANGESH\AppData\Local\Temp\gh_00007l41.si
                        1343 .LDWlin57:
0000050a 3d370100       1344 	ld.w	0[r29],r6
0000050e 003a           1345 	mov	0,r7
                        1346 	jarl	_R_DRW2D_CtxFgColor,lp
                        1346 <EXPANSION BEGIN>
                        1346 jarl22 _R_DRW2D_CtxFgColor , lp 
00000510 80ff0000*      1346 <EXPANSION END>
                        1347 --257:     R_DRW2D_CtxBlendMode(g_Drw2dDev, R_DRW2D_BLENDMODE_SRC);
                        1348 --line257
                        1349 ..lin.5fb3fd47..12ad7611.0_58::
                        1350 .LDWlin58:
00000514 3d370100       1351 	ld.w	0[r29],r6
00000518 013a           1352 	mov	1,r7
                        1353 	jarl	_R_DRW2D_CtxBlendMode,lp
                        1353 <EXPANSION BEGIN>
                        1353 jarl22 _R_DRW2D_CtxBlendMode , lp 
0000051a 80ff0000*      1353 <EXPANSION END>
                        1354 --258:     SetNeedleRotationTransformationMatrix(angle,  rot_center, tex_rot_center, 0);
                        1355 --line258
                        1356 ..lin.5fb3fd47..12ad7611.0_59::
                        1357 .LDWlin59:
0000051e a30709640000   1358 	ld.dw	64[sp],r12
00000524 a30789430000   1359 	ld.dw	56[sp],r8
0000052a 1a30           1360 	mov	r26,r6
0000052c 1b38           1361 	mov	r27,r7
0000052e a3070f600000   1362 	st.dw	r12,0[sp]
00000534 63070900       1363 	st.w	zero,8[sp]
                        1364 	jarl	_SetNeedleRotationTransformationMatrix,lp
                        1364 <EXPANSION BEGIN>
                        1364 jarl22 _SetNeedleRotationTransformationMatrix , lp 
00000538 bfff14fe*      1364 <EXPANSION END>
                        1365 --259:     R_DRW2D_CtxImgQuality(g_Drw2dDev, R_DRW2D_IMGQUALITY_LOW);
                        1366 --line259
                        1367 ..lin.5fb3fd47..12ad7611.0_60::
                        1368 .LDWlin60:
0000053c 3d370100       1369 	ld.w	0[r29],r6
00000540 003a           1370 	mov	0,r7
                        1371 	jarl	_R_DRW2D_CtxImgQuality,lp
                        1371 <EXPANSION BEGIN>
                        1371 jarl22 _R_DRW2D_CtxImgQuality , lp 
00000542 80ff0000*      1371 <EXPANSION END>
                        1372 --260:     R_DRW2D_DrawRect(g_Drw2dDev, &clear_needle_rect);
                        1373 --line260
                        1374 ..lin.5fb3fd47..12ad7611.0_61::
                        1375 .LDWlin61:
00000546 3d370100       1376 	ld.w	0[r29],r6
0000054a 233e0c00       1377 	movea	12,sp,r7
                        1378 	jarl	_R_DRW2D_DrawRect,lp
                        1378 <EXPANSION BEGIN>
                        1378 jarl22 _R_DRW2D_DrawRect , lp 
0000054e 80ff0000*      1378 <EXPANSION END>
                        1379 --261:     R_DRW2D_CtxImgQuality(g_Drw2dDev, R_DRW2D_IMGQUALITY_HIGH);
                        1380 --line261
                        1381 ..lin.5fb3fd47..12ad7611.0_62::
                        1382 .LDWlin62:
00000552 3d370100       1383 	ld.w	0[r29],r6
00000556 023a           1384 	mov	2,r7
                        1385 	jarl	_R_DRW2D_CtxImgQuality,lp
                        1385 <EXPANSION BEGIN>
                        1385 jarl22 _R_DRW2D_CtxImgQuality , lp 
00000558 80ff0000*      1385 <EXPANSION END>

                                                                      Page 25
                                                              C:\Users\MANGESH\AppData\Local\Temp\gh_00007l41.si
                        1386 --262: }
                        1387 .L973:
                        1388 --	    .ef
                        1389 .LDW74:
                        1390 --line262
                        1391 ..lin.5fb3fd47..12ad7611.0_63::
                        1392 .LDWlin63:
0000055c 23ff2d00       1393 	ld.w	44[sp],lp
00000560 23ef1d00       1394 	ld.w	28[sp],r29
00000564 23e72100       1395 	ld.w	32[sp],r28
00000568 23df2500       1396 	ld.w	36[sp],r27
0000056c 23d72900       1397 	ld.w	40[sp],r26
00000570 031e4000       1398 	addi	64,sp,sp
                        1399 	.jumptype return
00000574 7f00           1400 	jmp	[lp]
                        1401 ..lin.5fb3fd47..12ad7611.0_64::
                        1402 .LDWlin64:
                        1403 	.type	_Clear_RotationObject,@function
                        1404 	.size	_Clear_RotationObject,.-_Clear_RotationObject
                        1405 	.align	2
                        1406 .LDW84:
                        1407 --_clear_needle_rect	12[sp]	local
                        1408 
                        1409 --_angle	r26	param
                        1410 --_rot_center	56[sp]	param
                        1411 --_tex_rot_center	64[sp]	param
                        1412 --_texture	r1	param
                        1413 --_border	r28	param
                        1414 
                        1415 	.section ".bss","awb"
                        1416 .L1058:
                        1417 	.type	.L1058,@object
                        1418 	.size	.L1058,0
                        1419 	.data
                        1420 	.text
                        1421 
                        1422 
                        1423 --264: void Refresh_RotationObject(float64_t angle,
                        1424 	.assert 0x0 + (.L1305 - .L1238) +0 == 0
                        1425 	.align	2
                        1426 	.align	2
                        1427 	.align	2
                        1428 ..gh.f.a.2.e.13:
                        1429 	.type	..gh.f.a.2.e.13,@object
                        1430 	.size	..gh.f.a.2.e.13,0
                        1431 	.global	_Refresh_RotationObject
                        1432 _Refresh_RotationObject:
00000576 031eb4ff       1433 	addi	-76,sp,sp
0000057a 634f4900       1434 	st.w	r9,72[sp]
0000057e 63474500       1435 	st.w	r8,68[sp]
00000582 63ff3900       1436 	st.w	lp,56[sp]
00000586 63ef2500       1437 	st.w	r29,36[sp]
0000058a 63cf3500       1438 	st.w	r25,52[sp]
0000058e 63d73100       1439 	st.w	r26,48[sp]
00000592 63df2d00       1440 	st.w	r27,44[sp]
00000596 63e72900       1441 	st.w	r28,40[sp]
0000059a 3d0600000000*  1442 	mov	.L1238,r29
000005a0 a307cf300000   1443 	st.dw	r6,12[sp]
000005a6 23d75500       1444 	ld.w	84[sp],r26
000005aa 1dd8           1445 	mov	r29,r27
000005ac 23cf5900       1446 	ld.w	88[sp],r25

                                                                      Page 26
                                                              C:\Users\MANGESH\AppData\Local\Temp\gh_00007l41.si
000005b0 3c0600000000*  1447 	mov	_g_Drw2dDev,r28
                        1448 --	    .bf
                        1449 .LDW94:
                        1450 --265:                             r_drw2d_Point_t rot_center,
                        1451 --266:                             r_drw2d_Point_t tex_rot_center,
                        1452 --267:                             r_drw2d_Texture_t *texture, uint32_t blendmode )
                        1453 --268: {
                        1454 --269:     r_drw2d_Rect_t draw_rect;
                        1455 --270:     
                        1456 --271:     draw_rect = CreateRectFromTexture(texture, 0, 0);
                        1457 --line271
                        1458 ..lin.5fb3fd47..b99c6999.0_65::
                        1459 .LDWlin65:
000005b6 1a38           1460 	mov	r26,r7
000005b8 23361400       1461 	movea	20,sp,r6
000005bc 0042           1462 	mov	0,r8
000005be 004a           1463 	mov	0,r9
                        1464 	jarl	_CreateRectFromTexture,lp
                        1464 <EXPANSION BEGIN>
                        1464 jarl22 _CreateRectFromTexture , lp 
000005c0 80ff0000*      1464 <EXPANSION END>
                        1465 --273:     R_DRW2D_CtxStripingEnable(g_Drw2dDev);
                        1466 --line273
                        1467 ..lin.5fb3fd47..b99c6999.0_66::
                        1468 .LDWlin66:
000005c4 3c370100       1469 	ld.w	0[r28],r6
                        1470 	jarl	_R_DRW2D_CtxStripingEnable,lp
                        1470 <EXPANSION BEGIN>
                        1470 jarl22 _R_DRW2D_CtxStripingEnable , lp 
000005c8 80ff0000*      1470 <EXPANSION END>
                        1471 --274:     
                        1472 --276:     /* draw the needle */
                        1473 --277: /*     if (blendmode == 3) { */
                        1474 --278: /*         texture->Flags = R_DRW2D_TEX_BILINEAR; */
                        1475 --279: /*     } */
                        1476 --280:     R_DRW2D_CtxTextureSet(g_Drw2dDev, 0u, texture);
                        1477 --line280
                        1478 ..lin.5fb3fd47..b99c6999.0_67::
                        1479 .LDWlin67:
000005cc 3c370100       1480 	ld.w	0[r28],r6
000005d0 1a40           1481 	mov	r26,r8
000005d2 003a           1482 	mov	0,r7
                        1483 	jarl	_R_DRW2D_CtxTextureSet,lp
                        1483 <EXPANSION BEGIN>
                        1483 jarl22 _R_DRW2D_CtxTextureSet , lp 
000005d4 80ff0000*      1483 <EXPANSION END>
                        1484 --281:     R_DRW2D_CtxFillMode(g_Drw2dDev,  R_DRW2D_FILLMODE_TEXTURE);
                        1485 --line281
                        1486 ..lin.5fb3fd47..b99c6999.0_68::
                        1487 .LDWlin68:
000005d8 3c370100       1488 	ld.w	0[r28],r6
000005dc 023a           1489 	mov	2,r7
                        1490 	jarl	_R_DRW2D_CtxFillMode,lp
                        1490 <EXPANSION BEGIN>
                        1490 jarl22 _R_DRW2D_CtxFillMode , lp 
000005de 80ff0000*      1490 <EXPANSION END>
                        1491 --283:     /* R_DRW2D_CtxFillMode(g_Drw2dDev, R_DRW2D_FILLMODE_SOLID); */
                        1492 --284: /*     R_DRW2D_CtxFgColor(g_Drw2dDev, 0xffff0000u); */
                        1493 --286: /*     R_DRW2D_CtxBlendMode(g_Drw2dDev, R_DRW2D_BLENDMODE_SRC); */
                        1494 --287:     switch (blendmode) {
                        1495 --line287

                                                                      Page 27
                                                              C:\Users\MANGESH\AppData\Local\Temp\gh_00007l41.si
                        1496 ..lin.5fb3fd47..b99c6999.0_69::
                        1497 .LDWlin69:
000005e2 1908           1498 	mov	r25,r1
000005e4 610a           1499 	cmp	1,r1
000005e6 e105*          1500 	bl	.L1112
000005e8 b20d*          1501 	be	.L1113
000005ea 630a           1502 	cmp	3,r1
000005ec f10d*          1503 	bl	.L1114
000005ee c215*          1504 	be	.L1115
000005f0 9525*          1505 	br	.L1117
                        1506 .L1112:
                        1507 --288:     case 0: /* For needle */
                        1508 --289:         R_DRW2D_CtxBlendMode(g_Drw2dDev, R_DRW2D_BLENDMODE_SRC_OVER);
                        1509 --line289
                        1510 ..lin.5fb3fd47..b99c6999.0_70::
                        1511 .LDWlin70:
000005f2 3c370100       1512 	ld.w	0[r28],r6
000005f6 023a           1513 	mov	2,r7
                        1514 	jarl	_R_DRW2D_CtxBlendMode,lp
                        1514 <EXPANSION BEGIN>
                        1514 jarl22 _R_DRW2D_CtxBlendMode , lp 
000005f8 80ff0000*      1514 <EXPANSION END>
                        1515 --290:         break;
                        1516 --291:     case 1: /* For gears */
                        1517 --line290
                        1518 ..lin.5fb3fd47..b99c6999.0_71::
                        1519 .LDWlin71:
000005fc b51d*          1520 	br	.L1117
                        1521 .L1113:
                        1522 --292:         R_DRW2D_CtxBlendMode(g_Drw2dDev, R_DRW2D_BLENDMODE_SRC_OVER);
                        1523 --line292
                        1524 ..lin.5fb3fd47..b99c6999.0_72::
                        1525 .LDWlin72:
000005fe 3c370100       1526 	ld.w	0[r28],r6
00000602 023a           1527 	mov	2,r7
                        1528 	jarl	_R_DRW2D_CtxBlendMode,lp
                        1528 <EXPANSION BEGIN>
                        1528 jarl22 _R_DRW2D_CtxBlendMode , lp 
00000604 80ff0000*      1528 <EXPANSION END>
                        1529 --293:         break;
                        1530 --294:     case 2: /* For color_wheel */
                        1531 --line293
                        1532 ..lin.5fb3fd47..b99c6999.0_73::
                        1533 .LDWlin73:
00000608 d515*          1534 	br	.L1117
                        1535 .L1114:
                        1536 --295:         R_DRW2D_CtxBlendMode(g_Drw2dDev, R_DRW2D_BLENDMODE_SRC);
                        1537 --line295
                        1538 ..lin.5fb3fd47..b99c6999.0_74::
                        1539 .LDWlin74:
0000060a 3c370100       1540 	ld.w	0[r28],r6
0000060e 013a           1541 	mov	1,r7
                        1542 	jarl	_R_DRW2D_CtxBlendMode,lp
                        1542 <EXPANSION BEGIN>
                        1542 jarl22 _R_DRW2D_CtxBlendMode , lp 
00000610 80ff0000*      1542 <EXPANSION END>
                        1543 --296:         break;
                        1544 --297:     case 3: /* For Dot Matrix display */
                        1545 --line296
                        1546 ..lin.5fb3fd47..b99c6999.0_75::
                        1547 .LDWlin75:

                                                                      Page 28
                                                              C:\Users\MANGESH\AppData\Local\Temp\gh_00007l41.si
00000614 f50d*          1548 	br	.L1117
                        1549 .L1115:
                        1550 --298: #if  1
                        1551 --299:         R_DRW2D_CtxBlendFactors (   g_Drw2dDev,
                        1552 --line299
                        1553 ..lin.5fb3fd47..b99c6999.0_76::
                        1554 .LDWlin76:
00000616 3c370100       1555 	ld.w	0[r28],r6
0000061a 0742           1556 	mov	7,r8
0000061c 63470100       1557 	st.w	r8,0[sp]
00000620 063a           1558 	mov	6,r7
00000622 064a           1559 	mov	6,r9
                        1560 	jarl	_R_DRW2D_CtxBlendFactors,lp
                        1560 <EXPANSION BEGIN>
                        1560 jarl22 _R_DRW2D_CtxBlendFactors , lp 
00000624 80ff0000*      1560 <EXPANSION END>
                        1561 --300:                                     R_DRW2D_BLEND_SRC_ALPHA,
                        1562 --301:                                     R_DRW2D_BLEND_ONE_MINUS_SRC_ALPHA,
                        1563 --302:                                     R_DRW2D_BLEND_SRC_ALPHA,
                        1564 --303:                                     R_DRW2D_BLEND_ONE_MINUS_SRC_ALPHA);
                        1565 --304:         R_DRW2D_CtxBlendMode(g_Drw2dDev, R_DRW2D_BLENDMODE_CUSTOM);
                        1566 --line304
                        1567 ..lin.5fb3fd47..b99c6999.0_77::
                        1568 .LDWlin77:
00000628 3c370100       1569 	ld.w	0[r28],r6
0000062c 003a           1570 	mov	0,r7
                        1571 	jarl	_R_DRW2D_CtxBlendMode,lp
                        1571 <EXPANSION BEGIN>
                        1571 jarl22 _R_DRW2D_CtxBlendMode , lp 
0000062e 80ff0000*      1571 <EXPANSION END>
                        1572 --305: #else
                        1573 --306:         R_DRW2D_CtxBlendMode(g_Drw2dDev, R_DRW2D_BLENDMODE_SRC);
                        1574 --307: #endif
                        1575 --308:         break;
                        1576 .L1117:
                        1577 --309:     }    
                        1578 --310:     
                        1579 --311:     SetNeedleRotationTransformationMatrix(angle,  rot_center, tex_rot_center, 1);
                        1580 --line311
                        1581 ..lin.5fb3fd47..b99c6999.0_78::
                        1582 .LDWlin78:
00000632 a307c9640000   1583 	ld.dw	76[sp],r12
00000638 a307c9300000   1584 	ld.dw	12[sp],r6
0000063e a30749440000   1585 	ld.dw	68[sp],r8
00000644 010a           1586 	mov	1,r1
00000646 a3070f600000   1587 	st.dw	r12,0[sp]
0000064c 630f0900       1588 	st.w	r1,8[sp]
                        1589 	jarl	_SetNeedleRotationTransformationMatrix,lp
                        1589 <EXPANSION BEGIN>
                        1589 jarl22 _SetNeedleRotationTransformationMatrix , lp 
00000650 bffffcfc*      1589 <EXPANSION END>
                        1590 --312: 	
                        1591 --313: 	
                        1592 --314: //================= START: ONLY RED effect on pointer =================================	
                        1593 --316: static r_drw2d_EffectStage_t Effects[1];
                        1594 --317: static unsigned char needle_blink_count;
                        1595 --319: 	Effects[0].Name = R_DRW2D_EFFECT_MODULATE;
                        1596 --line319
                        1597 ..lin.5fb3fd47..b99c6999.0_79::
                        1598 .LDWlin79:
00000654 010a           1599 	mov	1,r1

                                                                      Page 29
                                                              C:\Users\MANGESH\AppData\Local\Temp\gh_00007l41.si
00000656 7d0f0100       1600 	st.w	r1,0[r29]
                        1601 --320: 	Effects[0].Args[0].Source = R_DRW2D_EFFECT_SOURCE_TEXTURE_UNIT;
0000065a 7d070500       1602 	st.w	zero,4[r29]
                        1603 --321: 	Effects[0].Args[0].Param.Color.Source.TextureUnit = 0;
0000065e 7d070900       1604 	st.w	zero,8[r29]
                        1605 --322: 	Effects[0].Args[0].Param.Color.Operand = R_DRW2D_EFFECT_COLOR_OPERAND_RGBA;
00000662 7d070d00       1606 	st.w	zero,12[r29]
                        1607 --323: 	Effects[0].Args[1].Source = R_DRW2D_EFFECT_SOURCE_CONSTANT_COLOR;
00000666 010a           1608 	mov	1,r1
00000668 7d0f1100       1609 	st.w	r1,16[r29]
                        1610 --324: 	Effects[0].Args[1].Param.Color.Source.ConstantColor = 0xffff0000;//my_color;
0000066c 400effff       1611 	movhi	hi(-65536),zero,r1
00000670 7d0f1500       1612 	st.w	r1,20[r29]
                        1613 --325: 	Effects[0].Args[1].Param.Color.Operand = R_DRW2D_EFFECT_COLOR_OPERAND_RGBA;
                        1614 --line325
                        1615 ..lin.5fb3fd47..b99c6999.0_80::
                        1616 .LDWlin80:
00000674 7d071900       1617 	st.w	zero,24[r29]
                        1618 --327: 	
                        1619 --328: 	R_DRW2D_CtxEffectsSet(g_Drw2dDev, Effects, 1);
00000678 3c370100       1620 	ld.w	0[r28],r6
0000067c 1b38           1621 	mov	r27,r7
0000067e 0142           1622 	mov	1,r8
                        1623 	jarl	_R_DRW2D_CtxEffectsSet,lp
                        1623 <EXPANSION BEGIN>
                        1623 jarl22 _R_DRW2D_CtxEffectsSet , lp 
00000680 80ff0000*      1623 <EXPANSION END>
                        1624 --329: 		
                        1625 --330: //================= END: ONLY RED effect on pointer =================================	
                        1626 --332:     R_DRW2D_DrawRect(g_Drw2dDev, &draw_rect);
                        1627 --line332
                        1628 ..lin.5fb3fd47..b99c6999.0_81::
                        1629 .LDWlin81:
00000684 3c370100       1630 	ld.w	0[r28],r6
00000688 233e1400       1631 	movea	20,sp,r7
                        1632 	jarl	_R_DRW2D_DrawRect,lp
                        1632 <EXPANSION BEGIN>
                        1632 jarl22 _R_DRW2D_DrawRect , lp 
0000068c 80ff0000*      1632 <EXPANSION END>
                        1633 --333:     R_DRW2D_CtxStripingDisable(g_Drw2dDev);
                        1634 --line333
                        1635 ..lin.5fb3fd47..b99c6999.0_82::
                        1636 .LDWlin82:
00000690 3c370100       1637 	ld.w	0[r28],r6
                        1638 	jarl	_R_DRW2D_CtxStripingDisable,lp
                        1638 <EXPANSION BEGIN>
                        1638 jarl22 _R_DRW2D_CtxStripingDisable , lp 
00000694 80ff0000*      1638 <EXPANSION END>
                        1639 --334: 	
                        1640 --335: 	
                        1641 --336: 	R_DRW2D_CtxEffectsDelete(g_Drw2dDev);
                        1642 --line336
                        1643 ..lin.5fb3fd47..b99c6999.0_83::
                        1644 .LDWlin83:
00000698 3c370100       1645 	ld.w	0[r28],r6
                        1646 	jarl	_R_DRW2D_CtxEffectsDelete,lp
                        1646 <EXPANSION BEGIN>
                        1646 jarl22 _R_DRW2D_CtxEffectsDelete , lp 
0000069c 80ff0000*      1646 <EXPANSION END>
                        1647 --337: 	 
                        1648 --339: }

                                                                      Page 30
                                                              C:\Users\MANGESH\AppData\Local\Temp\gh_00007l41.si
                        1649 --	    .ef
                        1650 .LDW05:
                        1651 --line339
                        1652 ..lin.5fb3fd47..b99c6999.0_84::
                        1653 .LDWlin84:
000006a0 23ff3900       1654 	ld.w	56[sp],lp
000006a4 23ef2500       1655 	ld.w	36[sp],r29
000006a8 23e72900       1656 	ld.w	40[sp],r28
000006ac 23df2d00       1657 	ld.w	44[sp],r27
000006b0 23d73100       1658 	ld.w	48[sp],r26
000006b4 23cf3500       1659 	ld.w	52[sp],r25
000006b8 031e4c00       1660 	addi	76,sp,sp
                        1661 	.jumptype return
000006bc 7f00           1662 	jmp	[lp]
                        1663 ..lin.5fb3fd47..b99c6999.0_85::
                        1664 .LDWlin85:
                        1665 	.type	_Refresh_RotationObject,@function
                        1666 	.size	_Refresh_RotationObject,.-_Refresh_RotationObject
                        1667 	.align	2
                        1668 .LDW15:
                        1669 --_Effects	.L1305	static
                        1670 --_draw_rect	20[sp]	local
                        1671 
                        1672 --_angle	12[sp]	param
                        1673 --_rot_center	68[sp]	param
                        1674 --_tex_rot_center	76[sp]	param
                        1675 --_texture	r26	param
                        1676 --_blendmode	r25	param
                        1677 
                        1678 	.section ".bss","awb"
                        1679 .L1238:
                        1680 	.type	.L1238,@object
                        1681 	.size	.L1238,0
                        1682 	.global	_Effects.Refresh_RotationObject.G.3A.5Cvlib_v1.2E8_svn.5Capp.5Cgfx_apps.5Cd1m1_flashdash_demo.5Ctarget.5Cd1m2_mango_ghs.5Cobj.5Cutil..5
                        1683 _Effects.Refresh_RotationObject.G.3A.5Cvlib_v1.2E8_svn.5Capp.5Cgfx_apps.5Cd1m1_flashdash_demo.5Ctarget.5Cd1m2_mango_ghs.5Cobj.5Cutil..5:
00000008 000000000000   1684 .L1305:	.space	52
0000000e 000000000000 
00000014 000000000000 
0000001a 000000000000 
00000020 000000000000 
00000026 000000000000 
0000002c 000000000000 
00000032 000000000000 
00000038 00000000 
                        1685 	.type	_Effects.Refresh_RotationObject.G.3A.5Cvlib_v1.2E8_svn.5Capp.5Cgfx_apps.5Cd1m1_flashdash_demo.5Ctarget.5Cd1m2_mango_ghs.5Cobj.5Cutil..5,@object
                        1686 	.size	_Effects.Refresh_RotationObject.G.3A.5Cvlib_v1.2E8_svn.5Capp.5Cgfx_apps.5Cd1m1_flashdash_demo.5Ctarget.5Cd1m2_mango_ghs.5Cobj.5Cutil..5,52
                        1687 	.type	.L1305,@object
                        1688 	.size	.L1305,52
                        1689 	.data
                        1690 	.text
                        1691 
                        1692 
                        1693 --341: r_drw2d_IntRect_t CalcRect_RotationObject(float64_t angle,
                        1694 	.align	2
                        1695 	.align	2
                        1696 	.align	2
                        1697 ..gh.f.a.2.e.14:
                        1698 	.type	..gh.f.a.2.e.14,@object
                        1699 	.size	..gh.f.a.2.e.14,0
                        1700 	.global	_CalcRect_RotationObject
                        1701 _CalcRect_RotationObject:

                                                                      Page 31
                                                              C:\Users\MANGESH\AppData\Local\Temp\gh_00007l41.si
000006be 8e076130       1702 	prepare	{r26,r27,r29,r31},7
000006c2 06e8           1703 	mov	r6,r29
000006c4 08d0           1704 	mov	r8,r26
000006c6 230f3d00       1705 	ld.w	60[sp],r1
000006ca 09d8           1706 	mov	r9,r27
                        1707 --	    .bf
                        1708 .LDW25:
                        1709 --342:                                        r_drw2d_Point_t rot_center,
                        1710 --343:                                        r_drw2d_Point_t tex_rot_center,
                        1711 --344:                                        r_drw2d_Texture_t *texture)
                        1712 --345: {
                        1713 --346:     r_drw2d_Rect_t draw_rect;    
                        1714 --347:     draw_rect = CreateRectFromTexture(texture, 0, 0);
000006cc 0138           1715 	mov	r1,r7
000006ce 23360c00       1716 	movea	12,sp,r6
000006d2 0042           1717 	mov	0,r8
000006d4 004a           1718 	mov	0,r9
                        1719 	jarl	_CreateRectFromTexture,lp
                        1719 <EXPANSION BEGIN>
                        1719 jarl22 _CreateRectFromTexture , lp 
000006d6 80ff0000*      1719 <EXPANSION END>
                        1720 --348:     SetNeedleRotationTransformationMatrix(angle,  rot_center, tex_rot_center, 0);
                        1721 --line348
                        1722 ..lin.5fb3fd47..9aeba2cb.0_86::
                        1723 .LDWlin86:
000006da a30749630000   1724 	ld.dw	52[sp],r12
000006e0 a307c9420000   1725 	ld.dw	44[sp],r8
000006e6 1a30           1726 	mov	r26,r6
000006e8 1b38           1727 	mov	r27,r7
000006ea a3070f600000   1728 	st.dw	r12,0[sp]
000006f0 63070900       1729 	st.w	zero,8[sp]
                        1730 	jarl	_SetNeedleRotationTransformationMatrix,lp
                        1730 <EXPANSION BEGIN>
                        1730 jarl22 _SetNeedleRotationTransformationMatrix , lp 
000006f4 bfff58fc*      1730 <EXPANSION END>
                        1731 --349:     return CalcBoundingBoxRect2D(&draw_rect);
                        1732 --line349
                        1733 ..lin.5fb3fd47..9aeba2cb.0_87::
                        1734 .LDWlin87:
000006f8 1d30           1735 	mov	r29,r6
000006fa 233e0c00       1736 	movea	12,sp,r7
                        1737 	jarl	_CalcBoundingBoxRect2D,lp
                        1737 <EXPANSION BEGIN>
                        1737 jarl22 _CalcBoundingBoxRect2D , lp 
000006fe bfff96f9*      1737 <EXPANSION END>
                        1738 --	    .ef
                        1739 .LDW35:
                        1740 --line350
                        1741 ..lin.5fb3fd47..9aeba2cb.0_88::
                        1742 .LDWlin88:
00000702 4e067f30       1743 	dispose	7,{r26,r27,r29,r31},[lp]
                        1744 ..lin.5fb3fd47..9aeba2cb.0_89::
                        1745 .LDWlin89:
                        1746 	.type	_CalcRect_RotationObject,@function
                        1747 	.size	_CalcRect_RotationObject,.-_CalcRect_RotationObject
                        1748 	.align	2
                        1749 .LDW45:
                        1750 --_draw_rect	12[sp]	local
                        1751 
                        1752 --LRETURN..	r29	param
                        1753 --_angle	r26	param

                                                                      Page 32
                                                              C:\Users\MANGESH\AppData\Local\Temp\gh_00007l41.si
                        1754 --_rot_center	44[sp]	param
                        1755 --_tex_rot_center	52[sp]	param
                        1756 --_texture	r1	param
                        1757 
                        1758 	.section ".bss","awb"
                        1759 .L1366:
                        1760 	.type	.L1366,@object
                        1761 	.size	.L1366,0
                        1762 	.data
                        1763 	.text
                        1764 
                        1765 --350: }
                        1766 
                        1767 --353: void Refresh_ParallelRotatedObject(float64_t angle,
                        1768 	.align	2
                        1769 	.align	2
                        1770 	.align	2
                        1771 ..gh.f.a.2.e.15:
                        1772 	.type	..gh.f.a.2.e.15,@object
                        1773 	.size	..gh.f.a.2.e.15,0
                        1774 	.global	_Refresh_ParallelRotatedObject
                        1775 _Refresh_ParallelRotatedObject:
00000706 031eb8ff       1776 	addi	-72,sp,sp
0000070a 634f4500       1777 	st.w	r9,68[sp]
0000070e 63474100       1778 	st.w	r8,64[sp]
00000712 63ff3500       1779 	st.w	lp,52[sp]
00000716 63d73100       1780 	st.w	r26,48[sp]
0000071a 63df2d00       1781 	st.w	r27,44[sp]
0000071e 00d2           1782 	mov	0,r26
00000720 63e72900       1783 	st.w	r28,40[sp]
00000724 40def040       1784 	movhi	16624,zero,r27
00000728 63ef2500       1785 	st.w	r29,36[sp]
0000072c a307cf300000   1786 	st.dw	r6,12[sp]
00000732 23e75900       1787 	ld.w	88[sp],r28
00000736 3d0600000000*  1788 	mov	_g_Drw2dDev,r29
                        1789 --	    .bf
                        1790 .LDW55:
                        1791 --354:                                    r_drw2d_Point_t rot_center,
                        1792 --355:                                    r_drw2d_Point_t tex_rot_center,
                        1793 --356:                                    r_drw2d_Point_t tex_offset,
                        1794 --357:                                    r_drw2d_Texture_t *texture )
                        1795 --358: {
                        1796 --359:     r_drw2d_Rect_t draw_light_rect;
                        1797 --360:     //R_GFXUTILS_ASSERT(texture);
                        1798 --361:     draw_light_rect      = CreateRectFromTexture(texture, 0, 0);
                        1799 --line361
                        1800 ..lin.5fb3fd47..53dd1149.0_90::
                        1801 .LDWlin90:
0000073c 1c38           1802 	mov	r28,r7
0000073e 23361400       1803 	movea	20,sp,r6
00000742 0042           1804 	mov	0,r8
00000744 004a           1805 	mov	0,r9
                        1806 	jarl	_CreateRectFromTexture,lp
                        1806 <EXPANSION BEGIN>
                        1806 jarl22 _CreateRectFromTexture , lp 
00000746 80ff0000*      1806 <EXPANSION END>
                        1807 --362:     R_DRW2D_CtxStripingDisable(g_Drw2dDev);
                        1808 --line362
                        1809 ..lin.5fb3fd47..53dd1149.0_91::
                        1810 .LDWlin91:
0000074a 3d370100       1811 	ld.w	0[r29],r6

                                                                      Page 33
                                                              C:\Users\MANGESH\AppData\Local\Temp\gh_00007l41.si
                        1812 	jarl	_R_DRW2D_CtxStripingDisable,lp
                        1812 <EXPANSION BEGIN>
                        1812 jarl22 _R_DRW2D_CtxStripingDisable , lp 
0000074e 80ff0000*      1812 <EXPANSION END>
                        1813 --364:     R_DRW2D_CtxTextureSet(g_Drw2dDev, 0u, texture);
                        1814 --line364
                        1815 ..lin.5fb3fd47..53dd1149.0_92::
                        1816 .LDWlin92:
00000752 3d370100       1817 	ld.w	0[r29],r6
00000756 1c40           1818 	mov	r28,r8
00000758 003a           1819 	mov	0,r7
                        1820 	jarl	_R_DRW2D_CtxTextureSet,lp
                        1820 <EXPANSION BEGIN>
                        1820 jarl22 _R_DRW2D_CtxTextureSet , lp 
0000075a 80ff0000*      1820 <EXPANSION END>
                        1821 --365:     R_DRW2D_CtxFillMode(g_Drw2dDev,  R_DRW2D_FILLMODE_TEXTURE);
                        1822 --line365
                        1823 ..lin.5fb3fd47..53dd1149.0_93::
                        1824 .LDWlin93:
0000075e 3d370100       1825 	ld.w	0[r29],r6
00000762 023a           1826 	mov	2,r7
                        1827 	jarl	_R_DRW2D_CtxFillMode,lp
                        1827 <EXPANSION BEGIN>
                        1827 jarl22 _R_DRW2D_CtxFillMode , lp 
00000764 80ff0000*      1827 <EXPANSION END>
                        1828 --366:     
                        1829 --367:     SetNeedleRotationTransformationMatrix(angle,  rot_center, tex_rot_center, 1);
                        1830 --line367
                        1831 ..lin.5fb3fd47..53dd1149.0_94::
                        1832 .LDWlin94:
00000768 a30789640000   1833 	ld.dw	72[sp],r12
0000076e a307c9300000   1834 	ld.dw	12[sp],r6
00000774 a30709440000   1835 	ld.dw	64[sp],r8
0000077a 010a           1836 	mov	1,r1
0000077c a3070f600000   1837 	st.dw	r12,0[sp]
00000782 630f0900       1838 	st.w	r1,8[sp]
                        1839 	jarl	_SetNeedleRotationTransformationMatrix,lp
                        1839 <EXPANSION BEGIN>
                        1839 jarl22 _SetNeedleRotationTransformationMatrix , lp 
00000786 bfffc6fb*      1839 <EXPANSION END>
                        1840 --368:     R_DRW2D_CtxRotate(g_Drw2dDev, R_DRW2D_2X(-angle));
                        1841 --line368
                        1842 ..lin.5fb3fd47..53dd1149.0_95::
                        1843 .LDWlin95:
0000078a a307c9300000   1844 	ld.dw	12[sp],r6
00000790 e1375864       1845 	negf.d	r6,r12
00000794 3d370100       1846 	ld.w	0[r29],r6
00000798 fa677464       1847 	mulf.d	r26,r12,r12
0000079c e167500c       1848 	trncf.dw	r12,r1
000007a0 0138           1849 	mov	r1,r7
                        1850 	jarl	_R_DRW2D_CtxRotate,lp
                        1850 <EXPANSION BEGIN>
                        1850 jarl22 _R_DRW2D_CtxRotate , lp 
000007a2 80ff0000*      1850 <EXPANSION END>
                        1851 --369:     R_DRW2D_CtxTextureRotate(g_Drw2dDev, R_DRW2D_2X(-angle)); /* Neg angle needed here ?*/
                        1852 --line369
                        1853 ..lin.5fb3fd47..53dd1149.0_96::
                        1854 .LDWlin96:
000007a6 a307c9300000   1855 	ld.dw	12[sp],r6
000007ac e1375864       1856 	negf.d	r6,r12
000007b0 3d370100       1857 	ld.w	0[r29],r6

                                                                      Page 34
                                                              C:\Users\MANGESH\AppData\Local\Temp\gh_00007l41.si
000007b4 fa677464       1858 	mulf.d	r26,r12,r12
000007b8 e167500c       1859 	trncf.dw	r12,r1
000007bc 0138           1860 	mov	r1,r7
                        1861 	jarl	_R_DRW2D_CtxTextureRotate,lp
                        1861 <EXPANSION BEGIN>
                        1861 jarl22 _R_DRW2D_CtxTextureRotate , lp 
000007be 80ff0000*      1861 <EXPANSION END>
                        1862 --370:     R_DRW2D_CtxTextureTranslate(g_Drw2dDev, -tex_offset.X, -tex_offset.Y);
                        1863 --line370
                        1864 ..lin.5fb3fd47..53dd1149.0_97::
                        1865 .LDWlin97:
000007c2 233f5100       1866 	ld.w	80[sp],r7
000007c6 23475500       1867 	ld.w	84[sp],r8
000007ca 3d370100       1868 	ld.w	0[r29],r6
000007ce 8039           1869 	subr	zero,r7
000007d0 8041           1870 	subr	zero,r8
                        1871 	jarl	_R_DRW2D_CtxTextureTranslate,lp
                        1871 <EXPANSION BEGIN>
                        1871 jarl22 _R_DRW2D_CtxTextureTranslate , lp 
000007d2 80ff0000*      1871 <EXPANSION END>
                        1872 --371:     R_DRW2D_CtxTranslate(g_Drw2dDev, -tex_offset.X , -tex_offset.Y, 0);
                        1873 --line371
                        1874 ..lin.5fb3fd47..53dd1149.0_98::
                        1875 .LDWlin98:
000007d6 23475500       1876 	ld.w	84[sp],r8
000007da 233f5100       1877 	ld.w	80[sp],r7
000007de 3d370100       1878 	ld.w	0[r29],r6
000007e2 004a           1879 	mov	0,r9
000007e4 8041           1880 	subr	zero,r8
000007e6 8039           1881 	subr	zero,r7
                        1882 	jarl	_R_DRW2D_CtxTranslate,lp
                        1882 <EXPANSION BEGIN>
                        1882 jarl22 _R_DRW2D_CtxTranslate , lp 
000007e8 80ff0000*      1882 <EXPANSION END>
                        1883 --372:     R_DRW2D_DrawRect(g_Drw2dDev, &draw_light_rect);
                        1884 --line372
                        1885 ..lin.5fb3fd47..53dd1149.0_99::
                        1886 .LDWlin99:
000007ec 3d370100       1887 	ld.w	0[r29],r6
000007f0 233e1400       1888 	movea	20,sp,r7
                        1889 	jarl	_R_DRW2D_DrawRect,lp
                        1889 <EXPANSION BEGIN>
                        1889 jarl22 _R_DRW2D_DrawRect , lp 
000007f4 80ff0000*      1889 <EXPANSION END>
                        1890 --373: }
                        1891 --	    .ef
                        1892 .LDW65:
                        1893 --line373
                        1894 ..lin.5fb3fd47..53dd1149.0_100::
                        1895 .LDWlin100:
000007f8 23ff3500       1896 	ld.w	52[sp],lp
000007fc 23ef2500       1897 	ld.w	36[sp],r29
00000800 23e72900       1898 	ld.w	40[sp],r28
00000804 23df2d00       1899 	ld.w	44[sp],r27
00000808 23d73100       1900 	ld.w	48[sp],r26
0000080c 031e4800       1901 	addi	72,sp,sp
                        1902 	.jumptype return
00000810 7f00           1903 	jmp	[lp]
                        1904 ..lin.5fb3fd47..53dd1149.0_101::
                        1905 .LDWlin101:
                        1906 	.type	_Refresh_ParallelRotatedObject,@function

                                                                      Page 35
                                                              C:\Users\MANGESH\AppData\Local\Temp\gh_00007l41.si
                        1907 	.size	_Refresh_ParallelRotatedObject,.-_Refresh_ParallelRotatedObject
                        1908 	.align	2
                        1909 .LDW75:
                        1910 --_draw_light_rect	20[sp]	local
                        1911 
                        1912 --_angle	12[sp]	param
                        1913 --_rot_center	64[sp]	param
                        1914 --_tex_rot_center	72[sp]	param
                        1915 --_tex_offset	80[sp]	param
                        1916 --_texture	r28	param
                        1917 
                        1918 	.section ".bss","awb"
                        1919 .L1446:
                        1920 	.type	.L1446,@object
                        1921 	.size	.L1446,0
                        1922 	.data
                        1923 	.text
                        1924 
                        1925 
                        1926 --375: r_drw2d_IntRect_t CalcRect_ParallelRotatedObject(float64_t angle,
                        1927 	.align	2
                        1928 	.align	2
                        1929 	.align	2
                        1930 ..gh.f.a.2.e.16:
                        1931 	.type	..gh.f.a.2.e.16,@object
                        1932 	.size	..gh.f.a.2.e.16,0
                        1933 	.global	_CalcRect_ParallelRotatedObject
                        1934 _CalcRect_ParallelRotatedObject:
00000812 8e07e130       1935 	prepare	{r26,r27,r28,r29,r31},7
00000816 06e0           1936 	mov	r6,r28
00000818 08d0           1937 	mov	r8,r26
0000081a 230f4900       1938 	ld.w	72[sp],r1
0000081e 09d8           1939 	mov	r9,r27
00000820 3d0600000000*  1940 	mov	_g_Drw2dDev,r29
                        1941 --	    .bf
                        1942 .LDW85:
                        1943 --376:                                                  r_drw2d_Point_t rot_center,
                        1944 --377:                                                  r_drw2d_Point_t tex_rot_center,
                        1945 --378:                                                  r_drw2d_Point_t tex_offset,
                        1946 --379:                                               r_drw2d_Texture_t *texture )
                        1947 --380: {
                        1948 --381:     r_drw2d_Rect_t draw_light_rect;
                        1949 --382:     //R_GFXUTILS_ASSERT(texture);
                        1950 --383:     draw_light_rect      = CreateRectFromTexture(texture, 0, 0);
                        1951 --line383
                        1952 ..lin.5fb3fd47..938dbe3b.0_102::
                        1953 .LDWlin102:
00000826 0138           1954 	mov	r1,r7
00000828 23360c00       1955 	movea	12,sp,r6
0000082c 0042           1956 	mov	0,r8
0000082e 004a           1957 	mov	0,r9
                        1958 	jarl	_CreateRectFromTexture,lp
                        1958 <EXPANSION BEGIN>
                        1958 jarl22 _CreateRectFromTexture , lp 
00000830 80ff0000*      1958 <EXPANSION END>
                        1959 --384:     SetNeedleRotationTransformationMatrix(angle,  rot_center, tex_rot_center, 0);
                        1960 --line384
                        1961 ..lin.5fb3fd47..938dbe3b.0_103::
                        1962 .LDWlin103:
00000834 a30789630000   1963 	ld.dw	56[sp],r12
0000083a a30709430000   1964 	ld.dw	48[sp],r8

                                                                      Page 36
                                                              C:\Users\MANGESH\AppData\Local\Temp\gh_00007l41.si
00000840 1a30           1965 	mov	r26,r6
00000842 1b38           1966 	mov	r27,r7
00000844 a3070f600000   1967 	st.dw	r12,0[sp]
0000084a 63070900       1968 	st.w	zero,8[sp]
                        1969 	jarl	_SetNeedleRotationTransformationMatrix,lp
                        1969 <EXPANSION BEGIN>
                        1969 jarl22 _SetNeedleRotationTransformationMatrix , lp 
0000084e bffffefa*      1969 <EXPANSION END>
                        1970 --385:     R_DRW2D_CtxRotate(g_Drw2dDev, R_DRW2D_2X(-angle));
                        1971 --line385
                        1972 ..lin.5fb3fd47..938dbe3b.0_104::
                        1973 .LDWlin104:
00000852 e1d75864       1974 	negf.d	r26,r12
00000856 405ef040       1975 	movhi	16624,zero,r11
0000085a 0052           1976 	mov	0,r10
0000085c 3d370100       1977 	ld.w	0[r29],r6
00000860 ea677464       1978 	mulf.d	r10,r12,r12
00000864 e167500c       1979 	trncf.dw	r12,r1
00000868 0138           1980 	mov	r1,r7
                        1981 	jarl	_R_DRW2D_CtxRotate,lp
                        1981 <EXPANSION BEGIN>
                        1981 jarl22 _R_DRW2D_CtxRotate , lp 
0000086a 80ff0000*      1981 <EXPANSION END>
                        1982 --386:     R_DRW2D_CtxTranslate(g_Drw2dDev, -tex_offset.X , -tex_offset.Y, 0);
                        1983 --line386
                        1984 ..lin.5fb3fd47..938dbe3b.0_105::
                        1985 .LDWlin105:
0000086e 23474500       1986 	ld.w	68[sp],r8
00000872 233f4100       1987 	ld.w	64[sp],r7
00000876 3d370100       1988 	ld.w	0[r29],r6
0000087a 004a           1989 	mov	0,r9
0000087c 8041           1990 	subr	zero,r8
0000087e 8039           1991 	subr	zero,r7
                        1992 	jarl	_R_DRW2D_CtxTranslate,lp
                        1992 <EXPANSION BEGIN>
                        1992 jarl22 _R_DRW2D_CtxTranslate , lp 
00000880 80ff0000*      1992 <EXPANSION END>
                        1993 --387:     return CalcBoundingBoxRect2D(&draw_light_rect);
                        1994 --line387
                        1995 ..lin.5fb3fd47..938dbe3b.0_106::
                        1996 .LDWlin106:
00000884 1c30           1997 	mov	r28,r6
00000886 233e0c00       1998 	movea	12,sp,r7
                        1999 	jarl	_CalcBoundingBoxRect2D,lp
                        1999 <EXPANSION BEGIN>
                        1999 jarl22 _CalcBoundingBoxRect2D , lp 
0000088a bfff0af8*      1999 <EXPANSION END>
                        2000 --	    .ef
                        2001 .LDW95:
                        2002 --line388
                        2003 ..lin.5fb3fd47..938dbe3b.0_107::
                        2004 .LDWlin107:
0000088e 4e06ff30       2005 	dispose	7,{r26,r27,r28,r29,r31},[lp]
                        2006 ..lin.5fb3fd47..938dbe3b.0_108::
                        2007 .LDWlin108:
                        2008 	.type	_CalcRect_ParallelRotatedObject,@function
                        2009 	.size	_CalcRect_ParallelRotatedObject,.-_CalcRect_ParallelRotatedObject
                        2010 	.align	2
                        2011 .LDW06:
                        2012 --_draw_light_rect	12[sp]	local
                        2013 

                                                                      Page 37
                                                              C:\Users\MANGESH\AppData\Local\Temp\gh_00007l41.si
                        2014 --LRETURN..	r28	param
                        2015 --_angle	r26	param
                        2016 --_rot_center	48[sp]	param
                        2017 --_tex_rot_center	56[sp]	param
                        2018 --_tex_offset	64[sp]	param
                        2019 --_texture	r1	param
                        2020 
                        2021 	.section ".bss","awb"
                        2022 .L1534:
                        2023 	.type	.L1534,@object
                        2024 	.size	.L1534,0
                        2025 	.data
                        2026 	.text
                        2027 
                        2028 --388: }
                        2029 
                        2030 --391: void Clear_ParallelRotatedObject(float64_t angle,
                        2031 	.assert 0x0 + (_needle_refresh_sprite_pos - _needle_refresh_sprite_pos) +0 == 0
                        2032 	.align	2
                        2033 	.align	2
                        2034 	.align	2
                        2035 ..gh.f.a.2.e.17:
                        2036 	.type	..gh.f.a.2.e.17,@object
                        2037 	.size	..gh.f.a.2.e.17,0
                        2038 	.global	_Clear_ParallelRotatedObject
                        2039 _Clear_ParallelRotatedObject:
00000892 031eb4ff       2040 	addi	-76,sp,sp
00000896 634f4900       2041 	st.w	r9,72[sp]
0000089a 63474500       2042 	st.w	r8,68[sp]
0000089e 63ff3900       2043 	st.w	lp,56[sp]
000008a2 63ef2500       2044 	st.w	r29,36[sp]
000008a6 63cf3500       2045 	st.w	r25,52[sp]
000008aa 63d73100       2046 	st.w	r26,48[sp]
000008ae 63df2d00       2047 	st.w	r27,44[sp]
000008b2 63e72900       2048 	st.w	r28,40[sp]
000008b6 3d0600000000*  2049 	mov	_needle_refresh_sprite_pos,r29
000008bc a307cf300000   2050 	st.dw	r6,12[sp]
000008c2 23cf5d00       2051 	ld.w	92[sp],r25
000008c6 1dd8           2052 	mov	r29,r27
000008c8 23d76100       2053 	ld.w	96[sp],r26
000008cc 3c0600000000*  2054 	mov	_g_Drw2dDev,r28
                        2055 --	    .bf
                        2056 .LDW16:
                        2057 --392:                                  r_drw2d_Point_t rot_center,
                        2058 --393:                                  r_drw2d_Point_t tex_rot_center,
                        2059 --394:                                  r_drw2d_Point_t tex_offset,
                        2060 --395:                                  r_drw2d_Texture_t *texture,                                 
                        2061 --396:                                  r_drw2d_Texture_t *background)
                        2062 --397: {
                        2063 --398:     r_drw2d_Rect_t draw_light_clear_rect;
                        2064 --399:     
                        2065 --400:     SetNeedleRotationTransformationMatrix(angle,  rot_center, tex_rot_center, 0);
                        2066 --line400
                        2067 ..lin.5fb3fd47..84a466c1.0_109::
                        2068 .LDWlin109:
000008d2 a307c9640000   2069 	ld.dw	76[sp],r12
000008d8 a307c9300000   2070 	ld.dw	12[sp],r6
000008de a30749440000   2071 	ld.dw	68[sp],r8
000008e4 a3070f600000   2072 	st.dw	r12,0[sp]
000008ea 63070900       2073 	st.w	zero,8[sp]
                        2074 	jarl	_SetNeedleRotationTransformationMatrix,lp

                                                                      Page 38
                                                              C:\Users\MANGESH\AppData\Local\Temp\gh_00007l41.si
                        2074 <EXPANSION BEGIN>
                        2074 jarl22 _SetNeedleRotationTransformationMatrix , lp 
000008ee bfff5efa*      2074 <EXPANSION END>
                        2075 --401:     R_DRW2D_CtxRotate(g_Drw2dDev, R_DRW2D_2X(-angle));
                        2076 --line401
                        2077 ..lin.5fb3fd47..84a466c1.0_110::
                        2078 .LDWlin110:
000008f2 a307c9600000   2079 	ld.dw	12[sp],r12
000008f8 3c370100       2080 	ld.w	0[r28],r6
000008fc e1675854       2081 	negf.d	r12,r10
00000900 406ef040       2082 	movhi	16624,zero,r13
00000904 0062           2083 	mov	0,r12
00000906 ec577464       2084 	mulf.d	r12,r10,r12
0000090a e167500c       2085 	trncf.dw	r12,r1
0000090e 0138           2086 	mov	r1,r7
                        2087 	jarl	_R_DRW2D_CtxRotate,lp
                        2087 <EXPANSION BEGIN>
                        2087 jarl22 _R_DRW2D_CtxRotate , lp 
00000910 80ff0000*      2087 <EXPANSION END>
                        2088 --402:     R_DRW2D_CtxTranslate(g_Drw2dDev, -tex_offset.X , -tex_offset.Y, 0);
                        2089 --line402
                        2090 ..lin.5fb3fd47..84a466c1.0_111::
                        2091 .LDWlin111:
00000914 23475900       2092 	ld.w	88[sp],r8
00000918 233f5500       2093 	ld.w	84[sp],r7
0000091c 3c370100       2094 	ld.w	0[r28],r6
00000920 004a           2095 	mov	0,r9
00000922 8041           2096 	subr	zero,r8
00000924 8039           2097 	subr	zero,r7
                        2098 	jarl	_R_DRW2D_CtxTranslate,lp
                        2098 <EXPANSION BEGIN>
                        2098 jarl22 _R_DRW2D_CtxTranslate , lp 
00000926 80ff0000*      2098 <EXPANSION END>
                        2099 --404:     draw_light_clear_rect = CreateRectFromTexture(texture, 0, 0);
                        2100 --line404
                        2101 ..lin.5fb3fd47..84a466c1.0_112::
                        2102 .LDWlin112:
0000092a 1938           2103 	mov	r25,r7
0000092c 23361400       2104 	movea	20,sp,r6
00000930 0042           2105 	mov	0,r8
00000932 004a           2106 	mov	0,r9
                        2107 	jarl	_CreateRectFromTexture,lp
                        2107 <EXPANSION BEGIN>
                        2107 jarl22 _CreateRectFromTexture , lp 
00000934 80ff0000*      2107 <EXPANSION END>
                        2108 --405:     if (background) { /* If background copy use done is rectangle that has original size */
                        2109 --line405
                        2110 ..lin.5fb3fd47..84a466c1.0_113::
                        2111 .LDWlin113:
00000938 e0d1           2112 	cmp	zero,r26
0000093a 8225*          2113 	be	.L1560
                        2114 --406: /*         draw_light_clear_rect.Size.Width +=R_DRW2D_2X(30); */
                        2115 --407: /*         draw_light_clear_rect.Size.Height+=R_DRW2D_2X(30); */
                        2116 --408:         R_DRW2D_CtxTextureTransformMode(g_Drw2dDev, R_DRW2D_TEX_TRANSFORM_2D);
                        2117 --line408
                        2118 ..lin.5fb3fd47..84a466c1.0_114::
                        2119 .LDWlin114:
0000093c 3c370100       2120 	ld.w	0[r28],r6
00000940 023a           2121 	mov	2,r7
                        2122 	jarl	_R_DRW2D_CtxTextureTransformMode,lp
                        2122 <EXPANSION BEGIN>

                                                                      Page 39
                                                              C:\Users\MANGESH\AppData\Local\Temp\gh_00007l41.si
                        2122 jarl22 _R_DRW2D_CtxTextureTransformMode , lp 
00000942 80ff0000*      2122 <EXPANSION END>
                        2123 --409:         R_DRW2D_CtxTextureIdentity(g_Drw2dDev);        
                        2124 --line409
                        2125 ..lin.5fb3fd47..84a466c1.0_115::
                        2126 .LDWlin115:
00000946 3c370100       2127 	ld.w	0[r28],r6
                        2128 	jarl	_R_DRW2D_CtxTextureIdentity,lp
                        2128 <EXPANSION BEGIN>
                        2128 jarl22 _R_DRW2D_CtxTextureIdentity , lp 
0000094a 80ff0000*      2128 <EXPANSION END>
                        2129 --410:         R_DRW2D_CtxTextureTranslate(g_Drw2dDev,
                        2130 --line410
                        2131 ..lin.5fb3fd47..84a466c1.0_116::
                        2132 .LDWlin116:
0000094e 3d3f0100       2133 	ld.w	0[r29],r7
00000952 3d470500       2134 	ld.w	4[r29],r8
00000956 3c370100       2135 	ld.w	0[r28],r6
0000095a 8039           2136 	subr	zero,r7
0000095c 8041           2137 	subr	zero,r8
                        2138 	jarl	_R_DRW2D_CtxTextureTranslate,lp
                        2138 <EXPANSION BEGIN>
                        2138 jarl22 _R_DRW2D_CtxTextureTranslate , lp 
0000095e 80ff0000*      2138 <EXPANSION END>
                        2139 --411:                                     -needle_refresh_sprite_pos.X,
                        2140 --412:                                     -needle_refresh_sprite_pos.Y);
                        2141 --413:         R_DRW2D_CtxTextureSet(g_Drw2dDev, 0u, background);
                        2142 --line413
                        2143 ..lin.5fb3fd47..84a466c1.0_117::
                        2144 .LDWlin117:
00000962 3c370100       2145 	ld.w	0[r28],r6
00000966 1a40           2146 	mov	r26,r8
00000968 003a           2147 	mov	0,r7
                        2148 	jarl	_R_DRW2D_CtxTextureSet,lp
                        2148 <EXPANSION BEGIN>
                        2148 jarl22 _R_DRW2D_CtxTextureSet , lp 
0000096a 80ff0000*      2148 <EXPANSION END>
                        2149 --414:         R_DRW2D_CtxFillMode(g_Drw2dDev,  R_DRW2D_FILLMODE_TEXTURE);
                        2150 --line414
                        2151 ..lin.5fb3fd47..84a466c1.0_118::
                        2152 .LDWlin118:
0000096e 3c370100       2153 	ld.w	0[r28],r6
00000972 023a           2154 	mov	2,r7
                        2155 	jarl	_R_DRW2D_CtxFillMode,lp
                        2155 <EXPANSION BEGIN>
                        2155 jarl22 _R_DRW2D_CtxFillMode , lp 
00000974 80ff0000*      2155 <EXPANSION END>
00000978 f51d*          2156 	br	.L1562
                        2157 .L1560:
                        2158 --415:     } else { /* If clear use rectanlge that is one larger */
                        2159 --416:         draw_light_clear_rect.Size.Width  += R_DRW2D_2X(2);
                        2160 --line416
                        2161 ..lin.5fb3fd47..84a466c1.0_119::
                        2162 .LDWlin119:
0000097a 230f1d00       2163 	ld.w	28[sp],r1
0000097e 410e0200       2164 	movhi	2,r1,r1
00000982 630f1d00       2165 	st.w	r1,28[sp]
                        2166 --417:         draw_light_clear_rect.Size.Height += R_DRW2D_2X(2);
                        2167 --line417
                        2168 ..lin.5fb3fd47..84a466c1.0_120::
                        2169 .LDWlin120:

                                                                      Page 40
                                                              C:\Users\MANGESH\AppData\Local\Temp\gh_00007l41.si
00000986 230f2100       2170 	ld.w	32[sp],r1
0000098a 410e0200       2171 	movhi	2,r1,r1
0000098e 630f2100       2172 	st.w	r1,32[sp]
                        2173 --418:         R_DRW2D_CtxFillMode(g_Drw2dDev, R_DRW2D_FILLMODE_SOLID);
                        2174 --line418
                        2175 ..lin.5fb3fd47..84a466c1.0_121::
                        2176 .LDWlin121:
00000992 3c370100       2177 	ld.w	0[r28],r6
00000996 013a           2178 	mov	1,r7
                        2179 	jarl	_R_DRW2D_CtxFillMode,lp
                        2179 <EXPANSION BEGIN>
                        2179 jarl22 _R_DRW2D_CtxFillMode , lp 
00000998 80ff0000*      2179 <EXPANSION END>
                        2180 --419:         R_DRW2D_CtxFgColor(g_Drw2dDev, 0);
                        2181 --line419
                        2182 ..lin.5fb3fd47..84a466c1.0_122::
                        2183 .LDWlin122:
0000099c 3c370100       2184 	ld.w	0[r28],r6
000009a0 003a           2185 	mov	0,r7
                        2186 	jarl	_R_DRW2D_CtxFgColor,lp
                        2186 <EXPANSION BEGIN>
                        2186 jarl22 _R_DRW2D_CtxFgColor , lp 
000009a2 80ff0000*      2186 <EXPANSION END>
                        2187 --420: /*         R_DRW2D_CtxFgColor(g_Drw2dDev, 0xff00ffffu); */
                        2188 --421:         R_DRW2D_CtxTranslate(g_Drw2dDev, R_DRW2D_2X(-1) , R_DRW2D_2X(-1), 0);
                        2189 --line421
                        2190 ..lin.5fb3fd47..84a466c1.0_123::
                        2191 .LDWlin123:
000009a6 3c370100       2192 	ld.w	0[r28],r6
000009aa 403effff       2193 	movhi	hi(-65536),zero,r7
000009ae 0740           2194 	mov	r7,r8
000009b0 004a           2195 	mov	0,r9
                        2196 	jarl	_R_DRW2D_CtxTranslate,lp
                        2196 <EXPANSION BEGIN>
                        2196 jarl22 _R_DRW2D_CtxTranslate , lp 
000009b2 80ff0000*      2196 <EXPANSION END>
                        2197 .L1562:
                        2198 --422:     }
                        2199 --423:     R_DRW2D_CtxImgQuality(g_Drw2dDev, R_DRW2D_IMGQUALITY_LOW); 
                        2200 --line423
                        2201 ..lin.5fb3fd47..84a466c1.0_124::
                        2202 .LDWlin124:
000009b6 3c370100       2203 	ld.w	0[r28],r6
000009ba 003a           2204 	mov	0,r7
                        2205 	jarl	_R_DRW2D_CtxImgQuality,lp
                        2205 <EXPANSION BEGIN>
                        2205 jarl22 _R_DRW2D_CtxImgQuality , lp 
000009bc 80ff0000*      2205 <EXPANSION END>
                        2206 --424:     R_DRW2D_DrawRect(g_Drw2dDev, &draw_light_clear_rect);
                        2207 --line424
                        2208 ..lin.5fb3fd47..84a466c1.0_125::
                        2209 .LDWlin125:
000009c0 3c370100       2210 	ld.w	0[r28],r6
000009c4 233e1400       2211 	movea	20,sp,r7
                        2212 	jarl	_R_DRW2D_DrawRect,lp
                        2212 <EXPANSION BEGIN>
                        2212 jarl22 _R_DRW2D_DrawRect , lp 
000009c8 80ff0000*      2212 <EXPANSION END>
                        2213 --425:     R_DRW2D_CtxImgQuality(g_Drw2dDev, R_DRW2D_IMGQUALITY_HIGH); 
                        2214 --line425
                        2215 ..lin.5fb3fd47..84a466c1.0_126::

                                                                      Page 41
                                                              C:\Users\MANGESH\AppData\Local\Temp\gh_00007l41.si
                        2216 .LDWlin126:
000009cc 3c370100       2217 	ld.w	0[r28],r6
000009d0 023a           2218 	mov	2,r7
                        2219 	jarl	_R_DRW2D_CtxImgQuality,lp
                        2219 <EXPANSION BEGIN>
                        2219 jarl22 _R_DRW2D_CtxImgQuality , lp 
000009d2 80ff0000*      2219 <EXPANSION END>
                        2220 --426: }
                        2221 --	    .ef
                        2222 .LDW26:
                        2223 --line426
                        2224 ..lin.5fb3fd47..84a466c1.0_127::
                        2225 .LDWlin127:
000009d6 23ff3900       2226 	ld.w	56[sp],lp
000009da 23ef2500       2227 	ld.w	36[sp],r29
000009de 23e72900       2228 	ld.w	40[sp],r28
000009e2 23df2d00       2229 	ld.w	44[sp],r27
000009e6 23d73100       2230 	ld.w	48[sp],r26
000009ea 23cf3500       2231 	ld.w	52[sp],r25
000009ee 031e4c00       2232 	addi	76,sp,sp
                        2233 	.jumptype return
000009f2 7f00           2234 	jmp	[lp]
                        2235 ..lin.5fb3fd47..84a466c1.0_128::
                        2236 .LDWlin128:
                        2237 	.type	_Clear_ParallelRotatedObject,@function
                        2238 	.size	_Clear_ParallelRotatedObject,.-_Clear_ParallelRotatedObject
                        2239 	.align	2
                        2240 .LDW36:
                        2241 --_draw_light_clear_rect	20[sp]	local
                        2242 
                        2243 --_angle	12[sp]	param
                        2244 --_rot_center	68[sp]	param
                        2245 --_tex_rot_center	76[sp]	param
                        2246 --_tex_offset	84[sp]	param
                        2247 --_texture	r25	param
                        2248 --_background	r26	param
                        2249 
                        2250 	.data
                        2251 	.text
                        2252 
                        2253 
                        2254 --429: r_drw2d_Point_t IntPoint2Point(r_drw2d_IntPoint_t * IntPoint) {
                        2255 	.align	2
                        2256 	.align	2
                        2257 	.align	2
                        2258 ..gh.f.a.2.e.18:
                        2259 	.type	..gh.f.a.2.e.18,@object
                        2260 	.size	..gh.f.a.2.e.18,0
                        2261 	.global	_IntPoint2Point
                        2262 _IntPoint2Point:
000009f4 581a           2263 	add	-8,sp
000009f6 07f0           2264 	mov	r7,ep
                        2265 --	    .bf
                        2266 .LDW46:
                        2267 --430:     r_drw2d_Point_t tmp_point;
                        2268 --431:     tmp_point.X = R_DRW2D_2X(IntPoint->X);
000009f8 000d           2269 	sld.w	0[ep],r1
000009fa d00a           2270 	shl	16,r1
000009fc 630f0100       2271 	st.w	r1,0[sp]
                        2272 --432:     tmp_point.Y = R_DRW2D_2X(IntPoint->Y);
00000a00 020d           2273 	sld.w	4[ep],r1

                                                                      Page 42
                                                              C:\Users\MANGESH\AppData\Local\Temp\gh_00007l41.si
00000a02 d00a           2274 	shl	16,r1
00000a04 630f0500       2275 	st.w	r1,4[sp]
                        2276 --433:     return tmp_point;
00000a08 a30709600000   2277 	ld.dw	0[sp],r12
00000a0e a6070f600000   2278 	st.dw	r12,0[r6]
                        2279 --	    .ef
                        2280 .LDW56:
                        2281 --line434
                        2282 ..lin.5fb3fd47..73e0ef95.0_129::
                        2283 .LDWlin129:
00000a14 481a           2284 	add	8,sp
                        2285 	.jumptype return
00000a16 7f00           2286 	jmp	[lp]
                        2287 ..lin.5fb3fd47..73e0ef95.0_130::
                        2288 .LDWlin130:
                        2289 	.type	_IntPoint2Point,@function
                        2290 	.size	_IntPoint2Point,.-_IntPoint2Point
                        2291 	.align	2
                        2292 .LDW66:
                        2293 --_tmp_point	0[sp]	local
                        2294 
                        2295 --LRETURN..	r6	param
                        2296 --_IntPoint	ep	param
                        2297 
                        2298 	.section ".bss","awb"
                        2299 .L1750:
                        2300 	.type	.L1750,@object
                        2301 	.size	.L1750,0
                        2302 	.data
                        2303 	.text
                        2304 
                        2305 --434: }
                        2306 
                        2307 --436: r_drw2d_Rect_t IntRect2Rect(r_drw2d_IntRect_t * IntRect) {
                        2308 	.align	2
                        2309 	.align	2
                        2310 	.align	2
                        2311 ..gh.f.a.2.e.19:
                        2312 	.type	..gh.f.a.2.e.19,@object
                        2313 	.size	..gh.f.a.2.e.19,0
                        2314 	.global	_IntRect2Rect
                        2315 _IntRect2Rect:
00000a18 8807e100       2316 	prepare	{r28,r29,r31},4
00000a1c 06e0           2317 	mov	r6,r28
00000a1e 07e8           2318 	mov	r7,r29
                        2319 --	    .bf
                        2320 .LDW76:
                        2321 --437:     r_drw2d_Rect_t tmp_rect;
                        2322 --438:     tmp_rect.Pos = IntPoint2Point(&IntRect->Pos);
00000a20 23360000       2323 	movea	0,sp,r6
00000a24 1d38           2324 	mov	r29,r7
                        2325 	jarl	_IntPoint2Point,lp
                        2325 <EXPANSION BEGIN>
                        2325 jarl22 _IntPoint2Point , lp 
00000a26 bfffceff*      2325 <EXPANSION END>
                        2326 --439:     tmp_rect.Size.Width  = R_DRW2D_2X(IntRect->Size.Width);
                        2327 --line439
                        2328 ..lin.5fb3fd47..562db35d.0_131::
                        2329 .LDWlin131:
00000a2a 3d0f0900       2330 	ld.w	8[r29],r1
00000a2e d00a           2331 	shl	16,r1

                                                                      Page 43
                                                              C:\Users\MANGESH\AppData\Local\Temp\gh_00007l41.si
00000a30 630f0900       2332 	st.w	r1,8[sp]
                        2333 --440:     tmp_rect.Size.Height = R_DRW2D_2X(IntRect->Size.Height);
00000a34 3d0f0d00       2334 	ld.w	12[r29],r1
00000a38 d00a           2335 	shl	16,r1
00000a3a 630f0d00       2336 	st.w	r1,12[sp]
                        2337 --441:     return tmp_rect;
00000a3e a30709600000   2338 	ld.dw	0[sp],r12
00000a44 a30789500000   2339 	ld.dw	8[sp],r10
00000a4a bc070f600000   2340 	st.dw	r12,0[r28]
00000a50 bc078f500000   2341 	st.dw	r10,8[r28]
                        2342 --	    .ef
                        2343 .LDW86:
                        2344 --line442
                        2345 ..lin.5fb3fd47..562db35d.0_132::
                        2346 .LDWlin132:
00000a56 4806ff00       2347 	dispose	4,{r28,r29,r31},[lp]
                        2348 ..lin.5fb3fd47..562db35d.0_133::
                        2349 .LDWlin133:
                        2350 	.type	_IntRect2Rect,@function
                        2351 	.size	_IntRect2Rect,.-_IntRect2Rect
                        2352 	.align	2
                        2353 .LDW96:
                        2354 --_tmp_rect	0[sp]	local
                        2355 
                        2356 --LRETURN..	r28	param
                        2357 --_IntRect	r29	param
                        2358 
                        2359 	.section ".bss","awb"
                        2360 .L1802:
                        2361 	.type	.L1802,@object
                        2362 	.size	.L1802,0
                        2363 	.data
                        2364 	.text
                        2365 
                        2366 --442: }
                        2367 
                        2368 --444: void Copy_Rect(r_drw2d_Texture_t *src_p, r_drw2d_Texture_t  *dst_p,
                        2369 	.align	2
                        2370 	.align	2
                        2371 	.align	2
                        2372 ..gh.f.a.2.e.20:
                        2373 	.type	..gh.f.a.2.e.20,@object
                        2374 	.size	..gh.f.a.2.e.20,0
                        2375 	.global	_Copy_Rect
                        2376 _Copy_Rect:
00000a5a a607e110       2377 	prepare	{r27,r28,r29,r31},19
00000a5e 06e0           2378 	mov	r6,r28
00000a60 09d8           2379 	mov	r9,r27
00000a62 3d0600000000*  2380 	mov	_g_Drw2dDev,r29
                        2381 --	    .bf
                        2382 .LDW07:
                        2383 --445:                r_drw2d_IntRect_t *src_rect_p, r_drw2d_IntPoint_t *dst_pos_p) {
                        2384 --446:     r_drw2d_Rect_t  src_rect, rect;
                        2385 --447:     r_drw2d_Point_t  dst_point;
                        2386 --448:     r_drw2d_Point_t  src_translation;
                        2387 --449:     r_drw2d_Framebuffer_t frb;
                        2388 --450:     r_drw2d_TextureFlags_t old_flags;
                        2389 --451:     static uint32_t use_needle_buffer = 0;
                        2390 --453:     frb.Handle = R_NULL;
                        2391 --line453
                        2392 ..lin.5fb3fd47..71572dac.0_134::

                                                                      Page 44
                                                              C:\Users\MANGESH\AppData\Local\Temp\gh_00007l41.si
                        2393 .LDWlin134:
00000a68 63070100       2394 	st.w	zero,0[sp]
                        2395 --454:     frb.Flags  = (r_drw2d_FramebufferFlags_t)0;
00000a6c 63071900       2396 	st.w	zero,24[sp]
                        2397 --455:     frb.Buffer = dst_p->Buffer;
00000a70 07f60400       2398 	addi	4,r7,ep
00000a74 a70749600000   2399 	ld.dw	4[r7],r12
00000a7a a707c9500000   2400 	ld.dw	12[r7],r10
00000a80 0875           2401 	sld.w	16[ep],r14
00000a82 a3074f600000   2402 	st.dw	r12,4[sp]
00000a88 a307cf500000   2403 	st.dw	r10,12[sp]
00000a8e 63771500       2404 	st.w	r14,20[sp]
                        2405 --457:     src_rect  = IntRect2Rect(src_rect_p);
                        2406 --line457
                        2407 ..lin.5fb3fd47..71572dac.0_135::
                        2408 .LDWlin135:
00000a92 0838           2409 	mov	r8,r7
00000a94 23363c00       2410 	movea	60,sp,r6
                        2411 	jarl	_IntRect2Rect,lp
                        2411 <EXPANSION BEGIN>
                        2411 jarl22 _IntRect2Rect , lp 
00000a98 bfff80ff*      2411 <EXPANSION END>
                        2412 --458:     dst_point = IntPoint2Point(dst_pos_p);
                        2413 --line458
                        2414 ..lin.5fb3fd47..71572dac.0_136::
                        2415 .LDWlin136:
00000a9c 1b38           2416 	mov	r27,r7
00000a9e 23362400       2417 	movea	36,sp,r6
                        2418 	jarl	_IntPoint2Point,lp
                        2418 <EXPANSION BEGIN>
                        2418 jarl22 _IntPoint2Point , lp 
00000aa2 bfff52ff*      2418 <EXPANSION END>
                        2419 --459:     src_translation.X = -src_rect.Pos.X + dst_point.X;
                        2420 --line459
                        2421 ..lin.5fb3fd47..71572dac.0_137::
                        2422 .LDWlin137:
00000aa6 230f2500       2423 	ld.w	36[sp],r1
00000aaa 23773d00       2424 	ld.w	60[sp],r14
00000aae ae09           2425 	sub	r14,r1
00000ab0 630f1d00       2426 	st.w	r1,28[sp]
                        2427 --460:     src_translation.Y = -src_rect.Pos.Y + dst_point.Y;
00000ab4 230f2900       2428 	ld.w	40[sp],r1
00000ab8 23774100       2429 	ld.w	64[sp],r14
00000abc ae09           2430 	sub	r14,r1
00000abe 630f2100       2431 	st.w	r1,32[sp]
                        2432 --462:     old_flags = src_p->Flags;
00000ac2 3cdf1900       2433 	ld.w	24[r28],r27
                        2434 --463:     src_p->Flags = 0;
00000ac6 7c071900       2435 	st.w	zero,24[r28]
                        2436 --464:     R_DRW2D_CtxTextureSet(g_Drw2dDev, 0, src_p);
00000aca 3d370100       2437 	ld.w	0[r29],r6
00000ace 1c40           2438 	mov	r28,r8
00000ad0 003a           2439 	mov	0,r7
                        2440 	jarl	_R_DRW2D_CtxTextureSet,lp
                        2440 <EXPANSION BEGIN>
                        2440 jarl22 _R_DRW2D_CtxTextureSet , lp 
00000ad2 80ff0000*      2440 <EXPANSION END>
                        2441 --465:     
                        2442 --466:     R_DRW2D_CtxTextureIdentity(g_Drw2dDev);
                        2443 --line466
                        2444 ..lin.5fb3fd47..71572dac.0_138::

                                                                      Page 45
                                                              C:\Users\MANGESH\AppData\Local\Temp\gh_00007l41.si
                        2445 .LDWlin138:
00000ad6 3d370100       2446 	ld.w	0[r29],r6
                        2447 	jarl	_R_DRW2D_CtxTextureIdentity,lp
                        2447 <EXPANSION BEGIN>
                        2447 jarl22 _R_DRW2D_CtxTextureIdentity , lp 
00000ada 80ff0000*      2447 <EXPANSION END>
                        2448 --467:     R_DRW2D_CtxTextureTranslate(g_Drw2dDev, src_translation.X, src_translation.Y);
                        2449 --line467
                        2450 ..lin.5fb3fd47..71572dac.0_139::
                        2451 .LDWlin139:
00000ade 3d370100       2452 	ld.w	0[r29],r6
00000ae2 233f1d00       2453 	ld.w	28[sp],r7
00000ae6 23472100       2454 	ld.w	32[sp],r8
                        2455 	jarl	_R_DRW2D_CtxTextureTranslate,lp
                        2455 <EXPANSION BEGIN>
                        2455 jarl22 _R_DRW2D_CtxTextureTranslate , lp 
00000aea 80ff0000*      2455 <EXPANSION END>
                        2456 --469:     R_DRW2D_CtxIdentity(g_Drw2dDev);
                        2457 --line469
                        2458 ..lin.5fb3fd47..71572dac.0_140::
                        2459 .LDWlin140:
00000aee 3d370100       2460 	ld.w	0[r29],r6
                        2461 	jarl	_R_DRW2D_CtxIdentity,lp
                        2461 <EXPANSION BEGIN>
                        2461 jarl22 _R_DRW2D_CtxIdentity , lp 
00000af2 80ff0000*      2461 <EXPANSION END>
                        2462 --471:     R_DRW2D_CtxFillMode(g_Drw2dDev,  R_DRW2D_FILLMODE_TEXTURE);
                        2463 --line471
                        2464 ..lin.5fb3fd47..71572dac.0_141::
                        2465 .LDWlin141:
00000af6 3d370100       2466 	ld.w	0[r29],r6
00000afa 023a           2467 	mov	2,r7
                        2468 	jarl	_R_DRW2D_CtxFillMode,lp
                        2468 <EXPANSION BEGIN>
                        2468 jarl22 _R_DRW2D_CtxFillMode , lp 
00000afc 80ff0000*      2468 <EXPANSION END>
                        2469 --472:     R_DRW2D_CtxBlendMode(g_Drw2dDev, R_DRW2D_BLENDMODE_SRC);
                        2470 --line472
                        2471 ..lin.5fb3fd47..71572dac.0_142::
                        2472 .LDWlin142:
00000b00 3d370100       2473 	ld.w	0[r29],r6
00000b04 013a           2474 	mov	1,r7
                        2475 	jarl	_R_DRW2D_CtxBlendMode,lp
                        2475 <EXPANSION BEGIN>
                        2475 jarl22 _R_DRW2D_CtxBlendMode , lp 
00000b06 80ff0000*      2475 <EXPANSION END>
                        2476 --474:     rect.Pos         = dst_point;
                        2477 --line474
                        2478 ..lin.5fb3fd47..71572dac.0_143::
                        2479 .LDWlin143:
00000b0a a30749620000   2480 	ld.dw	36[sp],r12
00000b10 a307cf620000   2481 	st.dw	r12,44[sp]
                        2482 --475:     rect.Size        = src_rect.Size;
                        2483 --line475
                        2484 ..lin.5fb3fd47..71572dac.0_144::
                        2485 .LDWlin144:
00000b16 a30749640000   2486 	ld.dw	68[sp],r12
00000b1c a3074f630000   2487 	st.dw	r12,52[sp]
                        2488 --478:     if(use_needle_buffer){
                        2489 --line478
                        2490 ..lin.5fb3fd47..71572dac.0_145::

                                                                      Page 46
                                                              C:\Users\MANGESH\AppData\Local\Temp\gh_00007l41.si
                        2491 .LDWlin145:
00000b22 210600000000*  2492 	mov	.L2025,r1
00000b28 210f0100       2493 	ld.w	0[r1],r1
00000b2c e009           2494 	cmp	zero,r1
00000b2e f215*          2495 	be	.L1825
                        2496 --	    .bs
                        2497 .LDW17:
                        2498 --479:         r_drw2d_Framebuffer_t *draw_fb;
                        2499 --480:         draw_fb = MbSpriteNewDrawBufGet(&LeftNeedle);
                        2500 --line480
                        2501 ..lin.5fb3fd47..71572dac.0_146::
                        2502 .LDWlin146:
00000b30 260600000000*  2503 	mov	_LeftNeedle,r6
                        2504 	jarl	_MbSpriteNewDrawBufGet,lp
                        2504 <EXPANSION BEGIN>
                        2504 jarl22 _MbSpriteNewDrawBufGet , lp 
00000b36 80ff0000*      2504 <EXPANSION END>
00000b3a 0a38           2505 	mov	r10,r7
                        2506 --481:         R_DRW2D_FramebufferSet(g_Drw2dDev, draw_fb);
                        2507 --line481
                        2508 ..lin.5fb3fd47..71572dac.0_147::
                        2509 .LDWlin147:
00000b3c 3d370100       2510 	ld.w	0[r29],r6
                        2511 	jarl	_R_DRW2D_FramebufferSet,lp
                        2511 <EXPANSION BEGIN>
                        2511 jarl22 _R_DRW2D_FramebufferSet , lp 
00000b40 80ff0000*      2511 <EXPANSION END>
                        2512 --482:         R_DRW2D_CtxBgColor(g_Drw2dDev, 0xff0000ff);
                        2513 --line482
                        2514 ..lin.5fb3fd47..71572dac.0_148::
                        2515 .LDWlin148:
00000b44 3d370100       2516 	ld.w	0[r29],r6
00000b48 2706ff0000ff   2517 	mov	-16776961,r7
                        2518 	jarl	_R_DRW2D_CtxBgColor,lp
                        2518 <EXPANSION BEGIN>
                        2518 jarl22 _R_DRW2D_CtxBgColor , lp 
00000b4e 80ff0000*      2518 <EXPANSION END>
                        2519 --483:         R_DRW2D_FramebufferClear(g_Drw2dDev);
                        2520 --line483
                        2521 ..lin.5fb3fd47..71572dac.0_149::
                        2522 .LDWlin149:
00000b52 3d370100       2523 	ld.w	0[r29],r6
                        2524 	jarl	_R_DRW2D_FramebufferClear,lp
                        2524 <EXPANSION BEGIN>
                        2524 jarl22 _R_DRW2D_FramebufferClear , lp 
00000b56 80ff0000*      2524 <EXPANSION END>
                        2525 --	    .es
                        2526 .LDW27:
                        2527 --line483
                        2528 ..lin.5fb3fd47..71572dac.0_150::
                        2529 .LDWlin150:
00000b5a f505*          2530 	br	.L1827
                        2531 .L1825:
                        2532 --484:     } else {
                        2533 --485:         R_DRW2D_FramebufferSet(g_Drw2dDev, &frb);
                        2534 --line485
                        2535 ..lin.5fb3fd47..71572dac.0_151::
                        2536 .LDWlin151:
00000b5c 3d370100       2537 	ld.w	0[r29],r6
00000b60 233e0000       2538 	movea	0,sp,r7
                        2539 	jarl	_R_DRW2D_FramebufferSet,lp

                                                                      Page 47
                                                              C:\Users\MANGESH\AppData\Local\Temp\gh_00007l41.si
                        2539 <EXPANSION BEGIN>
                        2539 jarl22 _R_DRW2D_FramebufferSet , lp 
00000b64 80ff0000*      2539 <EXPANSION END>
                        2540 .L1827:
                        2541 --486:     }
                        2542 --487:     R_DRW2D_CtxImgQuality(g_Drw2dDev, R_DRW2D_IMGQUALITY_LOW);
                        2543 --line487
                        2544 ..lin.5fb3fd47..71572dac.0_152::
                        2545 .LDWlin152:
00000b68 3d370100       2546 	ld.w	0[r29],r6
00000b6c 003a           2547 	mov	0,r7
                        2548 	jarl	_R_DRW2D_CtxImgQuality,lp
                        2548 <EXPANSION BEGIN>
                        2548 jarl22 _R_DRW2D_CtxImgQuality , lp 
00000b6e 80ff0000*      2548 <EXPANSION END>
                        2549 --488:     R_DRW2D_DrawRect(g_Drw2dDev, &rect);
                        2550 --line488
                        2551 ..lin.5fb3fd47..71572dac.0_153::
                        2552 .LDWlin153:
00000b72 3d370100       2553 	ld.w	0[r29],r6
00000b76 233e2c00       2554 	movea	44,sp,r7
                        2555 	jarl	_R_DRW2D_DrawRect,lp
                        2555 <EXPANSION BEGIN>
                        2555 jarl22 _R_DRW2D_DrawRect , lp 
00000b7a 80ff0000*      2555 <EXPANSION END>
                        2556 --489:     src_p->Flags = old_flags;
                        2557 --line489
                        2558 ..lin.5fb3fd47..71572dac.0_154::
                        2559 .LDWlin154:
00000b7e 7cdf1900       2560 	st.w	r27,24[r28]
                        2561 --490:     R_DRW2D_CtxImgQuality(g_Drw2dDev, R_DRW2D_IMGQUALITY_HIGH);
00000b82 3d370100       2562 	ld.w	0[r29],r6
00000b86 023a           2563 	mov	2,r7
                        2564 	jarl	_R_DRW2D_CtxImgQuality,lp
                        2564 <EXPANSION BEGIN>
                        2564 jarl22 _R_DRW2D_CtxImgQuality , lp 
00000b88 80ff0000*      2564 <EXPANSION END>
                        2565 --491: }
                        2566 --	    .ef
                        2567 .LDW37:
                        2568 --line491
                        2569 ..lin.5fb3fd47..71572dac.0_155::
                        2570 .LDWlin155:
00000b8c 6606ff10       2571 	dispose	19,{r27,r28,r29,r31},[lp]
                        2572 ..lin.5fb3fd47..71572dac.0_156::
                        2573 .LDWlin156:
                        2574 	.type	_Copy_Rect,@function
                        2575 	.size	_Copy_Rect,.-_Copy_Rect
                        2576 	.align	2
                        2577 .LDW47:
                        2578 --_use_needle_buffer	.L2025	static
                        2579 --_src_rect	60[sp]	local
                        2580 --_rect	44[sp]	local
                        2581 --_dst_point	36[sp]	local
                        2582 --_src_translation	28[sp]	local
                        2583 --_frb	0[sp]	local
                        2584 --_old_flags	r27	local
                        2585 --_draw_fb	r7	local
                        2586 
                        2587 --_src_p	r28	param
                        2588 --_dst_p	r7	param

                                                                      Page 48
                                                              C:\Users\MANGESH\AppData\Local\Temp\gh_00007l41.si
                        2589 --_src_rect_p	r8	param
                        2590 --_dst_pos_p	r27	param
                        2591 
                        2592 	.section ".bss","awb"
                        2593 .L1962:
                        2594 	.type	.L1962,@object
                        2595 	.size	.L1962,0
                        2596 	.data
                        2597 .L2025:
                        2598 	.global	_use_needle_buffer.Copy_Rect.G.3A.5Cvlib_v1.2E8_svn.5Capp.5Cgfx_apps.5Cd1m1_flashdash_demo.5Ctarget.5Cd1m2_mango_ghs.5Cobj.5Cutil..6
                        2599 _use_needle_buffer.Copy_Rect.G.3A.5Cvlib_v1.2E8_svn.5Capp.5Cgfx_apps.5Cd1m1_flashdash_demo.5Ctarget.5Cd1m2_mango_ghs.5Cobj.5Cutil..6:
00000008 00000000       2600 	.byte	0,0,0,0
                        2601 	.type	_use_needle_buffer.Copy_Rect.G.3A.5Cvlib_v1.2E8_svn.5Capp.5Cgfx_apps.5Cd1m1_flashdash_demo.5Ctarget.5Cd1m2_mango_ghs.5Cobj.5Cutil..6,@object
                        2602 	.size	_use_needle_buffer.Copy_Rect.G.3A.5Cvlib_v1.2E8_svn.5Capp.5Cgfx_apps.5Cd1m1_flashdash_demo.5Ctarget.5Cd1m2_mango_ghs.5Cobj.5Cutil..6,4
                        2603 	.type	.L2025,@object
                        2604 	.size	.L2025,4
                        2605 	.text
                        2606 
                        2607 	.align	2
                        2608 --_g_Drw2dDev	_g_Drw2dDev	import
                        2609 --_LeftNeedle	_LeftNeedle	import
                        2610 --_qos_config_slow	_qos_config_slow	static
                        2611 --_qos_config_max	_qos_config_max	static
                        2612 --_needle_refresh_sprite_pos	_needle_refresh_sprite_pos	static
                        2613 --_rotation_object_scale_factor	_rotation_object_scale_factor	static
                        2614 --_rotation_texture_scale_factor	_rotation_texture_scale_factor	static
                        2615 
                        2616 	.data
                        2617 	.ghsnote version,19
                        2618 	.ghsnote tools,3
                        2619 	.ghsnote options,656
                        2620 	.text
                        2621 	.align	2
                        2622 ..eof.G.3A.5Cvlib_v1.2E8_svn.5Capp.5Cgfx_apps.5Cd1m1_flashdash_demo.5Ctarget.5Cd1m2_mango_ghs.5Cobj.5Cutil...47.3A.5Cvlib_v1.2E8_svn.5Capp.5Cgfx_apps.5Cd1m1_flashdash_demo.5Ctarget.5Cd1m2_mango_ghs..5C39AB0B..0::
                        2623 .rh850_flags DOUBLE,REGMODE22,DATA_ALIGN8,GP_FIX,EP_NONFIX,TP_FIX,REG2_RESERVE,DOUBLE64,G3M,SDA_EXTRA_REGS_0
